(dp0
I2
(dp1
S'True'
p2
(dp3
g2
(dp4
S'transfer'
p5
(dp6
F0.0
ccopy_reg
_reconstructor
p7
(cpandas.core.series
Series
p8
c__builtin__
object
p9
Ntp10
Rp11
(dp12
S'_metadata'
p13
(lp14
S'name'
p15
asS'_data'
p16
g7
(cpandas.core.internals
SingleBlockManager
p17
g9
Ntp18
Rp19
((lp20
cpandas.core.indexes.base
_new_Index
p21
(cpandas.core.indexes.base
Index
p22
(dp23
S'data'
p24
cnumpy.core.multiarray
_reconstruct
p25
(cnumpy
ndarray
p26
(I0
tp27
S'b'
p28
tp29
Rp30
(I1
(I6
tp31
cnumpy
dtype
p32
(S'O8'
p33
I0
I1
tp34
Rp35
(I3
S'|'
p36
NNNI-1
I-1
I63
tp37
bI00
(lp38
S'dw'
p39
aS'fridge'
p40
aS'hvac'
p41
aS'mw'
p42
aS'oven'
p43
aS'wm'
p44
atp45
bsg15
Nstp46
Rp47
a(lp48
g25
(g26
(I0
tp49
g28
tp50
Rp51
(I1
(I6
tp52
g32
(S'f8'
p53
I0
I1
tp54
Rp55
(I3
S'<'
p56
NNNI-1
I-1
I0
tp57
bI00
S':-\xc4\x1a{O\x01@4\xeb\x19\x06t\x91#@Bq\xc3\xfeU\x125@\xcf0\xbf\xc4V\xb4\x05@[T\n\xaf\xe4\xd3\x07@\x93\x8a\x01\xd6\x9b\x00\xf4?'
p58
tp59
ba(lp60
g21
(g22
(dp61
g24
g25
(g26
(I0
tp62
g28
tp63
Rp64
(I1
(I6
tp65
g35
I00
(lp66
g39
ag40
ag41
ag42
ag43
ag44
atp67
bsg15
Nstp68
Rp69
a(dp70
S'0.14.1'
p71
(dp72
S'axes'
p73
g20
sS'blocks'
p74
(lp75
(dp76
S'mgr_locs'
p77
c__builtin__
slice
p78
(I0
I6
I1
tp79
Rp80
sS'values'
p81
g51
sasstp82
bsS'_typ'
p83
S'series'
p84
sg15
NsbssS'normal'
p85
(dp86
F0.0
g7
(g8
g9
Ntp87
Rp88
(dp89
g13
g14
sg16
g7
(g17
g9
Ntp90
Rp91
((lp92
g21
(g22
(dp93
g24
g25
(g26
(I0
tp94
g28
tp95
Rp96
(I1
(I6
tp97
g35
I00
(lp98
g39
ag40
ag41
ag42
ag43
ag44
atp99
bsg15
Nstp100
Rp101
a(lp102
g25
(g26
(I0
tp103
g28
tp104
Rp105
(I1
(I6
tp106
g55
I00
S'\xd4\xa2/\xfa\x0e\t0@\x1a\xd1\xc8\x1b\x85\xbf\x1f@v\xef\x8e9[\xee2@\xf9\xcc\x81\x8c\x93\x191@\n\xe87.d\x9a.@5\x97\x86\xc0J\xa2/@'
p107
tp108
ba(lp109
g21
(g22
(dp110
g24
g25
(g26
(I0
tp111
g28
tp112
Rp113
(I1
(I6
tp114
g35
I00
(lp115
g39
ag40
ag41
ag42
ag43
ag44
atp116
bsg15
Nstp117
Rp118
a(dp119
g71
(dp120
g73
g92
sg74
(lp121
(dp122
g77
g78
(I0
I6
I1
tp123
Rp124
sg81
g105
sasstp125
bsg83
g84
sg15
NsbsssssI4
(dp126
g2
(dp127
g2
(dp128
g5
(dp129
F0.0
g7
(g8
g9
Ntp130
Rp131
(dp132
g13
g14
sg16
g7
(g17
g9
Ntp133
Rp134
((lp135
g21
(g22
(dp136
g24
g25
(g26
(I0
tp137
g28
tp138
Rp139
(I1
(I6
tp140
g35
I00
(lp141
g39
ag40
ag41
ag42
ag43
ag44
atp142
bsg15
Nstp143
Rp144
a(lp145
g25
(g26
(I0
tp146
g28
tp147
Rp148
(I1
(I6
tp149
g55
I00
S'\x15B\x88}\\~\xfd?\xb8bN\xb2\xbc\x80 @\xb7&DJ\xcf\x979@y\x0e,\xe8{\xb4\x00@\n\xb5g\xb0\x90\x9c\x04@\x03\x9e9*\x8e\xa0\xeb?'
p150
tp151
ba(lp152
g21
(g22
(dp153
g24
g25
(g26
(I0
tp154
g28
tp155
Rp156
(I1
(I6
tp157
g35
I00
(lp158
g39
ag40
ag41
ag42
ag43
ag44
atp159
bsg15
Nstp160
Rp161
a(dp162
g71
(dp163
g73
g135
sg74
(lp164
(dp165
g77
g78
(I0
I6
I1
tp166
Rp167
sg81
g148
sasstp168
bsg83
g84
sg15
Nsbssg85
(dp169
F0.0
g7
(g8
g9
Ntp170
Rp171
(dp172
g13
g14
sg16
g7
(g17
g9
Ntp173
Rp174
((lp175
g21
(g22
(dp176
g24
g25
(g26
(I0
tp177
g28
tp178
Rp179
(I1
(I6
tp180
g35
I00
(lp181
g39
ag40
ag41
ag42
ag43
ag44
atp182
bsg15
Nstp183
Rp184
a(lp185
g25
(g26
(I0
tp186
g28
tp187
Rp188
(I1
(I6
tp189
g55
I00
S'\x07\xad\x1d\x9f\xff\xe7 @\xbe\x97\xc1\xc2,\xb1 @\xc9J<\xb1\xba\x946@C\x91SS$\x18 @|\xafO\x1b\xe9\x9e\x16@\x12\xcfyv\xf2: @'
p190
tp191
ba(lp192
g21
(g22
(dp193
g24
g25
(g26
(I0
tp194
g28
tp195
Rp196
(I1
(I6
tp197
g35
I00
(lp198
g39
ag40
ag41
ag42
ag43
ag44
atp199
bsg15
Nstp200
Rp201
a(dp202
g71
(dp203
g73
g175
sg74
(lp204
(dp205
g77
g78
(I0
I6
I1
tp206
Rp207
sg81
g188
sasstp208
bsg83
g84
sg15
Nsbsssss.