(dp0
I2
(dp1
S'False'
p2
(dp3
g2
(dp4
S'transfer'
p5
(dp6
F0.0
ccopy_reg
_reconstructor
p7
(cpandas.core.series
Series
p8
c__builtin__
object
p9
Ntp10
Rp11
(dp12
S'_metadata'
p13
(lp14
S'name'
p15
asS'_data'
p16
g7
(cpandas.core.internals
SingleBlockManager
p17
g9
Ntp18
Rp19
((lp20
cpandas.core.indexes.base
_new_Index
p21
(cpandas.core.indexes.base
Index
p22
(dp23
S'data'
p24
cnumpy.core.multiarray
_reconstruct
p25
(cnumpy
ndarray
p26
(I0
tp27
S'b'
p28
tp29
Rp30
(I1
(I6
tp31
cnumpy
dtype
p32
(S'O8'
p33
I0
I1
tp34
Rp35
(I3
S'|'
p36
NNNI-1
I-1
I63
tp37
bI00
(lp38
S'dw'
p39
aS'fridge'
p40
aS'hvac'
p41
aS'mw'
p42
aS'oven'
p43
aS'wm'
p44
atp45
bsg15
Nstp46
Rp47
a(lp48
g25
(g26
(I0
tp49
g28
tp50
Rp51
(I1
(I6
tp52
g32
(S'f8'
p53
I0
I1
tp54
Rp55
(I3
S'<'
p56
NNNI-1
I-1
I0
tp57
bI00
S'\x82z=\xa5}_\x02@\xd5\x16\xdf\x90L\xe8&@\xe6\xa1q\x0c\xcc\x835@\xd4_\xc4gW\x92\x03@\xb6\xf2\x7f\x9f\xce\x85\x08@\xf3C\xa3\xab\x1f\x9d\xf3?'
p58
tp59
ba(lp60
g21
(g22
(dp61
g24
g25
(g26
(I0
tp62
g28
tp63
Rp64
(I1
(I6
tp65
g35
I00
(lp66
g39
ag40
ag41
ag42
ag43
ag44
atp67
bsg15
Nstp68
Rp69
a(dp70
S'0.14.1'
p71
(dp72
S'axes'
p73
g20
sS'blocks'
p74
(lp75
(dp76
S'mgr_locs'
p77
c__builtin__
slice
p78
(I0
I6
I1
tp79
Rp80
sS'values'
p81
g51
sasstp82
bsS'_typ'
p83
S'series'
p84
sg15
NsbssS'normal'
p85
(dp86
F0.0
g7
(g8
g9
Ntp87
Rp88
(dp89
g13
g14
sg16
g7
(g17
g9
Ntp90
Rp91
((lp92
g21
(g22
(dp93
g24
g25
(g26
(I0
tp94
g28
tp95
Rp96
(I1
(I6
tp97
g35
I00
(lp98
g39
ag40
ag41
ag42
ag43
ag44
atp99
bsg15
Nstp100
Rp101
a(lp102
g25
(g26
(I0
tp103
g28
tp104
Rp105
(I1
(I6
tp106
g55
I00
S'\xcf\xda\x9b\x1cF\xea1@*\x057\xfd\x8e\x80 @\xdc\x02\xf5[,\x013@}\\y\xa5\x03g3@4I\x7f2"@2@\x8d\xe6=o\xe6\x0b2@'
p107
tp108
ba(lp109
g21
(g22
(dp110
g24
g25
(g26
(I0
tp111
g28
tp112
Rp113
(I1
(I6
tp114
g35
I00
(lp115
g39
ag40
ag41
ag42
ag43
ag44
atp116
bsg15
Nstp117
Rp118
a(dp119
g71
(dp120
g73
g92
sg74
(lp121
(dp122
g77
g78
(I0
I6
I1
tp123
Rp124
sg81
g105
sasstp125
bsg83
g84
sg15
NsbsssS'True'
p126
(dp127
g5
(dp128
F0.0
g7
(g8
g9
Ntp129
Rp130
(dp131
g13
g14
sg16
g7
(g17
g9
Ntp132
Rp133
((lp134
g21
(g22
(dp135
g24
g25
(g26
(I0
tp136
g28
tp137
Rp138
(I1
(I6
tp139
g35
I00
(lp140
g39
ag40
ag41
ag42
ag43
ag44
atp141
bsg15
Nstp142
Rp143
a(lp144
g25
(g26
(I0
tp145
g28
tp146
Rp147
(I1
(I6
tp148
g55
I00
S'\x82z=\xa5}_\x02@\xd5\x16\xdf\x90L\xe8&@\xe6\xa1q\x0c\xcc\x835@\xd4_\xc4gW\x92\x03@\xb6\xf2\x7f\x9f\xce\x85\x08@\xf3C\xa3\xab\x1f\x9d\xf3?'
p149
tp150
ba(lp151
g21
(g22
(dp152
g24
g25
(g26
(I0
tp153
g28
tp154
Rp155
(I1
(I6
tp156
g35
I00
(lp157
g39
ag40
ag41
ag42
ag43
ag44
atp158
bsg15
Nstp159
Rp160
a(dp161
g71
(dp162
g73
g134
sg74
(lp163
(dp164
g77
g78
(I0
I6
I1
tp165
Rp166
sg81
g147
sasstp167
bsg83
g84
sg15
Nsbssg85
(dp168
F0.0
g7
(g8
g9
Ntp169
Rp170
(dp171
g13
g14
sg16
g7
(g17
g9
Ntp172
Rp173
((lp174
g21
(g22
(dp175
g24
g25
(g26
(I0
tp176
g28
tp177
Rp178
(I1
(I6
tp179
g35
I00
(lp180
g39
ag40
ag41
ag42
ag43
ag44
atp181
bsg15
Nstp182
Rp183
a(lp184
g25
(g26
(I0
tp185
g28
tp186
Rp187
(I1
(I6
tp188
g55
I00
S'\xcf\xda\x9b\x1cF\xea1@*\x057\xfd\x8e\x80 @\xdc\x02\xf5[,\x013@}\\y\xa5\x03g3@4I\x7f2"@2@\x8d\xe6=o\xe6\x0b2@'
p189
tp190
ba(lp191
g21
(g22
(dp192
g24
g25
(g26
(I0
tp193
g28
tp194
Rp195
(I1
(I6
tp196
g35
I00
(lp197
g39
ag40
ag41
ag42
ag43
ag44
atp198
bsg15
Nstp199
Rp200
a(dp201
g71
(dp202
g73
g174
sg74
(lp203
(dp204
g77
g78
(I0
I6
I1
tp205
Rp206
sg81
g187
sasstp207
bsg83
g84
sg15
Nsbssssg126
(dp208
g2
(dp209
g5
(dp210
F0.0
g7
(g8
g9
Ntp211
Rp212
(dp213
g13
g14
sg16
g7
(g17
g9
Ntp214
Rp215
((lp216
g21
(g22
(dp217
g24
g25
(g26
(I0
tp218
g28
tp219
Rp220
(I1
(I6
tp221
g35
I00
(lp222
g39
ag40
ag41
ag42
ag43
ag44
atp223
bsg15
Nstp224
Rp225
a(lp226
g25
(g26
(I0
tp227
g28
tp228
Rp229
(I1
(I6
tp230
g55
I00
S':-\xc4\x1a{O\x01@4\xeb\x19\x06t\x91#@Bq\xc3\xfeU\x125@\xcf0\xbf\xc4V\xb4\x05@[T\n\xaf\xe4\xd3\x07@\x93\x8a\x01\xd6\x9b\x00\xf4?'
p231
tp232
ba(lp233
g21
(g22
(dp234
g24
g25
(g26
(I0
tp235
g28
tp236
Rp237
(I1
(I6
tp238
g35
I00
(lp239
g39
ag40
ag41
ag42
ag43
ag44
atp240
bsg15
Nstp241
Rp242
a(dp243
g71
(dp244
g73
g216
sg74
(lp245
(dp246
g77
g78
(I0
I6
I1
tp247
Rp248
sg81
g229
sasstp249
bsg83
g84
sg15
Nsbssg85
(dp250
F0.0
g7
(g8
g9
Ntp251
Rp252
(dp253
g13
g14
sg16
g7
(g17
g9
Ntp254
Rp255
((lp256
g21
(g22
(dp257
g24
g25
(g26
(I0
tp258
g28
tp259
Rp260
(I1
(I6
tp261
g35
I00
(lp262
g39
ag40
ag41
ag42
ag43
ag44
atp263
bsg15
Nstp264
Rp265
a(lp266
g25
(g26
(I0
tp267
g28
tp268
Rp269
(I1
(I6
tp270
g55
I00
S'\xd4\xa2/\xfa\x0e\t0@\x1a\xd1\xc8\x1b\x85\xbf\x1f@v\xef\x8e9[\xee2@\xf9\xcc\x81\x8c\x93\x191@\n\xe87.d\x9a.@5\x97\x86\xc0J\xa2/@'
p271
tp272
ba(lp273
g21
(g22
(dp274
g24
g25
(g26
(I0
tp275
g28
tp276
Rp277
(I1
(I6
tp278
g35
I00
(lp279
g39
ag40
ag41
ag42
ag43
ag44
atp280
bsg15
Nstp281
Rp282
a(dp283
g71
(dp284
g73
g256
sg74
(lp285
(dp286
g77
g78
(I0
I6
I1
tp287
Rp288
sg81
g269
sasstp289
bsg83
g84
sg15
Nsbsssg126
(dp290
g5
(dp291
F0.0
g7
(g8
g9
Ntp292
Rp293
(dp294
g13
g14
sg16
g7
(g17
g9
Ntp295
Rp296
((lp297
g21
(g22
(dp298
g24
g25
(g26
(I0
tp299
g28
tp300
Rp301
(I1
(I6
tp302
g35
I00
(lp303
g39
ag40
ag41
ag42
ag43
ag44
atp304
bsg15
Nstp305
Rp306
a(lp307
g25
(g26
(I0
tp308
g28
tp309
Rp310
(I1
(I6
tp311
g55
I00
S':-\xc4\x1a{O\x01@4\xeb\x19\x06t\x91#@Bq\xc3\xfeU\x125@\xcf0\xbf\xc4V\xb4\x05@[T\n\xaf\xe4\xd3\x07@\x93\x8a\x01\xd6\x9b\x00\xf4?'
p312
tp313
ba(lp314
g21
(g22
(dp315
g24
g25
(g26
(I0
tp316
g28
tp317
Rp318
(I1
(I6
tp319
g35
I00
(lp320
g39
ag40
ag41
ag42
ag43
ag44
atp321
bsg15
Nstp322
Rp323
a(dp324
g71
(dp325
g73
g297
sg74
(lp326
(dp327
g77
g78
(I0
I6
I1
tp328
Rp329
sg81
g310
sasstp330
bsg83
g84
sg15
Nsbssg85
(dp331
F0.0
g7
(g8
g9
Ntp332
Rp333
(dp334
g13
g14
sg16
g7
(g17
g9
Ntp335
Rp336
((lp337
g21
(g22
(dp338
g24
g25
(g26
(I0
tp339
g28
tp340
Rp341
(I1
(I6
tp342
g35
I00
(lp343
g39
ag40
ag41
ag42
ag43
ag44
atp344
bsg15
Nstp345
Rp346
a(lp347
g25
(g26
(I0
tp348
g28
tp349
Rp350
(I1
(I6
tp351
g55
I00
S'\xd4\xa2/\xfa\x0e\t0@\x1a\xd1\xc8\x1b\x85\xbf\x1f@v\xef\x8e9[\xee2@\xf9\xcc\x81\x8c\x93\x191@\n\xe87.d\x9a.@5\x97\x86\xc0J\xa2/@'
p352
tp353
ba(lp354
g21
(g22
(dp355
g24
g25
(g26
(I0
tp356
g28
tp357
Rp358
(I1
(I6
tp359
g35
I00
(lp360
g39
ag40
ag41
ag42
ag43
ag44
atp361
bsg15
Nstp362
Rp363
a(dp364
g71
(dp365
g73
g337
sg74
(lp366
(dp367
g77
g78
(I0
I6
I1
tp368
Rp369
sg81
g350
sasstp370
bsg83
g84
sg15
NsbsssssI4
(dp371
g2
(dp372
g2
(dp373
g5
(dp374
F0.0
g7
(g8
g9
Ntp375
Rp376
(dp377
g13
g14
sg16
g7
(g17
g9
Ntp378
Rp379
((lp380
g21
(g22
(dp381
g24
g25
(g26
(I0
tp382
g28
tp383
Rp384
(I1
(I6
tp385
g35
I00
(lp386
g39
ag40
ag41
ag42
ag43
ag44
atp387
bsg15
Nstp388
Rp389
a(lp390
g25
(g26
(I0
tp391
g28
tp392
Rp393
(I1
(I6
tp394
g55
I00
S"\xf6}h\x1d\xdd*\x00@e\x9c\x1b\x0c\tw'@\xb6\xaf\x14xU\x055@\x87\xf3\x89\x1bI:\x04@7\xb3Z r1\x06@\xe9l/\xdd9\x83\xf0?"
p395
tp396
ba(lp397
g21
(g22
(dp398
g24
g25
(g26
(I0
tp399
g28
tp400
Rp401
(I1
(I6
tp402
g35
I00
(lp403
g39
ag40
ag41
ag42
ag43
ag44
atp404
bsg15
Nstp405
Rp406
a(dp407
g71
(dp408
g73
g380
sg74
(lp409
(dp410
g77
g78
(I0
I6
I1
tp411
Rp412
sg81
g393
sasstp413
bsg83
g84
sg15
Nsbssg85
(dp414
F0.0
g7
(g8
g9
Ntp415
Rp416
(dp417
g13
g14
sg16
g7
(g17
g9
Ntp418
Rp419
((lp420
g21
(g22
(dp421
g24
g25
(g26
(I0
tp422
g28
tp423
Rp424
(I1
(I6
tp425
g35
I00
(lp426
g39
ag40
ag41
ag42
ag43
ag44
atp427
bsg15
Nstp428
Rp429
a(lp430
g25
(g26
(I0
tp431
g28
tp432
Rp433
(I1
(I6
tp434
g55
I00
S'\xca7\x8a_\xb5-"@.9\xae\xf3\x8b^ @pP \x83\x1c;6@_\xdd\xd4\xe4L\n!@\xeciB6\xecE\x19@\x04\xd1\x15\x8d\xea]!@'
p435
tp436
ba(lp437
g21
(g22
(dp438
g24
g25
(g26
(I0
tp439
g28
tp440
Rp441
(I1
(I6
tp442
g35
I00
(lp443
g39
ag40
ag41
ag42
ag43
ag44
atp444
bsg15
Nstp445
Rp446
a(dp447
g71
(dp448
g73
g420
sg74
(lp449
(dp450
g77
g78
(I0
I6
I1
tp451
Rp452
sg81
g433
sasstp453
bsg83
g84
sg15
Nsbsssg126
(dp454
g5
(dp455
F0.0
g7
(g8
g9
Ntp456
Rp457
(dp458
g13
g14
sg16
g7
(g17
g9
Ntp459
Rp460
((lp461
g21
(g22
(dp462
g24
g25
(g26
(I0
tp463
g28
tp464
Rp465
(I1
(I6
tp466
g35
I00
(lp467
g39
ag40
ag41
ag42
ag43
ag44
atp468
bsg15
Nstp469
Rp470
a(lp471
g25
(g26
(I0
tp472
g28
tp473
Rp474
(I1
(I6
tp475
g55
I00
S"\xf6}h\x1d\xdd*\x00@e\x9c\x1b\x0c\tw'@\xb6\xaf\x14xU\x055@\x87\xf3\x89\x1bI:\x04@7\xb3Z r1\x06@\xe9l/\xdd9\x83\xf0?"
p476
tp477
ba(lp478
g21
(g22
(dp479
g24
g25
(g26
(I0
tp480
g28
tp481
Rp482
(I1
(I6
tp483
g35
I00
(lp484
g39
ag40
ag41
ag42
ag43
ag44
atp485
bsg15
Nstp486
Rp487
a(dp488
g71
(dp489
g73
g461
sg74
(lp490
(dp491
g77
g78
(I0
I6
I1
tp492
Rp493
sg81
g474
sasstp494
bsg83
g84
sg15
Nsbssg85
(dp495
F0.0
g7
(g8
g9
Ntp496
Rp497
(dp498
g13
g14
sg16
g7
(g17
g9
Ntp499
Rp500
((lp501
g21
(g22
(dp502
g24
g25
(g26
(I0
tp503
g28
tp504
Rp505
(I1
(I6
tp506
g35
I00
(lp507
g39
ag40
ag41
ag42
ag43
ag44
atp508
bsg15
Nstp509
Rp510
a(lp511
g25
(g26
(I0
tp512
g28
tp513
Rp514
(I1
(I6
tp515
g55
I00
S'\xca7\x8a_\xb5-"@.9\xae\xf3\x8b^ @pP \x83\x1c;6@_\xdd\xd4\xe4L\n!@\xeciB6\xecE\x19@\x04\xd1\x15\x8d\xea]!@'
p516
tp517
ba(lp518
g21
(g22
(dp519
g24
g25
(g26
(I0
tp520
g28
tp521
Rp522
(I1
(I6
tp523
g35
I00
(lp524
g39
ag40
ag41
ag42
ag43
ag44
atp525
bsg15
Nstp526
Rp527
a(dp528
g71
(dp529
g73
g501
sg74
(lp530
(dp531
g77
g78
(I0
I6
I1
tp532
Rp533
sg81
g514
sasstp534
bsg83
g84
sg15
Nsbssssg126
(dp535
g2
(dp536
g5
(dp537
F0.0
g7
(g8
g9
Ntp538
Rp539
(dp540
g13
g14
sg16
g7
(g17
g9
Ntp541
Rp542
((lp543
g21
(g22
(dp544
g24
g25
(g26
(I0
tp545
g28
tp546
Rp547
(I1
(I6
tp548
g35
I00
(lp549
g39
ag40
ag41
ag42
ag43
ag44
atp550
bsg15
Nstp551
Rp552
a(lp553
g25
(g26
(I0
tp554
g28
tp555
Rp556
(I1
(I6
tp557
g55
I00
S'\x15B\x88}\\~\xfd?\xb8bN\xb2\xbc\x80 @\xb7&DJ\xcf\x979@y\x0e,\xe8{\xb4\x00@\n\xb5g\xb0\x90\x9c\x04@\x03\x9e9*\x8e\xa0\xeb?'
p558
tp559
ba(lp560
g21
(g22
(dp561
g24
g25
(g26
(I0
tp562
g28
tp563
Rp564
(I1
(I6
tp565
g35
I00
(lp566
g39
ag40
ag41
ag42
ag43
ag44
atp567
bsg15
Nstp568
Rp569
a(dp570
g71
(dp571
g73
g543
sg74
(lp572
(dp573
g77
g78
(I0
I6
I1
tp574
Rp575
sg81
g556
sasstp576
bsg83
g84
sg15
Nsbssg85
(dp577
F0.0
g7
(g8
g9
Ntp578
Rp579
(dp580
g13
g14
sg16
g7
(g17
g9
Ntp581
Rp582
((lp583
g21
(g22
(dp584
g24
g25
(g26
(I0
tp585
g28
tp586
Rp587
(I1
(I6
tp588
g35
I00
(lp589
g39
ag40
ag41
ag42
ag43
ag44
atp590
bsg15
Nstp591
Rp592
a(lp593
g25
(g26
(I0
tp594
g28
tp595
Rp596
(I1
(I6
tp597
g55
I00
S'\x07\xad\x1d\x9f\xff\xe7 @\xbe\x97\xc1\xc2,\xb1 @\xc9J<\xb1\xba\x946@C\x91SS$\x18 @|\xafO\x1b\xe9\x9e\x16@\x12\xcfyv\xf2: @'
p598
tp599
ba(lp600
g21
(g22
(dp601
g24
g25
(g26
(I0
tp602
g28
tp603
Rp604
(I1
(I6
tp605
g35
I00
(lp606
g39
ag40
ag41
ag42
ag43
ag44
atp607
bsg15
Nstp608
Rp609
a(dp610
g71
(dp611
g73
g583
sg74
(lp612
(dp613
g77
g78
(I0
I6
I1
tp614
Rp615
sg81
g596
sasstp616
bsg83
g84
sg15
Nsbsssg126
(dp617
g5
(dp618
F0.0
g7
(g8
g9
Ntp619
Rp620
(dp621
g13
g14
sg16
g7
(g17
g9
Ntp622
Rp623
((lp624
g21
(g22
(dp625
g24
g25
(g26
(I0
tp626
g28
tp627
Rp628
(I1
(I6
tp629
g35
I00
(lp630
g39
ag40
ag41
ag42
ag43
ag44
atp631
bsg15
Nstp632
Rp633
a(lp634
g25
(g26
(I0
tp635
g28
tp636
Rp637
(I1
(I6
tp638
g55
I00
S'\x15B\x88}\\~\xfd?\xb8bN\xb2\xbc\x80 @\xb7&DJ\xcf\x979@y\x0e,\xe8{\xb4\x00@\n\xb5g\xb0\x90\x9c\x04@\x03\x9e9*\x8e\xa0\xeb?'
p639
tp640
ba(lp641
g21
(g22
(dp642
g24
g25
(g26
(I0
tp643
g28
tp644
Rp645
(I1
(I6
tp646
g35
I00
(lp647
g39
ag40
ag41
ag42
ag43
ag44
atp648
bsg15
Nstp649
Rp650
a(dp651
g71
(dp652
g73
g624
sg74
(lp653
(dp654
g77
g78
(I0
I6
I1
tp655
Rp656
sg81
g637
sasstp657
bsg83
g84
sg15
Nsbssg85
(dp658
F0.0
g7
(g8
g9
Ntp659
Rp660
(dp661
g13
g14
sg16
g7
(g17
g9
Ntp662
Rp663
((lp664
g21
(g22
(dp665
g24
g25
(g26
(I0
tp666
g28
tp667
Rp668
(I1
(I6
tp669
g35
I00
(lp670
g39
ag40
ag41
ag42
ag43
ag44
atp671
bsg15
Nstp672
Rp673
a(lp674
g25
(g26
(I0
tp675
g28
tp676
Rp677
(I1
(I6
tp678
g55
I00
S'\x07\xad\x1d\x9f\xff\xe7 @\xbe\x97\xc1\xc2,\xb1 @\xc9J<\xb1\xba\x946@C\x91SS$\x18 @|\xafO\x1b\xe9\x9e\x16@\x12\xcfyv\xf2: @'
p679
tp680
ba(lp681
g21
(g22
(dp682
g24
g25
(g26
(I0
tp683
g28
tp684
Rp685
(I1
(I6
tp686
g35
I00
(lp687
g39
ag40
ag41
ag42
ag43
ag44
atp688
bsg15
Nstp689
Rp690
a(dp691
g71
(dp692
g73
g664
sg74
(lp693
(dp694
g77
g78
(I0
I6
I1
tp695
Rp696
sg81
g677
sasstp697
bsg83
g84
sg15
Nsbsssss.