(dp0
I2
(dp1
S'False'
p2
(dp3
g2
(dp4
S'transfer'
p5
(dp6
F0.0
ccopy_reg
_reconstructor
p7
(cpandas.core.series
Series
p8
c__builtin__
object
p9
Ntp10
Rp11
(dp12
S'_metadata'
p13
(lp14
S'name'
p15
asS'_data'
p16
g7
(cpandas.core.internals
SingleBlockManager
p17
g9
Ntp18
Rp19
((lp20
cpandas.core.indexes.base
_new_Index
p21
(cpandas.core.indexes.base
Index
p22
(dp23
S'data'
p24
cnumpy.core.multiarray
_reconstruct
p25
(cnumpy
ndarray
p26
(I0
tp27
S'b'
p28
tp29
Rp30
(I1
(I6
tp31
cnumpy
dtype
p32
(S'O8'
p33
I0
I1
tp34
Rp35
(I3
S'|'
p36
NNNI-1
I-1
I63
tp37
bI00
(lp38
S'dw'
p39
aS'fridge'
p40
aS'hvac'
p41
aS'mw'
p42
aS'oven'
p43
aS'wm'
p44
atp45
bsg15
Nstp46
Rp47
a(lp48
g25
(g26
(I0
tp49
g28
tp50
Rp51
(I1
(I6
tp52
g32
(S'f8'
p53
I0
I1
tp54
Rp55
(I3
S'<'
p56
NNNI-1
I-1
I0
tp57
bI00
S'\xadw\xc4C%\x8a\x02@\xc1U\xf6\x94Rq&@\x9d\x01B\xaexO4@\x1f\x1e,\x94<\xca\x03@\x90\xe0\xea\xa1@\xf9\x08@\x07\xef\x8ba\x1f\x9c\xf3?'
p58
tp59
ba(lp60
g21
(g22
(dp61
g24
g25
(g26
(I0
tp62
g28
tp63
Rp64
(I1
(I6
tp65
g35
I00
(lp66
g39
ag40
ag41
ag42
ag43
ag44
atp67
bsg15
Nstp68
Rp69
a(dp70
S'0.14.1'
p71
(dp72
S'axes'
p73
g20
sS'blocks'
p74
(lp75
(dp76
S'mgr_locs'
p77
c__builtin__
slice
p78
(I0
I6
I1
tp79
Rp80
sS'values'
p81
g51
sasstp82
bsS'_typ'
p83
S'series'
p84
sg15
NsbsF6.0
g7
(g8
g9
Ntp85
Rp86
(dp87
g13
g14
sg16
g7
(g17
g9
Ntp88
Rp89
((lp90
g21
(g22
(dp91
g24
g25
(g26
(I0
tp92
g28
tp93
Rp94
(I1
(I6
tp95
g35
I00
(lp96
g39
ag40
ag41
ag42
ag43
ag44
atp97
bsg15
Nstp98
Rp99
a(lp100
g25
(g26
(I0
tp101
g28
tp102
Rp103
(I1
(I6
tp104
g55
I00
S"\x88\xea4\xedw\x11\x02@\xcc\xdc\xa0\x80\x0eC'@\xa6\x87M\x0f\xf9\xa84@:\x83U\xd5N}\x03@\xc4\xbdp\xd4G\xae\x07@.A\xafC\x8fn\xf3?"
p105
tp106
ba(lp107
g21
(g22
(dp108
g24
g25
(g26
(I0
tp109
g28
tp110
Rp111
(I1
(I6
tp112
g35
I00
(lp113
g39
ag40
ag41
ag42
ag43
ag44
atp114
bsg15
Nstp115
Rp116
a(dp117
g71
(dp118
g73
g90
sg74
(lp119
(dp120
g77
g78
(I0
I6
I1
tp121
Rp122
sg81
g103
sasstp123
bsg83
g84
sg15
NsbssS'normal'
p124
(dp125
F0.0
g7
(g8
g9
Ntp126
Rp127
(dp128
g13
g14
sg16
g7
(g17
g9
Ntp129
Rp130
((lp131
g21
(g22
(dp132
g24
g25
(g26
(I0
tp133
g28
tp134
Rp135
(I1
(I6
tp136
g35
I00
(lp137
g39
ag40
ag41
ag42
ag43
ag44
atp138
bsg15
Nstp139
Rp140
a(lp141
g25
(g26
(I0
tp142
g28
tp143
Rp144
(I1
(I6
tp145
g55
I00
S'*\xb6\xad7\x95S4@\x02\xf2\xd5\x1b\xbe.\x1d@\xe7\x1f\xd7f\xd2\xde3@\x01&^\x88\xc9\xef4@\x97\x8fU\xe0{)1@\xed\xd4!\xd3\xed\xe93@'
p146
tp147
ba(lp148
g21
(g22
(dp149
g24
g25
(g26
(I0
tp150
g28
tp151
Rp152
(I1
(I6
tp153
g35
I00
(lp154
g39
ag40
ag41
ag42
ag43
ag44
atp155
bsg15
Nstp156
Rp157
a(dp158
g71
(dp159
g73
g131
sg74
(lp160
(dp161
g77
g78
(I0
I6
I1
tp162
Rp163
sg81
g144
sasstp164
bsg83
g84
sg15
NsbsF6.0
g7
(g8
g9
Ntp165
Rp166
(dp167
g13
g14
sg16
g7
(g17
g9
Ntp168
Rp169
((lp170
g21
(g22
(dp171
g24
g25
(g26
(I0
tp172
g28
tp173
Rp174
(I1
(I6
tp175
g35
I00
(lp176
g39
ag40
ag41
ag42
ag43
ag44
atp177
bsg15
Nstp178
Rp179
a(lp180
g25
(g26
(I0
tp181
g28
tp182
Rp183
(I1
(I6
tp184
g55
I00
S'\x8b#\xc2Zlh\x07@@\x82J\xebF\xb2"@\xeeO\xc4\x1c\x87:8@Jl\xbb\x9b\xc8U\x06@\x03\xa47\xabK\xe5\x19@\xd8\x91e\x96\xe9V"@'
p185
tp186
ba(lp187
g21
(g22
(dp188
g24
g25
(g26
(I0
tp189
g28
tp190
Rp191
(I1
(I6
tp192
g35
I00
(lp193
g39
ag40
ag41
ag42
ag43
ag44
atp194
bsg15
Nstp195
Rp196
a(dp197
g71
(dp198
g73
g170
sg74
(lp199
(dp200
g77
g78
(I0
I6
I1
tp201
Rp202
sg81
g183
sasstp203
bsg83
g84
sg15
NsbsssS'True'
p204
(dp205
g5
(dp206
F0.0
g7
(g8
g9
Ntp207
Rp208
(dp209
g13
g14
sg16
g7
(g17
g9
Ntp210
Rp211
((lp212
g21
(g22
(dp213
g24
g25
(g26
(I0
tp214
g28
tp215
Rp216
(I1
(I6
tp217
g35
I00
(lp218
g39
ag40
ag41
ag42
ag43
ag44
atp219
bsg15
Nstp220
Rp221
a(lp222
g25
(g26
(I0
tp223
g28
tp224
Rp225
(I1
(I6
tp226
g55
I00
S'\xadw\xc4C%\x8a\x02@\xc1U\xf6\x94Rq&@\x9d\x01B\xaexO4@\x1f\x1e,\x94<\xca\x03@\x90\xe0\xea\xa1@\xf9\x08@\x07\xef\x8ba\x1f\x9c\xf3?'
p227
tp228
ba(lp229
g21
(g22
(dp230
g24
g25
(g26
(I0
tp231
g28
tp232
Rp233
(I1
(I6
tp234
g35
I00
(lp235
g39
ag40
ag41
ag42
ag43
ag44
atp236
bsg15
Nstp237
Rp238
a(dp239
g71
(dp240
g73
g212
sg74
(lp241
(dp242
g77
g78
(I0
I6
I1
tp243
Rp244
sg81
g225
sasstp245
bsg83
g84
sg15
NsbsF6.0
g7
(g8
g9
Ntp246
Rp247
(dp248
g13
g14
sg16
g7
(g17
g9
Ntp249
Rp250
((lp251
g21
(g22
(dp252
g24
g25
(g26
(I0
tp253
g28
tp254
Rp255
(I1
(I6
tp256
g35
I00
(lp257
g39
ag40
ag41
ag42
ag43
ag44
atp258
bsg15
Nstp259
Rp260
a(lp261
g25
(g26
(I0
tp262
g28
tp263
Rp264
(I1
(I6
tp265
g55
I00
S"\x88\xea4\xedw\x11\x02@\xcc\xdc\xa0\x80\x0eC'@\xa6\x87M\x0f\xf9\xa84@:\x83U\xd5N}\x03@\xc4\xbdp\xd4G\xae\x07@.A\xafC\x8fn\xf3?"
p266
tp267
ba(lp268
g21
(g22
(dp269
g24
g25
(g26
(I0
tp270
g28
tp271
Rp272
(I1
(I6
tp273
g35
I00
(lp274
g39
ag40
ag41
ag42
ag43
ag44
atp275
bsg15
Nstp276
Rp277
a(dp278
g71
(dp279
g73
g251
sg74
(lp280
(dp281
g77
g78
(I0
I6
I1
tp282
Rp283
sg81
g264
sasstp284
bsg83
g84
sg15
Nsbssg124
(dp285
F0.0
g7
(g8
g9
Ntp286
Rp287
(dp288
g13
g14
sg16
g7
(g17
g9
Ntp289
Rp290
((lp291
g21
(g22
(dp292
g24
g25
(g26
(I0
tp293
g28
tp294
Rp295
(I1
(I6
tp296
g35
I00
(lp297
g39
ag40
ag41
ag42
ag43
ag44
atp298
bsg15
Nstp299
Rp300
a(lp301
g25
(g26
(I0
tp302
g28
tp303
Rp304
(I1
(I6
tp305
g55
I00
S'*\xb6\xad7\x95S4@\x02\xf2\xd5\x1b\xbe.\x1d@\xe7\x1f\xd7f\xd2\xde3@\x01&^\x88\xc9\xef4@\x97\x8fU\xe0{)1@\xed\xd4!\xd3\xed\xe93@'
p306
tp307
ba(lp308
g21
(g22
(dp309
g24
g25
(g26
(I0
tp310
g28
tp311
Rp312
(I1
(I6
tp313
g35
I00
(lp314
g39
ag40
ag41
ag42
ag43
ag44
atp315
bsg15
Nstp316
Rp317
a(dp318
g71
(dp319
g73
g291
sg74
(lp320
(dp321
g77
g78
(I0
I6
I1
tp322
Rp323
sg81
g304
sasstp324
bsg83
g84
sg15
NsbsF6.0
g7
(g8
g9
Ntp325
Rp326
(dp327
g13
g14
sg16
g7
(g17
g9
Ntp328
Rp329
((lp330
g21
(g22
(dp331
g24
g25
(g26
(I0
tp332
g28
tp333
Rp334
(I1
(I6
tp335
g35
I00
(lp336
g39
ag40
ag41
ag42
ag43
ag44
atp337
bsg15
Nstp338
Rp339
a(lp340
g25
(g26
(I0
tp341
g28
tp342
Rp343
(I1
(I6
tp344
g55
I00
S'\x8b#\xc2Zlh\x07@@\x82J\xebF\xb2"@\xeeO\xc4\x1c\x87:8@Jl\xbb\x9b\xc8U\x06@\x03\xa47\xabK\xe5\x19@\xd8\x91e\x96\xe9V"@'
p345
tp346
ba(lp347
g21
(g22
(dp348
g24
g25
(g26
(I0
tp349
g28
tp350
Rp351
(I1
(I6
tp352
g35
I00
(lp353
g39
ag40
ag41
ag42
ag43
ag44
atp354
bsg15
Nstp355
Rp356
a(dp357
g71
(dp358
g73
g330
sg74
(lp359
(dp360
g77
g78
(I0
I6
I1
tp361
Rp362
sg81
g343
sasstp363
bsg83
g84
sg15
Nsbssssg204
(dp364
g2
(dp365
g5
(dp366
F0.0
g7
(g8
g9
Ntp367
Rp368
(dp369
g13
g14
sg16
g7
(g17
g9
Ntp370
Rp371
((lp372
g21
(g22
(dp373
g24
g25
(g26
(I0
tp374
g28
tp375
Rp376
(I1
(I6
tp377
g35
I00
(lp378
g39
ag40
ag41
ag42
ag43
ag44
atp379
bsg15
Nstp380
Rp381
a(lp382
g25
(g26
(I0
tp383
g28
tp384
Rp385
(I1
(I6
tp386
g55
I00
S'1\xbd\x0cSW\x9e\x00@GN\x93\xd5\xa1R"@\x16\xf1\xa3\x11\xafa8@\x10C<\xd0\x1bT\x05@\x01\x90\xe3\x88\x95\xf2\x06@\x86\xf8\xb8\xf8#\xfe\xf3?'
p387
tp388
ba(lp389
g21
(g22
(dp390
g24
g25
(g26
(I0
tp391
g28
tp392
Rp393
(I1
(I6
tp394
g35
I00
(lp395
g39
ag40
ag41
ag42
ag43
ag44
atp396
bsg15
Nstp397
Rp398
a(dp399
g71
(dp400
g73
g372
sg74
(lp401
(dp402
g77
g78
(I0
I6
I1
tp403
Rp404
sg81
g385
sasstp405
bsg83
g84
sg15
NsbsF6.0
g7
(g8
g9
Ntp406
Rp407
(dp408
g13
g14
sg16
g7
(g17
g9
Ntp409
Rp410
((lp411
g21
(g22
(dp412
g24
g25
(g26
(I0
tp413
g28
tp414
Rp415
(I1
(I6
tp416
g35
I00
(lp417
g39
ag40
ag41
ag42
ag43
ag44
atp418
bsg15
Nstp419
Rp420
a(lp421
g25
(g26
(I0
tp422
g28
tp423
Rp424
(I1
(I6
tp425
g55
I00
S'\x17\xfc\xcc\xe5\xd6`\x01@\xa36\x05\xb7GL$@\xc0>\xba\xc1\x06\xc49@\xb6\\\xca]\xea\x88\x05@\xad\xa9W`\xb9\xe3\x06@\xfe\xf5\xa1`U\xfe\xf3?'
p426
tp427
ba(lp428
g21
(g22
(dp429
g24
g25
(g26
(I0
tp430
g28
tp431
Rp432
(I1
(I6
tp433
g35
I00
(lp434
g39
ag40
ag41
ag42
ag43
ag44
atp435
bsg15
Nstp436
Rp437
a(dp438
g71
(dp439
g73
g411
sg74
(lp440
(dp441
g77
g78
(I0
I6
I1
tp442
Rp443
sg81
g424
sasstp444
bsg83
g84
sg15
Nsbssg124
(dp445
F0.0
g7
(g8
g9
Ntp446
Rp447
(dp448
g13
g14
sg16
g7
(g17
g9
Ntp449
Rp450
((lp451
g21
(g22
(dp452
g24
g25
(g26
(I0
tp453
g28
tp454
Rp455
(I1
(I6
tp456
g35
I00
(lp457
g39
ag40
ag41
ag42
ag43
ag44
atp458
bsg15
Nstp459
Rp460
a(lp461
g25
(g26
(I0
tp462
g28
tp463
Rp464
(I1
(I6
tp465
g55
I00
S'\xda|\x1f\xa9_11@\xaa\x11\xd8\xf2\xdfn\x1f@\xd7[\xfd`\xc1r4@\xf8l\xa5\x9a\x1a(2@\x0e\x91\xa2\xd9\xcf5-@\tYP\xe9\x13\x9f0@'
p466
tp467
ba(lp468
g21
(g22
(dp469
g24
g25
(g26
(I0
tp470
g28
tp471
Rp472
(I1
(I6
tp473
g35
I00
(lp474
g39
ag40
ag41
ag42
ag43
ag44
atp475
bsg15
Nstp476
Rp477
a(dp478
g71
(dp479
g73
g451
sg74
(lp480
(dp481
g77
g78
(I0
I6
I1
tp482
Rp483
sg81
g464
sasstp484
bsg83
g84
sg15
NsbsF6.0
g7
(g8
g9
Ntp485
Rp486
(dp487
g13
g14
sg16
g7
(g17
g9
Ntp488
Rp489
((lp490
g21
(g22
(dp491
g24
g25
(g26
(I0
tp492
g28
tp493
Rp494
(I1
(I6
tp495
g35
I00
(lp496
g39
ag40
ag41
ag42
ag43
ag44
atp497
bsg15
Nstp498
Rp499
a(lp500
g25
(g26
(I0
tp501
g28
tp502
Rp503
(I1
(I6
tp504
g55
I00
S'\xe2+\xb1Ks\x0c\x13@\x18pi\x80\xc2\x14#@J\tc\t\x15\xa16@jLW\x84\x16=\x0b@Ja{\xb0\x86C\x15@K8t\xd8d\xbf @'
p505
tp506
ba(lp507
g21
(g22
(dp508
g24
g25
(g26
(I0
tp509
g28
tp510
Rp511
(I1
(I6
tp512
g35
I00
(lp513
g39
ag40
ag41
ag42
ag43
ag44
atp514
bsg15
Nstp515
Rp516
a(dp517
g71
(dp518
g73
g490
sg74
(lp519
(dp520
g77
g78
(I0
I6
I1
tp521
Rp522
sg81
g503
sasstp523
bsg83
g84
sg15
Nsbsssg204
(dp524
g5
(dp525
F0.0
g7
(g8
g9
Ntp526
Rp527
(dp528
g13
g14
sg16
g7
(g17
g9
Ntp529
Rp530
((lp531
g21
(g22
(dp532
g24
g25
(g26
(I0
tp533
g28
tp534
Rp535
(I1
(I6
tp536
g35
I00
(lp537
g39
ag40
ag41
ag42
ag43
ag44
atp538
bsg15
Nstp539
Rp540
a(lp541
g25
(g26
(I0
tp542
g28
tp543
Rp544
(I1
(I6
tp545
g55
I00
S'1\xbd\x0cSW\x9e\x00@GN\x93\xd5\xa1R"@\x16\xf1\xa3\x11\xafa8@\x10C<\xd0\x1bT\x05@\x01\x90\xe3\x88\x95\xf2\x06@\x86\xf8\xb8\xf8#\xfe\xf3?'
p546
tp547
ba(lp548
g21
(g22
(dp549
g24
g25
(g26
(I0
tp550
g28
tp551
Rp552
(I1
(I6
tp553
g35
I00
(lp554
g39
ag40
ag41
ag42
ag43
ag44
atp555
bsg15
Nstp556
Rp557
a(dp558
g71
(dp559
g73
g531
sg74
(lp560
(dp561
g77
g78
(I0
I6
I1
tp562
Rp563
sg81
g544
sasstp564
bsg83
g84
sg15
NsbsF6.0
g7
(g8
g9
Ntp565
Rp566
(dp567
g13
g14
sg16
g7
(g17
g9
Ntp568
Rp569
((lp570
g21
(g22
(dp571
g24
g25
(g26
(I0
tp572
g28
tp573
Rp574
(I1
(I6
tp575
g35
I00
(lp576
g39
ag40
ag41
ag42
ag43
ag44
atp577
bsg15
Nstp578
Rp579
a(lp580
g25
(g26
(I0
tp581
g28
tp582
Rp583
(I1
(I6
tp584
g55
I00
S'\x17\xfc\xcc\xe5\xd6`\x01@\xa36\x05\xb7GL$@\xc0>\xba\xc1\x06\xc49@\xb6\\\xca]\xea\x88\x05@\xad\xa9W`\xb9\xe3\x06@\xfe\xf5\xa1`U\xfe\xf3?'
p585
tp586
ba(lp587
g21
(g22
(dp588
g24
g25
(g26
(I0
tp589
g28
tp590
Rp591
(I1
(I6
tp592
g35
I00
(lp593
g39
ag40
ag41
ag42
ag43
ag44
atp594
bsg15
Nstp595
Rp596
a(dp597
g71
(dp598
g73
g570
sg74
(lp599
(dp600
g77
g78
(I0
I6
I1
tp601
Rp602
sg81
g583
sasstp603
bsg83
g84
sg15
Nsbssg124
(dp604
F0.0
g7
(g8
g9
Ntp605
Rp606
(dp607
g13
g14
sg16
g7
(g17
g9
Ntp608
Rp609
((lp610
g21
(g22
(dp611
g24
g25
(g26
(I0
tp612
g28
tp613
Rp614
(I1
(I6
tp615
g35
I00
(lp616
g39
ag40
ag41
ag42
ag43
ag44
atp617
bsg15
Nstp618
Rp619
a(lp620
g25
(g26
(I0
tp621
g28
tp622
Rp623
(I1
(I6
tp624
g55
I00
S'\xda|\x1f\xa9_11@\xaa\x11\xd8\xf2\xdfn\x1f@\xd7[\xfd`\xc1r4@\xf8l\xa5\x9a\x1a(2@\x0e\x91\xa2\xd9\xcf5-@\tYP\xe9\x13\x9f0@'
p625
tp626
ba(lp627
g21
(g22
(dp628
g24
g25
(g26
(I0
tp629
g28
tp630
Rp631
(I1
(I6
tp632
g35
I00
(lp633
g39
ag40
ag41
ag42
ag43
ag44
atp634
bsg15
Nstp635
Rp636
a(dp637
g71
(dp638
g73
g610
sg74
(lp639
(dp640
g77
g78
(I0
I6
I1
tp641
Rp642
sg81
g623
sasstp643
bsg83
g84
sg15
NsbsF6.0
g7
(g8
g9
Ntp644
Rp645
(dp646
g13
g14
sg16
g7
(g17
g9
Ntp647
Rp648
((lp649
g21
(g22
(dp650
g24
g25
(g26
(I0
tp651
g28
tp652
Rp653
(I1
(I6
tp654
g35
I00
(lp655
g39
ag40
ag41
ag42
ag43
ag44
atp656
bsg15
Nstp657
Rp658
a(lp659
g25
(g26
(I0
tp660
g28
tp661
Rp662
(I1
(I6
tp663
g55
I00
S'\xe2+\xb1Ks\x0c\x13@\x18pi\x80\xc2\x14#@J\tc\t\x15\xa16@jLW\x84\x16=\x0b@Ja{\xb0\x86C\x15@K8t\xd8d\xbf @'
p664
tp665
ba(lp666
g21
(g22
(dp667
g24
g25
(g26
(I0
tp668
g28
tp669
Rp670
(I1
(I6
tp671
g35
I00
(lp672
g39
ag40
ag41
ag42
ag43
ag44
atp673
bsg15
Nstp674
Rp675
a(dp676
g71
(dp677
g73
g649
sg74
(lp678
(dp679
g77
g78
(I0
I6
I1
tp680
Rp681
sg81
g662
sasstp682
bsg83
g84
sg15
NsbsssssI4
(dp683
g2
(dp684
g2
(dp685
g5
(dp686
F0.0
g7
(g8
g9
Ntp687
Rp688
(dp689
g13
g14
sg16
g7
(g17
g9
Ntp690
Rp691
((lp692
g21
(g22
(dp693
g24
g25
(g26
(I0
tp694
g28
tp695
Rp696
(I1
(I6
tp697
g35
I00
(lp698
g39
ag40
ag41
ag42
ag43
ag44
atp699
bsg15
Nstp700
Rp701
a(lp702
g25
(g26
(I0
tp703
g28
tp704
Rp705
(I1
(I6
tp706
g55
I00
S"\xe5l\xc1y\x87G\xff?'\xbf\xf2\xb3\xff\x06'@\xc9@\x80q\xfe\x0f2@C\x92\xe7\x8f\xd3\x90\x03@\xb9\xe0j\xd6\x8bk\x05@X\x81\xa6\x90\x83&\xf0?"
p707
tp708
ba(lp709
g21
(g22
(dp710
g24
g25
(g26
(I0
tp711
g28
tp712
Rp713
(I1
(I6
tp714
g35
I00
(lp715
g39
ag40
ag41
ag42
ag43
ag44
atp716
bsg15
Nstp717
Rp718
a(dp719
g71
(dp720
g73
g692
sg74
(lp721
(dp722
g77
g78
(I0
I6
I1
tp723
Rp724
sg81
g705
sasstp725
bsg83
g84
sg15
NsbsF6.0
g7
(g8
g9
Ntp726
Rp727
(dp728
g13
g14
sg16
g7
(g17
g9
Ntp729
Rp730
((lp731
g21
(g22
(dp732
g24
g25
(g26
(I0
tp733
g28
tp734
Rp735
(I1
(I6
tp736
g35
I00
(lp737
g39
ag40
ag41
ag42
ag43
ag44
atp738
bsg15
Nstp739
Rp740
a(lp741
g25
(g26
(I0
tp742
g28
tp743
Rp744
(I1
(I6
tp745
g55
I00
S'}\xd5\xfc$\xc10\xff?&\x11\xecK d&@\x9d\xde\xc8\xa5\xa4\x151@\x02mo\xe0\x0e\x1c\x03@\xb9\xe7\x97\x8b\xf5\xc5\x04@\x8eCqm\t*\xef?'
p746
tp747
ba(lp748
g21
(g22
(dp749
g24
g25
(g26
(I0
tp750
g28
tp751
Rp752
(I1
(I6
tp753
g35
I00
(lp754
g39
ag40
ag41
ag42
ag43
ag44
atp755
bsg15
Nstp756
Rp757
a(dp758
g71
(dp759
g73
g731
sg74
(lp760
(dp761
g77
g78
(I0
I6
I1
tp762
Rp763
sg81
g744
sasstp764
bsg83
g84
sg15
Nsbssg124
(dp765
F0.0
g7
(g8
g9
Ntp766
Rp767
(dp768
g13
g14
sg16
g7
(g17
g9
Ntp769
Rp770
((lp771
g21
(g22
(dp772
g24
g25
(g26
(I0
tp773
g28
tp774
Rp775
(I1
(I6
tp776
g35
I00
(lp777
g39
ag40
ag41
ag42
ag43
ag44
atp778
bsg15
Nstp779
Rp780
a(lp781
g25
(g26
(I0
tp782
g28
tp783
Rp784
(I1
(I6
tp785
g55
I00
S'\xe9\xf5\x92\x92\x04$!@A\xc9\xe8\xf1N\x14"@7R\xeb\xab<\xcf5@\xa9`\x12\x00I\xca%@\x92\n\xc2\x0ce\xb2\x1d@W\x8e\x921\x95N\x13@'
p786
tp787
ba(lp788
g21
(g22
(dp789
g24
g25
(g26
(I0
tp790
g28
tp791
Rp792
(I1
(I6
tp793
g35
I00
(lp794
g39
ag40
ag41
ag42
ag43
ag44
atp795
bsg15
Nstp796
Rp797
a(dp798
g71
(dp799
g73
g771
sg74
(lp800
(dp801
g77
g78
(I0
I6
I1
tp802
Rp803
sg81
g784
sasstp804
bsg83
g84
sg15
NsbsF6.0
g7
(g8
g9
Ntp805
Rp806
(dp807
g13
g14
sg16
g7
(g17
g9
Ntp808
Rp809
((lp810
g21
(g22
(dp811
g24
g25
(g26
(I0
tp812
g28
tp813
Rp814
(I1
(I6
tp815
g35
I00
(lp816
g39
ag40
ag41
ag42
ag43
ag44
atp817
bsg15
Nstp818
Rp819
a(lp820
g25
(g26
(I0
tp821
g28
tp822
Rp823
(I1
(I6
tp824
g55
I00
S"'+\x8e\x81i\xaa\x04@%\x1e\x933t\xbd#@\xdeG\x06\xd6]l3@\x1aP\x1b\x90\xc3H\x03@\x08b\xd3\xbc>\xbc\t@~\xe3wq\xf4?\x0f@"
p825
tp826
ba(lp827
g21
(g22
(dp828
g24
g25
(g26
(I0
tp829
g28
tp830
Rp831
(I1
(I6
tp832
g35
I00
(lp833
g39
ag40
ag41
ag42
ag43
ag44
atp834
bsg15
Nstp835
Rp836
a(dp837
g71
(dp838
g73
g810
sg74
(lp839
(dp840
g77
g78
(I0
I6
I1
tp841
Rp842
sg81
g823
sasstp843
bsg83
g84
sg15
Nsbsssg204
(dp844
g5
(dp845
F0.0
g7
(g8
g9
Ntp846
Rp847
(dp848
g13
g14
sg16
g7
(g17
g9
Ntp849
Rp850
((lp851
g21
(g22
(dp852
g24
g25
(g26
(I0
tp853
g28
tp854
Rp855
(I1
(I6
tp856
g35
I00
(lp857
g39
ag40
ag41
ag42
ag43
ag44
atp858
bsg15
Nstp859
Rp860
a(lp861
g25
(g26
(I0
tp862
g28
tp863
Rp864
(I1
(I6
tp865
g55
I00
S"\xe5l\xc1y\x87G\xff?'\xbf\xf2\xb3\xff\x06'@\xc9@\x80q\xfe\x0f2@C\x92\xe7\x8f\xd3\x90\x03@\xb9\xe0j\xd6\x8bk\x05@X\x81\xa6\x90\x83&\xf0?"
p866
tp867
ba(lp868
g21
(g22
(dp869
g24
g25
(g26
(I0
tp870
g28
tp871
Rp872
(I1
(I6
tp873
g35
I00
(lp874
g39
ag40
ag41
ag42
ag43
ag44
atp875
bsg15
Nstp876
Rp877
a(dp878
g71
(dp879
g73
g851
sg74
(lp880
(dp881
g77
g78
(I0
I6
I1
tp882
Rp883
sg81
g864
sasstp884
bsg83
g84
sg15
NsbsF6.0
g7
(g8
g9
Ntp885
Rp886
(dp887
g13
g14
sg16
g7
(g17
g9
Ntp888
Rp889
((lp890
g21
(g22
(dp891
g24
g25
(g26
(I0
tp892
g28
tp893
Rp894
(I1
(I6
tp895
g35
I00
(lp896
g39
ag40
ag41
ag42
ag43
ag44
atp897
bsg15
Nstp898
Rp899
a(lp900
g25
(g26
(I0
tp901
g28
tp902
Rp903
(I1
(I6
tp904
g55
I00
S'}\xd5\xfc$\xc10\xff?&\x11\xecK d&@\x9d\xde\xc8\xa5\xa4\x151@\x02mo\xe0\x0e\x1c\x03@\xb9\xe7\x97\x8b\xf5\xc5\x04@\x8eCqm\t*\xef?'
p905
tp906
ba(lp907
g21
(g22
(dp908
g24
g25
(g26
(I0
tp909
g28
tp910
Rp911
(I1
(I6
tp912
g35
I00
(lp913
g39
ag40
ag41
ag42
ag43
ag44
atp914
bsg15
Nstp915
Rp916
a(dp917
g71
(dp918
g73
g890
sg74
(lp919
(dp920
g77
g78
(I0
I6
I1
tp921
Rp922
sg81
g903
sasstp923
bsg83
g84
sg15
Nsbssg124
(dp924
F0.0
g7
(g8
g9
Ntp925
Rp926
(dp927
g13
g14
sg16
g7
(g17
g9
Ntp928
Rp929
((lp930
g21
(g22
(dp931
g24
g25
(g26
(I0
tp932
g28
tp933
Rp934
(I1
(I6
tp935
g35
I00
(lp936
g39
ag40
ag41
ag42
ag43
ag44
atp937
bsg15
Nstp938
Rp939
a(lp940
g25
(g26
(I0
tp941
g28
tp942
Rp943
(I1
(I6
tp944
g55
I00
S'\xe9\xf5\x92\x92\x04$!@A\xc9\xe8\xf1N\x14"@7R\xeb\xab<\xcf5@\xa9`\x12\x00I\xca%@\x92\n\xc2\x0ce\xb2\x1d@W\x8e\x921\x95N\x13@'
p945
tp946
ba(lp947
g21
(g22
(dp948
g24
g25
(g26
(I0
tp949
g28
tp950
Rp951
(I1
(I6
tp952
g35
I00
(lp953
g39
ag40
ag41
ag42
ag43
ag44
atp954
bsg15
Nstp955
Rp956
a(dp957
g71
(dp958
g73
g930
sg74
(lp959
(dp960
g77
g78
(I0
I6
I1
tp961
Rp962
sg81
g943
sasstp963
bsg83
g84
sg15
NsbsF6.0
g7
(g8
g9
Ntp964
Rp965
(dp966
g13
g14
sg16
g7
(g17
g9
Ntp967
Rp968
((lp969
g21
(g22
(dp970
g24
g25
(g26
(I0
tp971
g28
tp972
Rp973
(I1
(I6
tp974
g35
I00
(lp975
g39
ag40
ag41
ag42
ag43
ag44
atp976
bsg15
Nstp977
Rp978
a(lp979
g25
(g26
(I0
tp980
g28
tp981
Rp982
(I1
(I6
tp983
g55
I00
S"'+\x8e\x81i\xaa\x04@%\x1e\x933t\xbd#@\xdeG\x06\xd6]l3@\x1aP\x1b\x90\xc3H\x03@\x08b\xd3\xbc>\xbc\t@~\xe3wq\xf4?\x0f@"
p984
tp985
ba(lp986
g21
(g22
(dp987
g24
g25
(g26
(I0
tp988
g28
tp989
Rp990
(I1
(I6
tp991
g35
I00
(lp992
g39
ag40
ag41
ag42
ag43
ag44
atp993
bsg15
Nstp994
Rp995
a(dp996
g71
(dp997
g73
g969
sg74
(lp998
(dp999
g77
g78
(I0
I6
I1
tp1000
Rp1001
sg81
g982
sasstp1002
bsg83
g84
sg15
Nsbssssg204
(dp1003
g2
(dp1004
g5
(dp1005
F0.0
g7
(g8
g9
Ntp1006
Rp1007
(dp1008
g13
g14
sg16
g7
(g17
g9
Ntp1009
Rp1010
((lp1011
g21
(g22
(dp1012
g24
g25
(g26
(I0
tp1013
g28
tp1014
Rp1015
(I1
(I6
tp1016
g35
I00
(lp1017
g39
ag40
ag41
ag42
ag43
ag44
atp1018
bsg15
Nstp1019
Rp1020
a(lp1021
g25
(g26
(I0
tp1022
g28
tp1023
Rp1024
(I1
(I6
tp1025
g55
I00
S'5\x043\x1f87\xfd?\x96\xe5\x86\xfd\x98\xef\x1f@2\xf9\xff\xdapK<@\x17\xf8\xee\x03t\xde\x00@\xf0\x87\x83*S\x89\x03@&z\xd5\xc2\x12\xbb\xeb?'
p1026
tp1027
ba(lp1028
g21
(g22
(dp1029
g24
g25
(g26
(I0
tp1030
g28
tp1031
Rp1032
(I1
(I6
tp1033
g35
I00
(lp1034
g39
ag40
ag41
ag42
ag43
ag44
atp1035
bsg15
Nstp1036
Rp1037
a(dp1038
g71
(dp1039
g73
g1011
sg74
(lp1040
(dp1041
g77
g78
(I0
I6
I1
tp1042
Rp1043
sg81
g1024
sasstp1044
bsg83
g84
sg15
NsbsF6.0
g7
(g8
g9
Ntp1045
Rp1046
(dp1047
g13
g14
sg16
g7
(g17
g9
Ntp1048
Rp1049
((lp1050
g21
(g22
(dp1051
g24
g25
(g26
(I0
tp1052
g28
tp1053
Rp1054
(I1
(I6
tp1055
g35
I00
(lp1056
g39
ag40
ag41
ag42
ag43
ag44
atp1057
bsg15
Nstp1058
Rp1059
a(lp1060
g25
(g26
(I0
tp1061
g28
tp1062
Rp1063
(I1
(I6
tp1064
g55
I00
S"\xc0\xb08N\xd7E\xff?\x83NA\x97\xeb\x1a'@\xbd\xa3h\xafH69@\x96\x00#\xd8\x15\xed\x01@(\xffwC_{\x08@\x0bw\x19aO0\xec?"
p1065
tp1066
ba(lp1067
g21
(g22
(dp1068
g24
g25
(g26
(I0
tp1069
g28
tp1070
Rp1071
(I1
(I6
tp1072
g35
I00
(lp1073
g39
ag40
ag41
ag42
ag43
ag44
atp1074
bsg15
Nstp1075
Rp1076
a(dp1077
g71
(dp1078
g73
g1050
sg74
(lp1079
(dp1080
g77
g78
(I0
I6
I1
tp1081
Rp1082
sg81
g1063
sasstp1083
bsg83
g84
sg15
Nsbssg124
(dp1084
F0.0
g7
(g8
g9
Ntp1085
Rp1086
(dp1087
g13
g14
sg16
g7
(g17
g9
Ntp1088
Rp1089
((lp1090
g21
(g22
(dp1091
g24
g25
(g26
(I0
tp1092
g28
tp1093
Rp1094
(I1
(I6
tp1095
g35
I00
(lp1096
g39
ag40
ag41
ag42
ag43
ag44
atp1097
bsg15
Nstp1098
Rp1099
a(lp1100
g25
(g26
(I0
tp1101
g28
tp1102
Rp1103
(I1
(I6
tp1104
g55
I00
S'X\x91\xe8bL\xb0 @WL\x7f\xaa\xeb\x99"@\x10(\xabP\x01k6@\x9dD$\xa7-\xec$@\x88\x13\xcdZ\xdd\xeb\x1b@J\xf7\xef\x98A\x86\x11@'
p1105
tp1106
ba(lp1107
g21
(g22
(dp1108
g24
g25
(g26
(I0
tp1109
g28
tp1110
Rp1111
(I1
(I6
tp1112
g35
I00
(lp1113
g39
ag40
ag41
ag42
ag43
ag44
atp1114
bsg15
Nstp1115
Rp1116
a(dp1117
g71
(dp1118
g73
g1090
sg74
(lp1119
(dp1120
g77
g78
(I0
I6
I1
tp1121
Rp1122
sg81
g1103
sasstp1123
bsg83
g84
sg15
NsbsF6.0
g7
(g8
g9
Ntp1124
Rp1125
(dp1126
g13
g14
sg16
g7
(g17
g9
Ntp1127
Rp1128
((lp1129
g21
(g22
(dp1130
g24
g25
(g26
(I0
tp1131
g28
tp1132
Rp1133
(I1
(I6
tp1134
g35
I00
(lp1135
g39
ag40
ag41
ag42
ag43
ag44
atp1136
bsg15
Nstp1137
Rp1138
a(lp1139
g25
(g26
(I0
tp1140
g28
tp1141
Rp1142
(I1
(I6
tp1143
g55
I00
S"\x0e\xbf\x19\xa1*O\x08@B\x8ai\x01\xdd.$@`j\xe6\x84\xf3\xef3@8\xa2|_0P\x0b@+\xe8$'\xd1G\r@\x93\xcd\xdf1\xcb\xbc\x0c@"
p1144
tp1145
ba(lp1146
g21
(g22
(dp1147
g24
g25
(g26
(I0
tp1148
g28
tp1149
Rp1150
(I1
(I6
tp1151
g35
I00
(lp1152
g39
ag40
ag41
ag42
ag43
ag44
atp1153
bsg15
Nstp1154
Rp1155
a(dp1156
g71
(dp1157
g73
g1129
sg74
(lp1158
(dp1159
g77
g78
(I0
I6
I1
tp1160
Rp1161
sg81
g1142
sasstp1162
bsg83
g84
sg15
Nsbsssg204
(dp1163
g5
(dp1164
F0.0
g7
(g8
g9
Ntp1165
Rp1166
(dp1167
g13
g14
sg16
g7
(g17
g9
Ntp1168
Rp1169
((lp1170
g21
(g22
(dp1171
g24
g25
(g26
(I0
tp1172
g28
tp1173
Rp1174
(I1
(I6
tp1175
g35
I00
(lp1176
g39
ag40
ag41
ag42
ag43
ag44
atp1177
bsg15
Nstp1178
Rp1179
a(lp1180
g25
(g26
(I0
tp1181
g28
tp1182
Rp1183
(I1
(I6
tp1184
g55
I00
S'5\x043\x1f87\xfd?\x96\xe5\x86\xfd\x98\xef\x1f@2\xf9\xff\xdapK<@\x17\xf8\xee\x03t\xde\x00@\xf0\x87\x83*S\x89\x03@&z\xd5\xc2\x12\xbb\xeb?'
p1185
tp1186
ba(lp1187
g21
(g22
(dp1188
g24
g25
(g26
(I0
tp1189
g28
tp1190
Rp1191
(I1
(I6
tp1192
g35
I00
(lp1193
g39
ag40
ag41
ag42
ag43
ag44
atp1194
bsg15
Nstp1195
Rp1196
a(dp1197
g71
(dp1198
g73
g1170
sg74
(lp1199
(dp1200
g77
g78
(I0
I6
I1
tp1201
Rp1202
sg81
g1183
sasstp1203
bsg83
g84
sg15
NsbsF6.0
g7
(g8
g9
Ntp1204
Rp1205
(dp1206
g13
g14
sg16
g7
(g17
g9
Ntp1207
Rp1208
((lp1209
g21
(g22
(dp1210
g24
g25
(g26
(I0
tp1211
g28
tp1212
Rp1213
(I1
(I6
tp1214
g35
I00
(lp1215
g39
ag40
ag41
ag42
ag43
ag44
atp1216
bsg15
Nstp1217
Rp1218
a(lp1219
g25
(g26
(I0
tp1220
g28
tp1221
Rp1222
(I1
(I6
tp1223
g55
I00
S"\xc0\xb08N\xd7E\xff?\x83NA\x97\xeb\x1a'@\xbd\xa3h\xafH69@\x96\x00#\xd8\x15\xed\x01@(\xffwC_{\x08@\x0bw\x19aO0\xec?"
p1224
tp1225
ba(lp1226
g21
(g22
(dp1227
g24
g25
(g26
(I0
tp1228
g28
tp1229
Rp1230
(I1
(I6
tp1231
g35
I00
(lp1232
g39
ag40
ag41
ag42
ag43
ag44
atp1233
bsg15
Nstp1234
Rp1235
a(dp1236
g71
(dp1237
g73
g1209
sg74
(lp1238
(dp1239
g77
g78
(I0
I6
I1
tp1240
Rp1241
sg81
g1222
sasstp1242
bsg83
g84
sg15
Nsbssg124
(dp1243
F0.0
g7
(g8
g9
Ntp1244
Rp1245
(dp1246
g13
g14
sg16
g7
(g17
g9
Ntp1247
Rp1248
((lp1249
g21
(g22
(dp1250
g24
g25
(g26
(I0
tp1251
g28
tp1252
Rp1253
(I1
(I6
tp1254
g35
I00
(lp1255
g39
ag40
ag41
ag42
ag43
ag44
atp1256
bsg15
Nstp1257
Rp1258
a(lp1259
g25
(g26
(I0
tp1260
g28
tp1261
Rp1262
(I1
(I6
tp1263
g55
I00
S'X\x91\xe8bL\xb0 @WL\x7f\xaa\xeb\x99"@\x10(\xabP\x01k6@\x9dD$\xa7-\xec$@\x88\x13\xcdZ\xdd\xeb\x1b@J\xf7\xef\x98A\x86\x11@'
p1264
tp1265
ba(lp1266
g21
(g22
(dp1267
g24
g25
(g26
(I0
tp1268
g28
tp1269
Rp1270
(I1
(I6
tp1271
g35
I00
(lp1272
g39
ag40
ag41
ag42
ag43
ag44
atp1273
bsg15
Nstp1274
Rp1275
a(dp1276
g71
(dp1277
g73
g1249
sg74
(lp1278
(dp1279
g77
g78
(I0
I6
I1
tp1280
Rp1281
sg81
g1262
sasstp1282
bsg83
g84
sg15
NsbsF6.0
g7
(g8
g9
Ntp1283
Rp1284
(dp1285
g13
g14
sg16
g7
(g17
g9
Ntp1286
Rp1287
((lp1288
g21
(g22
(dp1289
g24
g25
(g26
(I0
tp1290
g28
tp1291
Rp1292
(I1
(I6
tp1293
g35
I00
(lp1294
g39
ag40
ag41
ag42
ag43
ag44
atp1295
bsg15
Nstp1296
Rp1297
a(lp1298
g25
(g26
(I0
tp1299
g28
tp1300
Rp1301
(I1
(I6
tp1302
g55
I00
S"\x0e\xbf\x19\xa1*O\x08@B\x8ai\x01\xdd.$@`j\xe6\x84\xf3\xef3@8\xa2|_0P\x0b@+\xe8$'\xd1G\r@\x93\xcd\xdf1\xcb\xbc\x0c@"
p1303
tp1304
ba(lp1305
g21
(g22
(dp1306
g24
g25
(g26
(I0
tp1307
g28
tp1308
Rp1309
(I1
(I6
tp1310
g35
I00
(lp1311
g39
ag40
ag41
ag42
ag43
ag44
atp1312
bsg15
Nstp1313
Rp1314
a(dp1315
g71
(dp1316
g73
g1288
sg74
(lp1317
(dp1318
g77
g78
(I0
I6
I1
tp1319
Rp1320
sg81
g1301
sasstp1321
bsg83
g84
sg15
Nsbsssss.