(dp0
I2
(dp1
S'False'
p2
(dp3
g2
(dp4
S'transfer'
p5
(dp6
F0.0
(dp7
I0
(dp8
I0
(dp9
S'Learning Rate'
p10
I1
sS'Num season factors'
p11
I5
sS'Num home factors'
p12
I5
sS'Iterations'
p13
I900
sS'Lambda'
p14
I0
ssI1
(dp15
g10
I1
sg11
I5
sg12
I5
sg13
I900
sg14
I0
ssI2
(dp16
g10
I1
sg11
I5
sg12
I5
sg13
I900
sg14
I0
ssI3
(dp17
g10
I1
sg11
I5
sg12
I5
sg13
I900
sg14
I0
ssI4
(dp18
g10
I1
sg11
I5
sg12
I5
sg13
I900
sg14
I0
ssI5
(dp19
g10
I1
sg11
I5
sg12
I5
sg13
I900
sg14
I0
ssI6
(dp20
g10
I1
sg11
I5
sg12
I5
sg13
I900
sg14
I0
ssI7
(dp21
g10
I1
sg11
I5
sg12
I5
sg13
I900
sg14
I0
ssI8
(dp22
g10
I1
sg11
I5
sg12
I5
sg13
I900
sg14
I0
ssI9
(dp23
g10
I1
sg11
I5
sg12
I5
sg13
I900
sg14
I0
sssI1
(dp24
I0
(dp25
S'Learning Rate'
p26
I1
sS'Num season factors'
p27
I5
sS'Num home factors'
p28
I5
sS'Iterations'
p29
I900
sS'Lambda'
p30
I0
ssI1
(dp31
g26
I1
sg27
I5
sg28
I5
sg29
I900
sg30
I0
ssI2
(dp32
g26
I1
sg27
I5
sg28
I5
sg29
I900
sg30
I0
ssI3
(dp33
g26
I1
sg27
I5
sg28
I5
sg29
I900
sg30
I0
ssI4
(dp34
g26
I1
sg27
I5
sg28
I5
sg29
I900
sg30
I0
ssI5
(dp35
g26
I1
sg27
I5
sg28
I5
sg29
I900
sg30
I0
ssI6
(dp36
g26
I1
sg27
I5
sg28
I5
sg29
I900
sg30
I0
ssI7
(dp37
g26
I1
sg27
I5
sg28
I5
sg29
I900
sg30
I0
ssI8
(dp38
g26
I1
sg27
I5
sg28
I5
sg29
I900
sg30
I0
ssI9
(dp39
g26
I1
sg27
I5
sg28
I5
sg29
I900
sg30
I0
sssI2
(dp40
I0
(dp41
S'Learning Rate'
p42
I1
sS'Num season factors'
p43
I5
sS'Num home factors'
p44
I5
sS'Iterations'
p45
I900
sS'Lambda'
p46
I0
ssI1
(dp47
g42
I1
sg43
I5
sg44
I5
sg45
I900
sg46
I0
ssI2
(dp48
g42
I1
sg43
I5
sg44
I5
sg45
I900
sg46
I0
ssI3
(dp49
g42
I1
sg43
I5
sg44
I5
sg45
I900
sg46
I0
ssI4
(dp50
g42
I1
sg43
I5
sg44
I5
sg45
I900
sg46
I0
ssI5
(dp51
g42
I1
sg43
I5
sg44
I5
sg45
I900
sg46
I0
ssI6
(dp52
g42
I1
sg43
I5
sg44
I5
sg45
I900
sg46
I0
ssI7
(dp53
g42
I1
sg43
I5
sg44
I5
sg45
I900
sg46
I0
ssI8
(dp54
g42
I1
sg43
I5
sg44
I5
sg45
I900
sg46
I0
ssI9
(dp55
g42
I1
sg43
I5
sg44
I5
sg45
I900
sg46
I0
sssI3
(dp56
I0
(dp57
S'Learning Rate'
p58
I1
sS'Num season factors'
p59
I5
sS'Num home factors'
p60
I5
sS'Iterations'
p61
I900
sS'Lambda'
p62
I0
ssI1
(dp63
g58
I1
sg59
I5
sg60
I5
sg61
I900
sg62
I0
ssI2
(dp64
g58
I1
sg59
I5
sg60
I5
sg61
I900
sg62
I0
ssI3
(dp65
g58
I1
sg59
I5
sg60
I5
sg61
I900
sg62
I0
ssI4
(dp66
g58
I1
sg59
I5
sg60
I5
sg61
I900
sg62
I0
ssI5
(dp67
g58
I1
sg59
I5
sg60
I5
sg61
I900
sg62
I0
ssI6
(dp68
g58
I1
sg59
I5
sg60
I5
sg61
I900
sg62
I0
ssI7
(dp69
g58
I1
sg59
I5
sg60
I5
sg61
I900
sg62
I0
ssI8
(dp70
g58
I1
sg59
I5
sg60
I5
sg61
I900
sg62
I0
ssI9
(dp71
g58
I1
sg59
I5
sg60
I5
sg61
I900
sg62
I0
sssI4
(dp72
I0
(dp73
S'Learning Rate'
p74
I1
sS'Num season factors'
p75
I5
sS'Num home factors'
p76
I5
sS'Iterations'
p77
I900
sS'Lambda'
p78
I0
ssI1
(dp79
g74
I1
sg75
I5
sg76
I5
sg77
I900
sg78
I0
ssI2
(dp80
g74
I1
sg75
I5
sg76
I5
sg77
I900
sg78
I0
ssI3
(dp81
g74
I1
sg75
I5
sg76
I5
sg77
I900
sg78
I0
ssI4
(dp82
g74
I1
sg75
I5
sg76
I5
sg77
I900
sg78
I0
ssI5
(dp83
g74
I1
sg75
I5
sg76
I5
sg77
I900
sg78
I0
ssI6
(dp84
g74
I1
sg75
I5
sg76
I5
sg77
I900
sg78
I0
ssI7
(dp85
g74
I1
sg75
I5
sg76
I5
sg77
I900
sg78
I0
ssI8
(dp86
g74
I1
sg75
I5
sg76
I5
sg77
I900
sg78
I0
ssI9
(dp87
g74
I1
sg75
I5
sg76
I5
sg77
I900
sg78
I0
sssI5
(dp88
I0
(dp89
S'Learning Rate'
p90
I1
sS'Num season factors'
p91
I5
sS'Num home factors'
p92
I5
sS'Iterations'
p93
I900
sS'Lambda'
p94
I0
ssI1
(dp95
g90
I1
sg91
I5
sg92
I5
sg93
I900
sg94
I0
ssI2
(dp96
g90
I1
sg91
I5
sg92
I5
sg93
I900
sg94
I0
ssI3
(dp97
g90
I1
sg91
I5
sg92
I5
sg93
I900
sg94
I0
ssI4
(dp98
g90
I1
sg91
I5
sg92
I5
sg93
I900
sg94
I0
ssI5
(dp99
g90
I1
sg91
I5
sg92
I5
sg93
I900
sg94
I0
ssI6
(dp100
g90
I1
sg91
I5
sg92
I5
sg93
I900
sg94
I0
ssI7
(dp101
g90
I1
sg91
I5
sg92
I5
sg93
I900
sg94
I0
ssI8
(dp102
g90
I1
sg91
I5
sg92
I5
sg93
I900
sg94
I0
ssI9
(dp103
g90
I1
sg91
I5
sg92
I5
sg93
I900
sg94
I0
sssI6
(dp104
I0
(dp105
S'Learning Rate'
p106
I1
sS'Num season factors'
p107
I5
sS'Num home factors'
p108
I5
sS'Iterations'
p109
I900
sS'Lambda'
p110
I0
ssI1
(dp111
g106
I1
sg107
I5
sg108
I5
sg109
I900
sg110
I0
ssI2
(dp112
g106
I1
sg107
I5
sg108
I5
sg109
I900
sg110
I0
ssI3
(dp113
g106
I1
sg107
I5
sg108
I5
sg109
I900
sg110
I0
ssI4
(dp114
g106
I1
sg107
I5
sg108
I5
sg109
I900
sg110
I0
ssI5
(dp115
g106
I1
sg107
I5
sg108
I5
sg109
I900
sg110
I0
ssI6
(dp116
g106
I1
sg107
I5
sg108
I5
sg109
I900
sg110
I0
ssI7
(dp117
g106
I1
sg107
I5
sg108
I5
sg109
I900
sg110
I0
ssI8
(dp118
g106
I1
sg107
I5
sg108
I5
sg109
I900
sg110
I0
ssI9
(dp119
g106
I1
sg107
I5
sg108
I5
sg109
I900
sg110
I0
sssI7
(dp120
I0
(dp121
S'Learning Rate'
p122
I1
sS'Num season factors'
p123
I5
sS'Num home factors'
p124
I5
sS'Iterations'
p125
I900
sS'Lambda'
p126
I0
ssI1
(dp127
g122
I1
sg123
I5
sg124
I5
sg125
I900
sg126
I0
ssI2
(dp128
g122
I1
sg123
I5
sg124
I5
sg125
I900
sg126
I0
ssI3
(dp129
g122
I1
sg123
I5
sg124
I5
sg125
I900
sg126
I0
ssI4
(dp130
g122
I1
sg123
I5
sg124
I5
sg125
I900
sg126
I0
ssI5
(dp131
g122
I1
sg123
I5
sg124
I5
sg125
I900
sg126
I0
ssI6
(dp132
g122
I1
sg123
I5
sg124
I5
sg125
I900
sg126
I0
ssI7
(dp133
g122
I1
sg123
I5
sg124
I5
sg125
I900
sg126
I0
ssI8
(dp134
g122
I1
sg123
I5
sg124
I5
sg125
I900
sg126
I0
ssI9
(dp135
g122
I1
sg123
I5
sg124
I5
sg125
I900
sg126
I0
sssI8
(dp136
I0
(dp137
S'Learning Rate'
p138
I1
sS'Num season factors'
p139
I5
sS'Num home factors'
p140
I5
sS'Iterations'
p141
I900
sS'Lambda'
p142
I0
ssI1
(dp143
g138
I1
sg139
I5
sg140
I5
sg141
I900
sg142
I0
ssI2
(dp144
g138
I1
sg139
I5
sg140
I5
sg141
I900
sg142
I0
ssI3
(dp145
g138
I1
sg139
I5
sg140
I5
sg141
I900
sg142
I0
ssI4
(dp146
g138
I1
sg139
I5
sg140
I5
sg141
I900
sg142
I0
ssI5
(dp147
g138
I1
sg139
I5
sg140
I5
sg141
I900
sg142
I0
ssI6
(dp148
g138
I1
sg139
I5
sg140
I5
sg141
I900
sg142
I0
ssI7
(dp149
g138
I1
sg139
I5
sg140
I5
sg141
I900
sg142
I0
ssI8
(dp150
g138
I1
sg139
I5
sg140
I5
sg141
I900
sg142
I0
ssI9
(dp151
g138
I1
sg139
I5
sg140
I5
sg141
I900
sg142
I0
sssI9
(dp152
I0
(dp153
S'Learning Rate'
p154
I1
sS'Num season factors'
p155
I5
sS'Num home factors'
p156
I5
sS'Iterations'
p157
I900
sS'Lambda'
p158
I0
ssI1
(dp159
g154
I1
sg155
I5
sg156
I5
sg157
I900
sg158
I0
ssI2
(dp160
g154
I1
sg155
I5
sg156
I5
sg157
I900
sg158
I0
ssI3
(dp161
g154
I1
sg155
I5
sg156
I5
sg157
I900
sg158
I0
ssI4
(dp162
g154
I1
sg155
I5
sg156
I5
sg157
I900
sg158
I0
ssI5
(dp163
g154
I1
sg155
I5
sg156
I5
sg157
I900
sg158
I0
ssI6
(dp164
g154
I1
sg155
I5
sg156
I5
sg157
I900
sg158
I0
ssI7
(dp165
g154
I1
sg155
I5
sg156
I5
sg157
I900
sg158
I0
ssI8
(dp166
g154
I1
sg155
I5
sg156
I5
sg157
I900
sg158
I0
ssI9
(dp167
g154
I1
sg155
I5
sg156
I5
sg157
I900
sg158
I0
sssssS'normal'
p168
(dp169
F0.0
(dp170
I0
(dp171
I0
(dp172
S'Learning Rate'
p173
I1
sS'Num season factors'
p174
I5
sS'Num home factors'
p175
I5
sS'Iterations'
p176
I900
sS'Lambda'
p177
I0
ssI1
(dp178
g173
I1
sg174
I5
sg175
I5
sg176
I900
sg177
I0
ssI2
(dp179
g173
I1
sg174
I5
sg175
I5
sg176
I900
sg177
I0
ssI3
(dp180
g173
I1
sg174
I5
sg175
I5
sg176
I900
sg177
I0
ssI4
(dp181
g173
I1
sg174
I5
sg175
I5
sg176
I900
sg177
I0
ssI5
(dp182
g173
I1
sg174
I5
sg175
I5
sg176
I900
sg177
I0
ssI6
(dp183
g173
I1
sg174
I5
sg175
I5
sg176
I900
sg177
I0
ssI7
(dp184
g173
I1
sg174
I5
sg175
I5
sg176
I900
sg177
I0
ssI8
(dp185
g173
I1
sg174
I5
sg175
I5
sg176
I900
sg177
I0
ssI9
(dp186
g173
I1
sg174
I5
sg175
I5
sg176
I900
sg177
I0
sssI1
(dp187
I0
(dp188
S'Learning Rate'
p189
I1
sS'Num season factors'
p190
I5
sS'Num home factors'
p191
I5
sS'Iterations'
p192
I900
sS'Lambda'
p193
I0
ssI1
(dp194
g189
I1
sg190
I5
sg191
I5
sg192
I900
sg193
I0
ssI2
(dp195
g189
I1
sg190
I5
sg191
I5
sg192
I900
sg193
I0
ssI3
(dp196
g189
I1
sg190
I5
sg191
I5
sg192
I900
sg193
I0
ssI4
(dp197
g189
I1
sg190
I5
sg191
I5
sg192
I900
sg193
I0
ssI5
(dp198
g189
I1
sg190
I5
sg191
I5
sg192
I900
sg193
I0
ssI6
(dp199
g189
I1
sg190
I5
sg191
I5
sg192
I900
sg193
I0
ssI7
(dp200
g189
I1
sg190
I5
sg191
I5
sg192
I900
sg193
I0
ssI8
(dp201
g189
I1
sg190
I5
sg191
I5
sg192
I900
sg193
I0
ssI9
(dp202
g189
I1
sg190
I5
sg191
I5
sg192
I900
sg193
I0
sssI2
(dp203
I0
(dp204
S'Learning Rate'
p205
I1
sS'Num season factors'
p206
I5
sS'Num home factors'
p207
I5
sS'Iterations'
p208
I900
sS'Lambda'
p209
I0
ssI1
(dp210
g205
I1
sg206
I5
sg207
I5
sg208
I900
sg209
I0
ssI2
(dp211
g205
I1
sg206
I5
sg207
I5
sg208
I900
sg209
I0
ssI3
(dp212
g205
I1
sg206
I5
sg207
I5
sg208
I900
sg209
I0
ssI4
(dp213
g205
I1
sg206
I5
sg207
I5
sg208
I900
sg209
I0
ssI5
(dp214
g205
I1
sg206
I5
sg207
I5
sg208
I900
sg209
I0
ssI6
(dp215
g205
I1
sg206
I5
sg207
I5
sg208
I900
sg209
I0
ssI7
(dp216
g205
I1
sg206
I5
sg207
I5
sg208
I900
sg209
I0
ssI8
(dp217
g205
I1
sg206
I5
sg207
I5
sg208
I900
sg209
I0
ssI9
(dp218
g205
I1
sg206
I5
sg207
I5
sg208
I900
sg209
I0
sssI3
(dp219
I0
(dp220
S'Learning Rate'
p221
I1
sS'Num season factors'
p222
I5
sS'Num home factors'
p223
I5
sS'Iterations'
p224
I900
sS'Lambda'
p225
I0
ssI1
(dp226
g221
I1
sg222
I5
sg223
I5
sg224
I900
sg225
I0
ssI2
(dp227
g221
I1
sg222
I5
sg223
I5
sg224
I900
sg225
I0
ssI3
(dp228
g221
I1
sg222
I5
sg223
I5
sg224
I900
sg225
I0
ssI4
(dp229
g221
I1
sg222
I5
sg223
I5
sg224
I900
sg225
I0
ssI5
(dp230
g221
I1
sg222
I5
sg223
I5
sg224
I900
sg225
I0
ssI6
(dp231
g221
I1
sg222
I5
sg223
I5
sg224
I900
sg225
I0
ssI7
(dp232
g221
I1
sg222
I5
sg223
I5
sg224
I900
sg225
I0
ssI8
(dp233
g221
I1
sg222
I5
sg223
I5
sg224
I900
sg225
I0
ssI9
(dp234
g221
I1
sg222
I5
sg223
I5
sg224
I900
sg225
I0
sssI4
(dp235
I0
(dp236
S'Learning Rate'
p237
I1
sS'Num season factors'
p238
I5
sS'Num home factors'
p239
I5
sS'Iterations'
p240
I900
sS'Lambda'
p241
I0
ssI1
(dp242
g237
I1
sg238
I5
sg239
I5
sg240
I900
sg241
I0
ssI2
(dp243
g237
I1
sg238
I5
sg239
I5
sg240
I900
sg241
I0
ssI3
(dp244
g237
I1
sg238
I5
sg239
I5
sg240
I900
sg241
I0
ssI4
(dp245
g237
I1
sg238
I5
sg239
I5
sg240
I900
sg241
I0
ssI5
(dp246
g237
I1
sg238
I5
sg239
I5
sg240
I900
sg241
I0
ssI6
(dp247
g237
I1
sg238
I5
sg239
I5
sg240
I900
sg241
I0
ssI7
(dp248
g237
I1
sg238
I5
sg239
I5
sg240
I900
sg241
I0
ssI8
(dp249
g237
I1
sg238
I5
sg239
I5
sg240
I900
sg241
I0
ssI9
(dp250
g237
I1
sg238
I5
sg239
I5
sg240
I900
sg241
I0
sssI5
(dp251
I0
(dp252
S'Learning Rate'
p253
I1
sS'Num season factors'
p254
I5
sS'Num home factors'
p255
I5
sS'Iterations'
p256
I900
sS'Lambda'
p257
I0
ssI1
(dp258
g253
I1
sg254
I5
sg255
I5
sg256
I900
sg257
I0
ssI2
(dp259
g253
I1
sg254
I5
sg255
I5
sg256
I900
sg257
I0
ssI3
(dp260
g253
I1
sg254
I5
sg255
I5
sg256
I900
sg257
I0
ssI4
(dp261
g253
I1
sg254
I5
sg255
I5
sg256
I900
sg257
I0
ssI5
(dp262
g253
I1
sg254
I5
sg255
I5
sg256
I900
sg257
I0
ssI6
(dp263
g253
I1
sg254
I5
sg255
I5
sg256
I900
sg257
I0
ssI7
(dp264
g253
I1
sg254
I5
sg255
I5
sg256
I900
sg257
I0
ssI8
(dp265
g253
I1
sg254
I5
sg255
I5
sg256
I900
sg257
I0
ssI9
(dp266
g253
I1
sg254
I5
sg255
I5
sg256
I900
sg257
I0
sssI6
(dp267
I0
(dp268
S'Learning Rate'
p269
I1
sS'Num season factors'
p270
I5
sS'Num home factors'
p271
I5
sS'Iterations'
p272
I900
sS'Lambda'
p273
I0
ssI1
(dp274
g269
I1
sg270
I5
sg271
I5
sg272
I900
sg273
I0
ssI2
(dp275
g269
I1
sg270
I5
sg271
I5
sg272
I900
sg273
I0
ssI3
(dp276
g269
I1
sg270
I5
sg271
I5
sg272
I900
sg273
I0
ssI4
(dp277
g269
I1
sg270
I5
sg271
I5
sg272
I900
sg273
I0
ssI5
(dp278
g269
I1
sg270
I5
sg271
I5
sg272
I900
sg273
I0
ssI6
(dp279
g269
I1
sg270
I5
sg271
I5
sg272
I900
sg273
I0
ssI7
(dp280
g269
I1
sg270
I5
sg271
I5
sg272
I900
sg273
I0
ssI8
(dp281
g269
I1
sg270
I5
sg271
I5
sg272
I900
sg273
I0
ssI9
(dp282
g269
I1
sg270
I5
sg271
I5
sg272
I900
sg273
I0
sssI7
(dp283
I0
(dp284
S'Learning Rate'
p285
I1
sS'Num season factors'
p286
I5
sS'Num home factors'
p287
I5
sS'Iterations'
p288
I900
sS'Lambda'
p289
I0
ssI1
(dp290
g285
I1
sg286
I5
sg287
I5
sg288
I900
sg289
I0
ssI2
(dp291
g285
I1
sg286
I5
sg287
I5
sg288
I900
sg289
I0
ssI3
(dp292
g285
I1
sg286
I5
sg287
I5
sg288
I900
sg289
I0
ssI4
(dp293
g285
I1
sg286
I5
sg287
I5
sg288
I900
sg289
I0
ssI5
(dp294
g285
I1
sg286
I5
sg287
I5
sg288
I900
sg289
I0
ssI6
(dp295
g285
I1
sg286
I5
sg287
I5
sg288
I900
sg289
I0
ssI7
(dp296
g285
I1
sg286
I5
sg287
I5
sg288
I900
sg289
I0
ssI8
(dp297
g285
I1
sg286
I5
sg287
I5
sg288
I900
sg289
I0
ssI9
(dp298
g285
I1
sg286
I5
sg287
I5
sg288
I900
sg289
I0
sssI8
(dp299
I0
(dp300
S'Learning Rate'
p301
I1
sS'Num season factors'
p302
I5
sS'Num home factors'
p303
I5
sS'Iterations'
p304
I900
sS'Lambda'
p305
I0
ssI1
(dp306
g301
I1
sg302
I5
sg303
I5
sg304
I900
sg305
I0
ssI2
(dp307
g301
I1
sg302
I5
sg303
I5
sg304
I900
sg305
I0
ssI3
(dp308
g301
I1
sg302
I5
sg303
I5
sg304
I900
sg305
I0
ssI4
(dp309
g301
I1
sg302
I5
sg303
I5
sg304
I900
sg305
I0
ssI5
(dp310
g301
I1
sg302
I5
sg303
I5
sg304
I900
sg305
I0
ssI6
(dp311
g301
I1
sg302
I5
sg303
I5
sg304
I900
sg305
I0
ssI7
(dp312
g301
I1
sg302
I5
sg303
I5
sg304
I900
sg305
I0
ssI8
(dp313
g301
I1
sg302
I5
sg303
I5
sg304
I900
sg305
I0
ssI9
(dp314
g301
I1
sg302
I5
sg303
I5
sg304
I900
sg305
I0
sssI9
(dp315
I0
(dp316
S'Learning Rate'
p317
I1
sS'Num season factors'
p318
I5
sS'Num home factors'
p319
I5
sS'Iterations'
p320
I900
sS'Lambda'
p321
I0
ssI1
(dp322
g317
I1
sg318
I5
sg319
I5
sg320
I900
sg321
I0
ssI2
(dp323
g317
I1
sg318
I5
sg319
I5
sg320
I900
sg321
I0
ssI3
(dp324
g317
I1
sg318
I5
sg319
I5
sg320
I900
sg321
I0
ssI4
(dp325
g317
I1
sg318
I5
sg319
I5
sg320
I900
sg321
I0
ssI5
(dp326
g317
I1
sg318
I5
sg319
I5
sg320
I900
sg321
I0
ssI6
(dp327
g317
I1
sg318
I5
sg319
I5
sg320
I900
sg321
I0
ssI7
(dp328
g317
I1
sg318
I5
sg319
I5
sg320
I900
sg321
I0
ssI8
(dp329
g317
I1
sg318
I5
sg319
I5
sg320
I900
sg321
I0
ssI9
(dp330
g317
I1
sg318
I5
sg319
I5
sg320
I900
sg321
I0
ssssssS'True'
p331
(dp332
g5
(dp333
F0.0
(dp334
I0
(dp335
I0
(dp336
S'Learning Rate'
p337
I1
sS'Num season factors'
p338
I5
sS'Num home factors'
p339
I5
sS'Iterations'
p340
I900
sS'Lambda'
p341
I0
ssI1
(dp342
g337
I1
sg338
I5
sg339
I5
sg340
I900
sg341
I0
ssI2
(dp343
g337
I1
sg338
I5
sg339
I5
sg340
I900
sg341
I0
ssI3
(dp344
g337
I1
sg338
I5
sg339
I5
sg340
I900
sg341
I0
ssI4
(dp345
g337
I1
sg338
I5
sg339
I5
sg340
I900
sg341
I0
ssI5
(dp346
g337
I1
sg338
I5
sg339
I5
sg340
I900
sg341
I0
ssI6
(dp347
g337
I1
sg338
I5
sg339
I5
sg340
I900
sg341
I0
ssI7
(dp348
g337
I1
sg338
I5
sg339
I5
sg340
I900
sg341
I0
ssI8
(dp349
g337
I1
sg338
I5
sg339
I5
sg340
I900
sg341
I0
ssI9
(dp350
g337
I1
sg338
I5
sg339
I5
sg340
I900
sg341
I0
sssI1
(dp351
I0
(dp352
S'Learning Rate'
p353
I1
sS'Num season factors'
p354
I5
sS'Num home factors'
p355
I5
sS'Iterations'
p356
I900
sS'Lambda'
p357
I0
ssI1
(dp358
g353
I1
sg354
I5
sg355
I5
sg356
I900
sg357
I0
ssI2
(dp359
g353
I1
sg354
I5
sg355
I5
sg356
I900
sg357
I0
ssI3
(dp360
g353
I1
sg354
I5
sg355
I5
sg356
I900
sg357
I0
ssI4
(dp361
g353
I1
sg354
I5
sg355
I5
sg356
I900
sg357
I0
ssI5
(dp362
g353
I1
sg354
I5
sg355
I5
sg356
I900
sg357
I0
ssI6
(dp363
g353
I1
sg354
I5
sg355
I5
sg356
I900
sg357
I0
ssI7
(dp364
g353
I1
sg354
I5
sg355
I5
sg356
I900
sg357
I0
ssI8
(dp365
g353
I1
sg354
I5
sg355
I5
sg356
I900
sg357
I0
ssI9
(dp366
g353
I1
sg354
I5
sg355
I5
sg356
I900
sg357
I0
sssI2
(dp367
I0
(dp368
S'Learning Rate'
p369
I1
sS'Num season factors'
p370
I5
sS'Num home factors'
p371
I5
sS'Iterations'
p372
I900
sS'Lambda'
p373
I0
ssI1
(dp374
g369
I1
sg370
I5
sg371
I5
sg372
I900
sg373
I0
ssI2
(dp375
g369
I1
sg370
I5
sg371
I5
sg372
I900
sg373
I0
ssI3
(dp376
g369
I1
sg370
I5
sg371
I5
sg372
I900
sg373
I0
ssI4
(dp377
g369
I1
sg370
I5
sg371
I5
sg372
I900
sg373
I0
ssI5
(dp378
g369
I1
sg370
I5
sg371
I5
sg372
I900
sg373
I0
ssI6
(dp379
g369
I1
sg370
I5
sg371
I5
sg372
I900
sg373
I0
ssI7
(dp380
g369
I1
sg370
I5
sg371
I5
sg372
I900
sg373
I0
ssI8
(dp381
g369
I1
sg370
I5
sg371
I5
sg372
I900
sg373
I0
ssI9
(dp382
g369
I1
sg370
I5
sg371
I5
sg372
I900
sg373
I0
sssI3
(dp383
I0
(dp384
S'Learning Rate'
p385
I1
sS'Num season factors'
p386
I5
sS'Num home factors'
p387
I5
sS'Iterations'
p388
I900
sS'Lambda'
p389
I0
ssI1
(dp390
g385
I1
sg386
I5
sg387
I5
sg388
I900
sg389
I0
ssI2
(dp391
g385
I1
sg386
I5
sg387
I5
sg388
I900
sg389
I0
ssI3
(dp392
g385
I1
sg386
I5
sg387
I5
sg388
I900
sg389
I0
ssI4
(dp393
g385
I1
sg386
I5
sg387
I5
sg388
I900
sg389
I0
ssI5
(dp394
g385
I1
sg386
I5
sg387
I5
sg388
I900
sg389
I0
ssI6
(dp395
g385
I1
sg386
I5
sg387
I5
sg388
I900
sg389
I0
ssI7
(dp396
g385
I1
sg386
I5
sg387
I5
sg388
I900
sg389
I0
ssI8
(dp397
g385
I1
sg386
I5
sg387
I5
sg388
I900
sg389
I0
ssI9
(dp398
g385
I1
sg386
I5
sg387
I5
sg388
I900
sg389
I0
sssI4
(dp399
I0
(dp400
S'Learning Rate'
p401
I1
sS'Num season factors'
p402
I5
sS'Num home factors'
p403
I5
sS'Iterations'
p404
I900
sS'Lambda'
p405
I0
ssI1
(dp406
g401
I1
sg402
I5
sg403
I5
sg404
I900
sg405
I0
ssI2
(dp407
g401
I1
sg402
I5
sg403
I5
sg404
I900
sg405
I0
ssI3
(dp408
g401
I1
sg402
I5
sg403
I5
sg404
I900
sg405
I0
ssI4
(dp409
g401
I1
sg402
I5
sg403
I5
sg404
I900
sg405
I0
ssI5
(dp410
g401
I1
sg402
I5
sg403
I5
sg404
I900
sg405
I0
ssI6
(dp411
g401
I1
sg402
I5
sg403
I5
sg404
I900
sg405
I0
ssI7
(dp412
g401
I1
sg402
I5
sg403
I5
sg404
I900
sg405
I0
ssI8
(dp413
g401
I1
sg402
I5
sg403
I5
sg404
I900
sg405
I0
ssI9
(dp414
g401
I1
sg402
I5
sg403
I5
sg404
I900
sg405
I0
sssI5
(dp415
I0
(dp416
S'Learning Rate'
p417
I1
sS'Num season factors'
p418
I5
sS'Num home factors'
p419
I5
sS'Iterations'
p420
I900
sS'Lambda'
p421
I0
ssI1
(dp422
g417
I1
sg418
I5
sg419
I5
sg420
I900
sg421
I0
ssI2
(dp423
g417
I1
sg418
I5
sg419
I5
sg420
I900
sg421
I0
ssI3
(dp424
g417
I1
sg418
I5
sg419
I5
sg420
I900
sg421
I0
ssI4
(dp425
g417
I1
sg418
I5
sg419
I5
sg420
I900
sg421
I0
ssI5
(dp426
g417
I1
sg418
I5
sg419
I5
sg420
I900
sg421
I0
ssI6
(dp427
g417
I1
sg418
I5
sg419
I5
sg420
I900
sg421
I0
ssI7
(dp428
g417
I1
sg418
I5
sg419
I5
sg420
I900
sg421
I0
ssI8
(dp429
g417
I1
sg418
I5
sg419
I5
sg420
I900
sg421
I0
ssI9
(dp430
g417
I1
sg418
I5
sg419
I5
sg420
I900
sg421
I0
sssI6
(dp431
I0
(dp432
S'Learning Rate'
p433
I1
sS'Num season factors'
p434
I5
sS'Num home factors'
p435
I5
sS'Iterations'
p436
I900
sS'Lambda'
p437
I0
ssI1
(dp438
g433
I1
sg434
I5
sg435
I5
sg436
I900
sg437
I0
ssI2
(dp439
g433
I1
sg434
I5
sg435
I5
sg436
I900
sg437
I0
ssI3
(dp440
g433
I1
sg434
I5
sg435
I5
sg436
I900
sg437
I0
ssI4
(dp441
g433
I1
sg434
I5
sg435
I5
sg436
I900
sg437
I0
ssI5
(dp442
g433
I1
sg434
I5
sg435
I5
sg436
I900
sg437
I0
ssI6
(dp443
g433
I1
sg434
I5
sg435
I5
sg436
I900
sg437
I0
ssI7
(dp444
g433
I1
sg434
I5
sg435
I5
sg436
I900
sg437
I0
ssI8
(dp445
g433
I1
sg434
I5
sg435
I5
sg436
I900
sg437
I0
ssI9
(dp446
g433
I1
sg434
I5
sg435
I5
sg436
I900
sg437
I0
sssI7
(dp447
I0
(dp448
S'Learning Rate'
p449
I1
sS'Num season factors'
p450
I5
sS'Num home factors'
p451
I5
sS'Iterations'
p452
I900
sS'Lambda'
p453
I0
ssI1
(dp454
g449
I1
sg450
I5
sg451
I5
sg452
I900
sg453
I0
ssI2
(dp455
g449
I1
sg450
I5
sg451
I5
sg452
I900
sg453
I0
ssI3
(dp456
g449
I1
sg450
I5
sg451
I5
sg452
I900
sg453
I0
ssI4
(dp457
g449
I1
sg450
I5
sg451
I5
sg452
I900
sg453
I0
ssI5
(dp458
g449
I1
sg450
I5
sg451
I5
sg452
I900
sg453
I0
ssI6
(dp459
g449
I1
sg450
I5
sg451
I5
sg452
I900
sg453
I0
ssI7
(dp460
g449
I1
sg450
I5
sg451
I5
sg452
I900
sg453
I0
ssI8
(dp461
g449
I1
sg450
I5
sg451
I5
sg452
I900
sg453
I0
ssI9
(dp462
g449
I1
sg450
I5
sg451
I5
sg452
I900
sg453
I0
sssI8
(dp463
I0
(dp464
S'Learning Rate'
p465
I1
sS'Num season factors'
p466
I5
sS'Num home factors'
p467
I5
sS'Iterations'
p468
I900
sS'Lambda'
p469
I0
ssI1
(dp470
g465
I1
sg466
I5
sg467
I5
sg468
I900
sg469
I0
ssI2
(dp471
g465
I1
sg466
I5
sg467
I5
sg468
I900
sg469
I0
ssI3
(dp472
g465
I1
sg466
I5
sg467
I5
sg468
I900
sg469
I0
ssI4
(dp473
g465
I1
sg466
I5
sg467
I5
sg468
I900
sg469
I0
ssI5
(dp474
g465
I1
sg466
I5
sg467
I5
sg468
I900
sg469
I0
ssI6
(dp475
g465
I1
sg466
I5
sg467
I5
sg468
I900
sg469
I0
ssI7
(dp476
g465
I1
sg466
I5
sg467
I5
sg468
I900
sg469
I0
ssI8
(dp477
g465
I1
sg466
I5
sg467
I5
sg468
I900
sg469
I0
ssI9
(dp478
g465
I1
sg466
I5
sg467
I5
sg468
I900
sg469
I0
sssI9
(dp479
I0
(dp480
S'Learning Rate'
p481
I1
sS'Num season factors'
p482
I5
sS'Num home factors'
p483
I5
sS'Iterations'
p484
I900
sS'Lambda'
p485
I0
ssI1
(dp486
g481
I1
sg482
I5
sg483
I5
sg484
I900
sg485
I0
ssI2
(dp487
g481
I1
sg482
I5
sg483
I5
sg484
I900
sg485
I0
ssI3
(dp488
g481
I1
sg482
I5
sg483
I5
sg484
I900
sg485
I0
ssI4
(dp489
g481
I1
sg482
I5
sg483
I5
sg484
I900
sg485
I0
ssI5
(dp490
g481
I1
sg482
I5
sg483
I5
sg484
I900
sg485
I0
ssI6
(dp491
g481
I1
sg482
I5
sg483
I5
sg484
I900
sg485
I0
ssI7
(dp492
g481
I1
sg482
I5
sg483
I5
sg484
I900
sg485
I0
ssI8
(dp493
g481
I1
sg482
I5
sg483
I5
sg484
I900
sg485
I0
ssI9
(dp494
g481
I1
sg482
I5
sg483
I5
sg484
I900
sg485
I0
sssssg168
(dp495
F0.0
(dp496
I0
(dp497
I0
(dp498
S'Learning Rate'
p499
I1
sS'Num season factors'
p500
I5
sS'Num home factors'
p501
I5
sS'Iterations'
p502
I900
sS'Lambda'
p503
I0
ssI1
(dp504
g499
I1
sg500
I5
sg501
I5
sg502
I900
sg503
I0
ssI2
(dp505
g499
I1
sg500
I5
sg501
I5
sg502
I900
sg503
I0
ssI3
(dp506
g499
I1
sg500
I5
sg501
I5
sg502
I900
sg503
I0
ssI4
(dp507
g499
I1
sg500
I5
sg501
I5
sg502
I900
sg503
I0
ssI5
(dp508
g499
I1
sg500
I5
sg501
I5
sg502
I900
sg503
I0
ssI6
(dp509
g499
I1
sg500
I5
sg501
I5
sg502
I900
sg503
I0
ssI7
(dp510
g499
I1
sg500
I5
sg501
I5
sg502
I900
sg503
I0
ssI8
(dp511
g499
I1
sg500
I5
sg501
I5
sg502
I900
sg503
I0
ssI9
(dp512
g499
I1
sg500
I5
sg501
I5
sg502
I900
sg503
I0
sssI1
(dp513
I0
(dp514
S'Learning Rate'
p515
I1
sS'Num season factors'
p516
I5
sS'Num home factors'
p517
I5
sS'Iterations'
p518
I900
sS'Lambda'
p519
I0
ssI1
(dp520
g515
I1
sg516
I5
sg517
I5
sg518
I900
sg519
I0
ssI2
(dp521
g515
I1
sg516
I5
sg517
I5
sg518
I900
sg519
I0
ssI3
(dp522
g515
I1
sg516
I5
sg517
I5
sg518
I900
sg519
I0
ssI4
(dp523
g515
I1
sg516
I5
sg517
I5
sg518
I900
sg519
I0
ssI5
(dp524
g515
I1
sg516
I5
sg517
I5
sg518
I900
sg519
I0
ssI6
(dp525
g515
I1
sg516
I5
sg517
I5
sg518
I900
sg519
I0
ssI7
(dp526
g515
I1
sg516
I5
sg517
I5
sg518
I900
sg519
I0
ssI8
(dp527
g515
I1
sg516
I5
sg517
I5
sg518
I900
sg519
I0
ssI9
(dp528
g515
I1
sg516
I5
sg517
I5
sg518
I900
sg519
I0
sssI2
(dp529
I0
(dp530
S'Learning Rate'
p531
I1
sS'Num season factors'
p532
I5
sS'Num home factors'
p533
I5
sS'Iterations'
p534
I900
sS'Lambda'
p535
I0
ssI1
(dp536
g531
I1
sg532
I5
sg533
I5
sg534
I900
sg535
I0
ssI2
(dp537
g531
I1
sg532
I5
sg533
I5
sg534
I900
sg535
I0
ssI3
(dp538
g531
I1
sg532
I5
sg533
I5
sg534
I900
sg535
I0
ssI4
(dp539
g531
I1
sg532
I5
sg533
I5
sg534
I900
sg535
I0
ssI5
(dp540
g531
I1
sg532
I5
sg533
I5
sg534
I900
sg535
I0
ssI6
(dp541
g531
I1
sg532
I5
sg533
I5
sg534
I900
sg535
I0
ssI7
(dp542
g531
I1
sg532
I5
sg533
I5
sg534
I900
sg535
I0
ssI8
(dp543
g531
I1
sg532
I5
sg533
I5
sg534
I900
sg535
I0
ssI9
(dp544
g531
I1
sg532
I5
sg533
I5
sg534
I900
sg535
I0
sssI3
(dp545
I0
(dp546
S'Learning Rate'
p547
I1
sS'Num season factors'
p548
I5
sS'Num home factors'
p549
I5
sS'Iterations'
p550
I900
sS'Lambda'
p551
I0
ssI1
(dp552
g547
I1
sg548
I5
sg549
I5
sg550
I900
sg551
I0
ssI2
(dp553
g547
I1
sg548
I5
sg549
I5
sg550
I900
sg551
I0
ssI3
(dp554
g547
I1
sg548
I5
sg549
I5
sg550
I900
sg551
I0
ssI4
(dp555
g547
I1
sg548
I5
sg549
I5
sg550
I900
sg551
I0
ssI5
(dp556
g547
I1
sg548
I5
sg549
I5
sg550
I900
sg551
I0
ssI6
(dp557
g547
I1
sg548
I5
sg549
I5
sg550
I900
sg551
I0
ssI7
(dp558
g547
I1
sg548
I5
sg549
I5
sg550
I900
sg551
I0
ssI8
(dp559
g547
I1
sg548
I5
sg549
I5
sg550
I900
sg551
I0
ssI9
(dp560
g547
I1
sg548
I5
sg549
I5
sg550
I900
sg551
I0
sssI4
(dp561
I0
(dp562
S'Learning Rate'
p563
I1
sS'Num season factors'
p564
I5
sS'Num home factors'
p565
I5
sS'Iterations'
p566
I900
sS'Lambda'
p567
I0
ssI1
(dp568
g563
I1
sg564
I5
sg565
I5
sg566
I900
sg567
I0
ssI2
(dp569
g563
I1
sg564
I5
sg565
I5
sg566
I900
sg567
I0
ssI3
(dp570
g563
I1
sg564
I5
sg565
I5
sg566
I900
sg567
I0
ssI4
(dp571
g563
I1
sg564
I5
sg565
I5
sg566
I900
sg567
I0
ssI5
(dp572
g563
I1
sg564
I5
sg565
I5
sg566
I900
sg567
I0
ssI6
(dp573
g563
I1
sg564
I5
sg565
I5
sg566
I900
sg567
I0
ssI7
(dp574
g563
I1
sg564
I5
sg565
I5
sg566
I900
sg567
I0
ssI8
(dp575
g563
I1
sg564
I5
sg565
I5
sg566
I900
sg567
I0
ssI9
(dp576
g563
I1
sg564
I5
sg565
I5
sg566
I900
sg567
I0
sssI5
(dp577
I0
(dp578
S'Learning Rate'
p579
I1
sS'Num season factors'
p580
I5
sS'Num home factors'
p581
I5
sS'Iterations'
p582
I900
sS'Lambda'
p583
I0
ssI1
(dp584
g579
I1
sg580
I5
sg581
I5
sg582
I900
sg583
I0
ssI2
(dp585
g579
I1
sg580
I5
sg581
I5
sg582
I900
sg583
I0
ssI3
(dp586
g579
I1
sg580
I5
sg581
I5
sg582
I900
sg583
I0
ssI4
(dp587
g579
I1
sg580
I5
sg581
I5
sg582
I900
sg583
I0
ssI5
(dp588
g579
I1
sg580
I5
sg581
I5
sg582
I900
sg583
I0
ssI6
(dp589
g579
I1
sg580
I5
sg581
I5
sg582
I900
sg583
I0
ssI7
(dp590
g579
I1
sg580
I5
sg581
I5
sg582
I900
sg583
I0
ssI8
(dp591
g579
I1
sg580
I5
sg581
I5
sg582
I900
sg583
I0
ssI9
(dp592
g579
I1
sg580
I5
sg581
I5
sg582
I900
sg583
I0
sssI6
(dp593
I0
(dp594
S'Learning Rate'
p595
I1
sS'Num season factors'
p596
I5
sS'Num home factors'
p597
I5
sS'Iterations'
p598
I900
sS'Lambda'
p599
I0
ssI1
(dp600
g595
I1
sg596
I5
sg597
I5
sg598
I900
sg599
I0
ssI2
(dp601
g595
I1
sg596
I5
sg597
I5
sg598
I900
sg599
I0
ssI3
(dp602
g595
I1
sg596
I5
sg597
I5
sg598
I900
sg599
I0
ssI4
(dp603
g595
I1
sg596
I5
sg597
I5
sg598
I900
sg599
I0
ssI5
(dp604
g595
I1
sg596
I5
sg597
I5
sg598
I900
sg599
I0
ssI6
(dp605
g595
I1
sg596
I5
sg597
I5
sg598
I900
sg599
I0
ssI7
(dp606
g595
I1
sg596
I5
sg597
I5
sg598
I900
sg599
I0
ssI8
(dp607
g595
I1
sg596
I5
sg597
I5
sg598
I900
sg599
I0
ssI9
(dp608
g595
I1
sg596
I5
sg597
I5
sg598
I900
sg599
I0
sssI7
(dp609
I0
(dp610
S'Learning Rate'
p611
I1
sS'Num season factors'
p612
I5
sS'Num home factors'
p613
I5
sS'Iterations'
p614
I900
sS'Lambda'
p615
I0
ssI1
(dp616
g611
I1
sg612
I5
sg613
I5
sg614
I900
sg615
I0
ssI2
(dp617
g611
I1
sg612
I5
sg613
I5
sg614
I900
sg615
I0
ssI3
(dp618
g611
I1
sg612
I5
sg613
I5
sg614
I900
sg615
I0
ssI4
(dp619
g611
I1
sg612
I5
sg613
I5
sg614
I900
sg615
I0
ssI5
(dp620
g611
I1
sg612
I5
sg613
I5
sg614
I900
sg615
I0
ssI6
(dp621
g611
I1
sg612
I5
sg613
I5
sg614
I900
sg615
I0
ssI7
(dp622
g611
I1
sg612
I5
sg613
I5
sg614
I900
sg615
I0
ssI8
(dp623
g611
I1
sg612
I5
sg613
I5
sg614
I900
sg615
I0
ssI9
(dp624
g611
I1
sg612
I5
sg613
I5
sg614
I900
sg615
I0
sssI8
(dp625
I0
(dp626
S'Learning Rate'
p627
I1
sS'Num season factors'
p628
I5
sS'Num home factors'
p629
I5
sS'Iterations'
p630
I900
sS'Lambda'
p631
I0
ssI1
(dp632
g627
I1
sg628
I5
sg629
I5
sg630
I900
sg631
I0
ssI2
(dp633
g627
I1
sg628
I5
sg629
I5
sg630
I900
sg631
I0
ssI3
(dp634
g627
I1
sg628
I5
sg629
I5
sg630
I900
sg631
I0
ssI4
(dp635
g627
I1
sg628
I5
sg629
I5
sg630
I900
sg631
I0
ssI5
(dp636
g627
I1
sg628
I5
sg629
I5
sg630
I900
sg631
I0
ssI6
(dp637
g627
I1
sg628
I5
sg629
I5
sg630
I900
sg631
I0
ssI7
(dp638
g627
I1
sg628
I5
sg629
I5
sg630
I900
sg631
I0
ssI8
(dp639
g627
I1
sg628
I5
sg629
I5
sg630
I900
sg631
I0
ssI9
(dp640
g627
I1
sg628
I5
sg629
I5
sg630
I900
sg631
I0
sssI9
(dp641
I0
(dp642
S'Learning Rate'
p643
I1
sS'Num season factors'
p644
I5
sS'Num home factors'
p645
I5
sS'Iterations'
p646
I900
sS'Lambda'
p647
I0
ssI1
(dp648
g643
I1
sg644
I5
sg645
I5
sg646
I900
sg647
I0
ssI2
(dp649
g643
I1
sg644
I5
sg645
I5
sg646
I900
sg647
I0
ssI3
(dp650
g643
I1
sg644
I5
sg645
I5
sg646
I900
sg647
I0
ssI4
(dp651
g643
I1
sg644
I5
sg645
I5
sg646
I900
sg647
I0
ssI5
(dp652
g643
I1
sg644
I5
sg645
I5
sg646
I900
sg647
I0
ssI6
(dp653
g643
I1
sg644
I5
sg645
I5
sg646
I900
sg647
I0
ssI7
(dp654
g643
I1
sg644
I5
sg645
I5
sg646
I900
sg647
I0
ssI8
(dp655
g643
I1
sg644
I5
sg645
I5
sg646
I900
sg647
I0
ssI9
(dp656
g643
I1
sg644
I5
sg645
I5
sg646
I900
sg647
I0
sssssssg331
(dp657
g2
(dp658
g5
(dp659
F0.0
(dp660
I0
(dp661
I0
(dp662
S'Learning Rate'
p663
I2
sS'Num season factors'
p664
I5
sS'Num home factors'
p665
I5
sS'Iterations'
p666
I1300
sS'Lambda'
p667
I0
ssI1
(dp668
g663
I2
sg664
I5
sg665
I5
sg666
I1300
sg667
I0
ssI2
(dp669
g663
I2
sg664
I5
sg665
I5
sg666
I1300
sg667
I0
ssI3
(dp670
g663
I2
sg664
I5
sg665
I5
sg666
I1300
sg667
I0
ssI4
(dp671
g663
I2
sg664
I5
sg665
I5
sg666
I1300
sg667
I0
ssI5
(dp672
g663
I2
sg664
I5
sg665
I5
sg666
I1300
sg667
I0
ssI6
(dp673
g663
I2
sg664
I5
sg665
I5
sg666
I1300
sg667
I0
ssI7
(dp674
g663
I2
sg664
I5
sg665
I5
sg666
I1300
sg667
I0
ssI8
(dp675
g663
I2
sg664
I5
sg665
I5
sg666
I1300
sg667
I0
ssI9
(dp676
g663
I2
sg664
I5
sg665
I5
sg666
I1300
sg667
I0
sssI1
(dp677
I0
(dp678
S'Learning Rate'
p679
I2
sS'Num season factors'
p680
I5
sS'Num home factors'
p681
I5
sS'Iterations'
p682
I1300
sS'Lambda'
p683
I0
ssI1
(dp684
g679
I2
sg680
I5
sg681
I5
sg682
I1300
sg683
I0
ssI2
(dp685
g679
I2
sg680
I5
sg681
I5
sg682
I1300
sg683
I0
ssI3
(dp686
g679
I2
sg680
I5
sg681
I5
sg682
I1300
sg683
I0
ssI4
(dp687
g679
I2
sg680
I5
sg681
I5
sg682
I1300
sg683
I0
ssI5
(dp688
g679
I2
sg680
I5
sg681
I5
sg682
I1300
sg683
I0
ssI6
(dp689
g679
I2
sg680
I5
sg681
I5
sg682
I1300
sg683
I0
ssI7
(dp690
g679
I2
sg680
I5
sg681
I5
sg682
I1300
sg683
I0
ssI8
(dp691
g679
I2
sg680
I5
sg681
I5
sg682
I1300
sg683
I0
ssI9
(dp692
g679
I2
sg680
I5
sg681
I5
sg682
I1300
sg683
I0
sssI2
(dp693
I0
(dp694
S'Learning Rate'
p695
I2
sS'Num season factors'
p696
I5
sS'Num home factors'
p697
I5
sS'Iterations'
p698
I1300
sS'Lambda'
p699
I0
ssI1
(dp700
g695
I2
sg696
I5
sg697
I5
sg698
I1300
sg699
I0
ssI2
(dp701
g695
I2
sg696
I5
sg697
I5
sg698
I1300
sg699
I0
ssI3
(dp702
g695
I2
sg696
I5
sg697
I5
sg698
I1300
sg699
I0
ssI4
(dp703
g695
I2
sg696
I5
sg697
I5
sg698
I1300
sg699
I0
ssI5
(dp704
g695
I2
sg696
I5
sg697
I5
sg698
I1300
sg699
I0
ssI6
(dp705
g695
I2
sg696
I5
sg697
I5
sg698
I1300
sg699
I0
ssI7
(dp706
g695
I2
sg696
I5
sg697
I5
sg698
I1300
sg699
I0
ssI8
(dp707
g695
I2
sg696
I5
sg697
I5
sg698
I1300
sg699
I0
ssI9
(dp708
g695
I2
sg696
I5
sg697
I5
sg698
I1300
sg699
I0
sssI3
(dp709
I0
(dp710
S'Learning Rate'
p711
I2
sS'Num season factors'
p712
I5
sS'Num home factors'
p713
I5
sS'Iterations'
p714
I1300
sS'Lambda'
p715
I0
ssI1
(dp716
g711
I2
sg712
I5
sg713
I5
sg714
I1300
sg715
I0
ssI2
(dp717
g711
I2
sg712
I5
sg713
I5
sg714
I1300
sg715
I0
ssI3
(dp718
g711
I2
sg712
I5
sg713
I5
sg714
I1300
sg715
I0
ssI4
(dp719
g711
I2
sg712
I5
sg713
I5
sg714
I1300
sg715
I0
ssI5
(dp720
g711
I2
sg712
I5
sg713
I5
sg714
I1300
sg715
I0
ssI6
(dp721
g711
I2
sg712
I5
sg713
I5
sg714
I1300
sg715
I0
ssI7
(dp722
g711
I2
sg712
I5
sg713
I5
sg714
I1300
sg715
I0
ssI8
(dp723
g711
I2
sg712
I5
sg713
I5
sg714
I1300
sg715
I0
ssI9
(dp724
g711
I2
sg712
I5
sg713
I5
sg714
I1300
sg715
I0
sssI4
(dp725
I0
(dp726
S'Learning Rate'
p727
I2
sS'Num season factors'
p728
I5
sS'Num home factors'
p729
I5
sS'Iterations'
p730
I1300
sS'Lambda'
p731
I0
ssI1
(dp732
g727
I2
sg728
I5
sg729
I5
sg730
I1300
sg731
I0
ssI2
(dp733
g727
I2
sg728
I5
sg729
I5
sg730
I1300
sg731
I0
ssI3
(dp734
g727
I2
sg728
I5
sg729
I5
sg730
I1300
sg731
I0
ssI4
(dp735
g727
I2
sg728
I5
sg729
I5
sg730
I1300
sg731
I0
ssI5
(dp736
g727
I2
sg728
I5
sg729
I5
sg730
I1300
sg731
I0
ssI6
(dp737
g727
I2
sg728
I5
sg729
I5
sg730
I1300
sg731
I0
ssI7
(dp738
g727
I2
sg728
I5
sg729
I5
sg730
I1300
sg731
I0
ssI8
(dp739
g727
I2
sg728
I5
sg729
I5
sg730
I1300
sg731
I0
ssI9
(dp740
g727
I2
sg728
I5
sg729
I5
sg730
I1300
sg731
I0
sssI5
(dp741
I0
(dp742
S'Learning Rate'
p743
I2
sS'Num season factors'
p744
I5
sS'Num home factors'
p745
I5
sS'Iterations'
p746
I1300
sS'Lambda'
p747
I0
ssI1
(dp748
g743
I2
sg744
I5
sg745
I5
sg746
I1300
sg747
I0
ssI2
(dp749
g743
I2
sg744
I5
sg745
I5
sg746
I1300
sg747
I0
ssI3
(dp750
g743
I2
sg744
I5
sg745
I5
sg746
I1300
sg747
I0
ssI4
(dp751
g743
I2
sg744
I5
sg745
I5
sg746
I1300
sg747
I0
ssI5
(dp752
g743
I2
sg744
I5
sg745
I5
sg746
I1300
sg747
I0
ssI6
(dp753
g743
I2
sg744
I5
sg745
I5
sg746
I1300
sg747
I0
ssI7
(dp754
g743
I2
sg744
I5
sg745
I5
sg746
I1300
sg747
I0
ssI8
(dp755
g743
I2
sg744
I5
sg745
I5
sg746
I1300
sg747
I0
ssI9
(dp756
g743
I2
sg744
I5
sg745
I5
sg746
I1300
sg747
I0
sssI6
(dp757
I0
(dp758
S'Learning Rate'
p759
I2
sS'Num season factors'
p760
I5
sS'Num home factors'
p761
I5
sS'Iterations'
p762
I1300
sS'Lambda'
p763
I0
ssI1
(dp764
g759
I2
sg760
I5
sg761
I5
sg762
I1300
sg763
I0
ssI2
(dp765
g759
I2
sg760
I5
sg761
I5
sg762
I1300
sg763
I0
ssI3
(dp766
g759
I2
sg760
I5
sg761
I5
sg762
I1300
sg763
I0
ssI4
(dp767
g759
I2
sg760
I5
sg761
I5
sg762
I1300
sg763
I0
ssI5
(dp768
g759
I2
sg760
I5
sg761
I5
sg762
I1300
sg763
I0
ssI6
(dp769
g759
I2
sg760
I5
sg761
I5
sg762
I1300
sg763
I0
ssI7
(dp770
g759
I2
sg760
I5
sg761
I5
sg762
I1300
sg763
I0
ssI8
(dp771
g759
I2
sg760
I5
sg761
I5
sg762
I1300
sg763
I0
ssI9
(dp772
g759
I2
sg760
I5
sg761
I5
sg762
I1300
sg763
I0
sssI7
(dp773
I0
(dp774
S'Learning Rate'
p775
I2
sS'Num season factors'
p776
I5
sS'Num home factors'
p777
I5
sS'Iterations'
p778
I1300
sS'Lambda'
p779
I0
ssI1
(dp780
g775
I2
sg776
I5
sg777
I5
sg778
I1300
sg779
I0
ssI2
(dp781
g775
I2
sg776
I5
sg777
I5
sg778
I1300
sg779
I0
ssI3
(dp782
g775
I2
sg776
I5
sg777
I5
sg778
I1300
sg779
I0
ssI4
(dp783
g775
I2
sg776
I5
sg777
I5
sg778
I1300
sg779
I0
ssI5
(dp784
g775
I2
sg776
I5
sg777
I5
sg778
I1300
sg779
I0
ssI6
(dp785
g775
I2
sg776
I5
sg777
I5
sg778
I1300
sg779
I0
ssI7
(dp786
g775
I2
sg776
I5
sg777
I5
sg778
I1300
sg779
I0
ssI8
(dp787
g775
I2
sg776
I5
sg777
I5
sg778
I1300
sg779
I0
ssI9
(dp788
g775
I2
sg776
I5
sg777
I5
sg778
I1300
sg779
I0
sssI8
(dp789
I0
(dp790
S'Learning Rate'
p791
I2
sS'Num season factors'
p792
I5
sS'Num home factors'
p793
I5
sS'Iterations'
p794
I1300
sS'Lambda'
p795
I0
ssI1
(dp796
g791
I2
sg792
I5
sg793
I5
sg794
I1300
sg795
I0
ssI2
(dp797
g791
I2
sg792
I5
sg793
I5
sg794
I1300
sg795
I0
ssI3
(dp798
g791
I2
sg792
I5
sg793
I5
sg794
I1300
sg795
I0
ssI4
(dp799
g791
I2
sg792
I5
sg793
I5
sg794
I1300
sg795
I0
ssI5
(dp800
g791
I2
sg792
I5
sg793
I5
sg794
I1300
sg795
I0
ssI6
(dp801
g791
I2
sg792
I5
sg793
I5
sg794
I1300
sg795
I0
ssI7
(dp802
g791
I2
sg792
I5
sg793
I5
sg794
I1300
sg795
I0
ssI8
(dp803
g791
I2
sg792
I5
sg793
I5
sg794
I1300
sg795
I0
ssI9
(dp804
g791
I2
sg792
I5
sg793
I5
sg794
I1300
sg795
I0
sssI9
(dp805
I0
(dp806
S'Learning Rate'
p807
I2
sS'Num season factors'
p808
I5
sS'Num home factors'
p809
I5
sS'Iterations'
p810
I1300
sS'Lambda'
p811
I0
ssI1
(dp812
g807
I2
sg808
I5
sg809
I5
sg810
I1300
sg811
I0
ssI2
(dp813
g807
I2
sg808
I5
sg809
I5
sg810
I1300
sg811
I0
ssI3
(dp814
g807
I2
sg808
I5
sg809
I5
sg810
I1300
sg811
I0
ssI4
(dp815
g807
I2
sg808
I5
sg809
I5
sg810
I1300
sg811
I0
ssI5
(dp816
g807
I2
sg808
I5
sg809
I5
sg810
I1300
sg811
I0
ssI6
(dp817
g807
I2
sg808
I5
sg809
I5
sg810
I1300
sg811
I0
ssI7
(dp818
g807
I2
sg808
I5
sg809
I5
sg810
I1300
sg811
I0
ssI8
(dp819
g807
I2
sg808
I5
sg809
I5
sg810
I1300
sg811
I0
ssI9
(dp820
g807
I2
sg808
I5
sg809
I5
sg810
I1300
sg811
I0
sssssg168
(dp821
F0.0
(dp822
I0
(dp823
I0
(dp824
S'Learning Rate'
p825
I2
sS'Num season factors'
p826
I5
sS'Num home factors'
p827
I5
sS'Iterations'
p828
I1300
sS'Lambda'
p829
I0
ssI1
(dp830
g825
I2
sg826
I5
sg827
I5
sg828
I1300
sg829
I0
ssI2
(dp831
g825
I2
sg826
I5
sg827
I5
sg828
I1300
sg829
I0
ssI3
(dp832
g825
I2
sg826
I5
sg827
I5
sg828
I1300
sg829
I0
ssI4
(dp833
g825
I2
sg826
I5
sg827
I5
sg828
I1300
sg829
I0
ssI5
(dp834
g825
I2
sg826
I5
sg827
I5
sg828
I1300
sg829
I0
ssI6
(dp835
g825
I2
sg826
I5
sg827
I5
sg828
I1300
sg829
I0
ssI7
(dp836
g825
I2
sg826
I5
sg827
I5
sg828
I1300
sg829
I0
ssI8
(dp837
g825
I2
sg826
I5
sg827
I5
sg828
I1300
sg829
I0
ssI9
(dp838
g825
I2
sg826
I5
sg827
I5
sg828
I1300
sg829
I0
sssI1
(dp839
I0
(dp840
S'Learning Rate'
p841
I2
sS'Num season factors'
p842
I5
sS'Num home factors'
p843
I5
sS'Iterations'
p844
I1300
sS'Lambda'
p845
I0
ssI1
(dp846
g841
I2
sg842
I5
sg843
I5
sg844
I1300
sg845
I0
ssI2
(dp847
g841
I2
sg842
I5
sg843
I5
sg844
I1300
sg845
I0
ssI3
(dp848
g841
I2
sg842
I5
sg843
I5
sg844
I1300
sg845
I0
ssI4
(dp849
g841
I2
sg842
I5
sg843
I5
sg844
I1300
sg845
I0
ssI5
(dp850
g841
I2
sg842
I5
sg843
I5
sg844
I1300
sg845
I0
ssI6
(dp851
g841
I2
sg842
I5
sg843
I5
sg844
I1300
sg845
I0
ssI7
(dp852
g841
I2
sg842
I5
sg843
I5
sg844
I1300
sg845
I0
ssI8
(dp853
g841
I2
sg842
I5
sg843
I5
sg844
I1300
sg845
I0
ssI9
(dp854
g841
I2
sg842
I5
sg843
I5
sg844
I1300
sg845
I0
sssI2
(dp855
I0
(dp856
S'Learning Rate'
p857
I2
sS'Num season factors'
p858
I5
sS'Num home factors'
p859
I5
sS'Iterations'
p860
I1300
sS'Lambda'
p861
I0
ssI1
(dp862
g857
I2
sg858
I5
sg859
I5
sg860
I1300
sg861
I0
ssI2
(dp863
g857
I2
sg858
I5
sg859
I5
sg860
I1300
sg861
I0
ssI3
(dp864
g857
I2
sg858
I5
sg859
I5
sg860
I1300
sg861
I0
ssI4
(dp865
g857
I2
sg858
I5
sg859
I5
sg860
I1300
sg861
I0
ssI5
(dp866
g857
I2
sg858
I5
sg859
I5
sg860
I1300
sg861
I0
ssI6
(dp867
g857
I2
sg858
I5
sg859
I5
sg860
I1300
sg861
I0
ssI7
(dp868
g857
I2
sg858
I5
sg859
I5
sg860
I1300
sg861
I0
ssI8
(dp869
g857
I2
sg858
I5
sg859
I5
sg860
I1300
sg861
I0
ssI9
(dp870
g857
I2
sg858
I5
sg859
I5
sg860
I1300
sg861
I0
sssI3
(dp871
I0
(dp872
S'Learning Rate'
p873
I2
sS'Num season factors'
p874
I5
sS'Num home factors'
p875
I5
sS'Iterations'
p876
I1300
sS'Lambda'
p877
I0
ssI1
(dp878
g873
I2
sg874
I5
sg875
I5
sg876
I1300
sg877
I0
ssI2
(dp879
g873
I2
sg874
I5
sg875
I5
sg876
I1300
sg877
I0
ssI3
(dp880
g873
I2
sg874
I5
sg875
I5
sg876
I1300
sg877
I0
ssI4
(dp881
g873
I2
sg874
I5
sg875
I5
sg876
I1300
sg877
I0
ssI5
(dp882
g873
I2
sg874
I5
sg875
I5
sg876
I1300
sg877
I0
ssI6
(dp883
g873
I2
sg874
I5
sg875
I5
sg876
I1300
sg877
I0
ssI7
(dp884
g873
I2
sg874
I5
sg875
I5
sg876
I1300
sg877
I0
ssI8
(dp885
g873
I2
sg874
I5
sg875
I5
sg876
I1300
sg877
I0
ssI9
(dp886
g873
I2
sg874
I5
sg875
I5
sg876
I1300
sg877
I0
sssI4
(dp887
I0
(dp888
S'Learning Rate'
p889
I2
sS'Num season factors'
p890
I5
sS'Num home factors'
p891
I5
sS'Iterations'
p892
I1300
sS'Lambda'
p893
I0
ssI1
(dp894
g889
I2
sg890
I5
sg891
I5
sg892
I1300
sg893
I0
ssI2
(dp895
g889
I2
sg890
I5
sg891
I5
sg892
I1300
sg893
I0
ssI3
(dp896
g889
I2
sg890
I5
sg891
I5
sg892
I1300
sg893
I0
ssI4
(dp897
g889
I2
sg890
I5
sg891
I5
sg892
I1300
sg893
I0
ssI5
(dp898
g889
I2
sg890
I5
sg891
I5
sg892
I1300
sg893
I0
ssI6
(dp899
g889
I2
sg890
I5
sg891
I5
sg892
I1300
sg893
I0
ssI7
(dp900
g889
I2
sg890
I5
sg891
I5
sg892
I1300
sg893
I0
ssI8
(dp901
g889
I2
sg890
I5
sg891
I5
sg892
I1300
sg893
I0
ssI9
(dp902
g889
I2
sg890
I5
sg891
I5
sg892
I1300
sg893
I0
sssI5
(dp903
I0
(dp904
S'Learning Rate'
p905
I2
sS'Num season factors'
p906
I5
sS'Num home factors'
p907
I5
sS'Iterations'
p908
I1300
sS'Lambda'
p909
I0
ssI1
(dp910
g905
I2
sg906
I5
sg907
I5
sg908
I1300
sg909
I0
ssI2
(dp911
g905
I2
sg906
I5
sg907
I5
sg908
I1300
sg909
I0
ssI3
(dp912
g905
I2
sg906
I5
sg907
I5
sg908
I1300
sg909
I0
ssI4
(dp913
g905
I2
sg906
I5
sg907
I5
sg908
I1300
sg909
I0
ssI5
(dp914
g905
I2
sg906
I5
sg907
I5
sg908
I1300
sg909
I0
ssI6
(dp915
g905
I2
sg906
I5
sg907
I5
sg908
I1300
sg909
I0
ssI7
(dp916
g905
I2
sg906
I5
sg907
I5
sg908
I1300
sg909
I0
ssI8
(dp917
g905
I2
sg906
I5
sg907
I5
sg908
I1300
sg909
I0
ssI9
(dp918
g905
I2
sg906
I5
sg907
I5
sg908
I1300
sg909
I0
sssI6
(dp919
I0
(dp920
S'Learning Rate'
p921
I2
sS'Num season factors'
p922
I5
sS'Num home factors'
p923
I5
sS'Iterations'
p924
I1300
sS'Lambda'
p925
I0
ssI1
(dp926
g921
I2
sg922
I5
sg923
I5
sg924
I1300
sg925
I0
ssI2
(dp927
g921
I2
sg922
I5
sg923
I5
sg924
I1300
sg925
I0
ssI3
(dp928
g921
I2
sg922
I5
sg923
I5
sg924
I1300
sg925
I0
ssI4
(dp929
g921
I2
sg922
I5
sg923
I5
sg924
I1300
sg925
I0
ssI5
(dp930
g921
I2
sg922
I5
sg923
I5
sg924
I1300
sg925
I0
ssI6
(dp931
g921
I2
sg922
I5
sg923
I5
sg924
I1300
sg925
I0
ssI7
(dp932
g921
I2
sg922
I5
sg923
I5
sg924
I1300
sg925
I0
ssI8
(dp933
g921
I2
sg922
I5
sg923
I5
sg924
I1300
sg925
I0
ssI9
(dp934
g921
I2
sg922
I5
sg923
I5
sg924
I1300
sg925
I0
sssI7
(dp935
I0
(dp936
S'Learning Rate'
p937
I2
sS'Num season factors'
p938
I5
sS'Num home factors'
p939
I5
sS'Iterations'
p940
I1300
sS'Lambda'
p941
I0
ssI1
(dp942
g937
I2
sg938
I5
sg939
I5
sg940
I1300
sg941
I0
ssI2
(dp943
g937
I2
sg938
I5
sg939
I5
sg940
I1300
sg941
I0
ssI3
(dp944
g937
I2
sg938
I5
sg939
I5
sg940
I1300
sg941
I0
ssI4
(dp945
g937
I2
sg938
I5
sg939
I5
sg940
I1300
sg941
I0
ssI5
(dp946
g937
I2
sg938
I5
sg939
I5
sg940
I1300
sg941
I0
ssI6
(dp947
g937
I2
sg938
I5
sg939
I5
sg940
I1300
sg941
I0
ssI7
(dp948
g937
I2
sg938
I5
sg939
I5
sg940
I1300
sg941
I0
ssI8
(dp949
g937
I2
sg938
I5
sg939
I5
sg940
I1300
sg941
I0
ssI9
(dp950
g937
I2
sg938
I5
sg939
I5
sg940
I1300
sg941
I0
sssI8
(dp951
I0
(dp952
S'Learning Rate'
p953
I2
sS'Num season factors'
p954
I5
sS'Num home factors'
p955
I5
sS'Iterations'
p956
I1300
sS'Lambda'
p957
I0
ssI1
(dp958
g953
I2
sg954
I5
sg955
I5
sg956
I1300
sg957
I0
ssI2
(dp959
g953
I2
sg954
I5
sg955
I5
sg956
I1300
sg957
I0
ssI3
(dp960
g953
I2
sg954
I5
sg955
I5
sg956
I1300
sg957
I0
ssI4
(dp961
g953
I2
sg954
I5
sg955
I5
sg956
I1300
sg957
I0
ssI5
(dp962
g953
I2
sg954
I5
sg955
I5
sg956
I1300
sg957
I0
ssI6
(dp963
g953
I2
sg954
I5
sg955
I5
sg956
I1300
sg957
I0
ssI7
(dp964
g953
I2
sg954
I5
sg955
I5
sg956
I1300
sg957
I0
ssI8
(dp965
g953
I2
sg954
I5
sg955
I5
sg956
I1300
sg957
I0
ssI9
(dp966
g953
I2
sg954
I5
sg955
I5
sg956
I1300
sg957
I0
sssI9
(dp967
I0
(dp968
S'Learning Rate'
p969
I2
sS'Num season factors'
p970
I5
sS'Num home factors'
p971
I5
sS'Iterations'
p972
I1300
sS'Lambda'
p973
I0
ssI1
(dp974
g969
I2
sg970
I5
sg971
I5
sg972
I1300
sg973
I0
ssI2
(dp975
g969
I2
sg970
I5
sg971
I5
sg972
I1300
sg973
I0
ssI3
(dp976
g969
I2
sg970
I5
sg971
I5
sg972
I1300
sg973
I0
ssI4
(dp977
g969
I2
sg970
I5
sg971
I5
sg972
I1300
sg973
I0
ssI5
(dp978
g969
I2
sg970
I5
sg971
I5
sg972
I1300
sg973
I0
ssI6
(dp979
g969
I2
sg970
I5
sg971
I5
sg972
I1300
sg973
I0
ssI7
(dp980
g969
I2
sg970
I5
sg971
I5
sg972
I1300
sg973
I0
ssI8
(dp981
g969
I2
sg970
I5
sg971
I5
sg972
I1300
sg973
I0
ssI9
(dp982
g969
I2
sg970
I5
sg971
I5
sg972
I1300
sg973
I0
ssssssg331
(dp983
g5
(dp984
F0.0
(dp985
I0
(dp986
I0
(dp987
S'Learning Rate'
p988
I2
sS'Num season factors'
p989
I5
sS'Num home factors'
p990
I5
sS'Iterations'
p991
I1300
sS'Lambda'
p992
I0
ssI1
(dp993
g988
I2
sg989
I5
sg990
I5
sg991
I1300
sg992
I0
ssI2
(dp994
g988
I2
sg989
I5
sg990
I5
sg991
I1300
sg992
I0
ssI3
(dp995
g988
I2
sg989
I5
sg990
I5
sg991
I1300
sg992
I0
ssI4
(dp996
g988
I2
sg989
I5
sg990
I5
sg991
I1300
sg992
I0
ssI5
(dp997
g988
I2
sg989
I5
sg990
I5
sg991
I1300
sg992
I0
ssI6
(dp998
g988
I2
sg989
I5
sg990
I5
sg991
I1300
sg992
I0
ssI7
(dp999
g988
I2
sg989
I5
sg990
I5
sg991
I1300
sg992
I0
ssI8
(dp1000
g988
I2
sg989
I5
sg990
I5
sg991
I1300
sg992
I0
ssI9
(dp1001
g988
I2
sg989
I5
sg990
I5
sg991
I1300
sg992
I0
sssI1
(dp1002
I0
(dp1003
S'Learning Rate'
p1004
I2
sS'Num season factors'
p1005
I5
sS'Num home factors'
p1006
I5
sS'Iterations'
p1007
I1300
sS'Lambda'
p1008
I0
ssI1
(dp1009
g1004
I2
sg1005
I5
sg1006
I5
sg1007
I1300
sg1008
I0
ssI2
(dp1010
g1004
I2
sg1005
I5
sg1006
I5
sg1007
I1300
sg1008
I0
ssI3
(dp1011
g1004
I2
sg1005
I5
sg1006
I5
sg1007
I1300
sg1008
I0
ssI4
(dp1012
g1004
I2
sg1005
I5
sg1006
I5
sg1007
I1300
sg1008
I0
ssI5
(dp1013
g1004
I2
sg1005
I5
sg1006
I5
sg1007
I1300
sg1008
I0
ssI6
(dp1014
g1004
I2
sg1005
I5
sg1006
I5
sg1007
I1300
sg1008
I0
ssI7
(dp1015
g1004
I2
sg1005
I5
sg1006
I5
sg1007
I1300
sg1008
I0
ssI8
(dp1016
g1004
I2
sg1005
I5
sg1006
I5
sg1007
I1300
sg1008
I0
ssI9
(dp1017
g1004
I2
sg1005
I5
sg1006
I5
sg1007
I1300
sg1008
I0
sssI2
(dp1018
I0
(dp1019
S'Learning Rate'
p1020
I2
sS'Num season factors'
p1021
I5
sS'Num home factors'
p1022
I5
sS'Iterations'
p1023
I1300
sS'Lambda'
p1024
I0
ssI1
(dp1025
g1020
I2
sg1021
I5
sg1022
I5
sg1023
I1300
sg1024
I0
ssI2
(dp1026
g1020
I2
sg1021
I5
sg1022
I5
sg1023
I1300
sg1024
I0
ssI3
(dp1027
g1020
I2
sg1021
I5
sg1022
I5
sg1023
I1300
sg1024
I0
ssI4
(dp1028
g1020
I2
sg1021
I5
sg1022
I5
sg1023
I1300
sg1024
I0
ssI5
(dp1029
g1020
I2
sg1021
I5
sg1022
I5
sg1023
I1300
sg1024
I0
ssI6
(dp1030
g1020
I2
sg1021
I5
sg1022
I5
sg1023
I1300
sg1024
I0
ssI7
(dp1031
g1020
I2
sg1021
I5
sg1022
I5
sg1023
I1300
sg1024
I0
ssI8
(dp1032
g1020
I2
sg1021
I5
sg1022
I5
sg1023
I1300
sg1024
I0
ssI9
(dp1033
g1020
I2
sg1021
I5
sg1022
I5
sg1023
I1300
sg1024
I0
sssI3
(dp1034
I0
(dp1035
S'Learning Rate'
p1036
I2
sS'Num season factors'
p1037
I5
sS'Num home factors'
p1038
I5
sS'Iterations'
p1039
I1300
sS'Lambda'
p1040
I0
ssI1
(dp1041
g1036
I2
sg1037
I5
sg1038
I5
sg1039
I1300
sg1040
I0
ssI2
(dp1042
g1036
I2
sg1037
I5
sg1038
I5
sg1039
I1300
sg1040
I0
ssI3
(dp1043
g1036
I2
sg1037
I5
sg1038
I5
sg1039
I1300
sg1040
I0
ssI4
(dp1044
g1036
I2
sg1037
I5
sg1038
I5
sg1039
I1300
sg1040
I0
ssI5
(dp1045
g1036
I2
sg1037
I5
sg1038
I5
sg1039
I1300
sg1040
I0
ssI6
(dp1046
g1036
I2
sg1037
I5
sg1038
I5
sg1039
I1300
sg1040
I0
ssI7
(dp1047
g1036
I2
sg1037
I5
sg1038
I5
sg1039
I1300
sg1040
I0
ssI8
(dp1048
g1036
I2
sg1037
I5
sg1038
I5
sg1039
I1300
sg1040
I0
ssI9
(dp1049
g1036
I2
sg1037
I5
sg1038
I5
sg1039
I1300
sg1040
I0
sssI4
(dp1050
I0
(dp1051
S'Learning Rate'
p1052
I2
sS'Num season factors'
p1053
I5
sS'Num home factors'
p1054
I5
sS'Iterations'
p1055
I1300
sS'Lambda'
p1056
I0
ssI1
(dp1057
g1052
I2
sg1053
I5
sg1054
I5
sg1055
I1300
sg1056
I0
ssI2
(dp1058
g1052
I2
sg1053
I5
sg1054
I5
sg1055
I1300
sg1056
I0
ssI3
(dp1059
g1052
I2
sg1053
I5
sg1054
I5
sg1055
I1300
sg1056
I0
ssI4
(dp1060
g1052
I2
sg1053
I5
sg1054
I5
sg1055
I1300
sg1056
I0
ssI5
(dp1061
g1052
I2
sg1053
I5
sg1054
I5
sg1055
I1300
sg1056
I0
ssI6
(dp1062
g1052
I2
sg1053
I5
sg1054
I5
sg1055
I1300
sg1056
I0
ssI7
(dp1063
g1052
I2
sg1053
I5
sg1054
I5
sg1055
I1300
sg1056
I0
ssI8
(dp1064
g1052
I2
sg1053
I5
sg1054
I5
sg1055
I1300
sg1056
I0
ssI9
(dp1065
g1052
I2
sg1053
I5
sg1054
I5
sg1055
I1300
sg1056
I0
sssI5
(dp1066
I0
(dp1067
S'Learning Rate'
p1068
I2
sS'Num season factors'
p1069
I5
sS'Num home factors'
p1070
I5
sS'Iterations'
p1071
I1300
sS'Lambda'
p1072
I0
ssI1
(dp1073
g1068
I2
sg1069
I5
sg1070
I5
sg1071
I1300
sg1072
I0
ssI2
(dp1074
g1068
I2
sg1069
I5
sg1070
I5
sg1071
I1300
sg1072
I0
ssI3
(dp1075
g1068
I2
sg1069
I5
sg1070
I5
sg1071
I1300
sg1072
I0
ssI4
(dp1076
g1068
I2
sg1069
I5
sg1070
I5
sg1071
I1300
sg1072
I0
ssI5
(dp1077
g1068
I2
sg1069
I5
sg1070
I5
sg1071
I1300
sg1072
I0
ssI6
(dp1078
g1068
I2
sg1069
I5
sg1070
I5
sg1071
I1300
sg1072
I0
ssI7
(dp1079
g1068
I2
sg1069
I5
sg1070
I5
sg1071
I1300
sg1072
I0
ssI8
(dp1080
g1068
I2
sg1069
I5
sg1070
I5
sg1071
I1300
sg1072
I0
ssI9
(dp1081
g1068
I2
sg1069
I5
sg1070
I5
sg1071
I1300
sg1072
I0
sssI6
(dp1082
I0
(dp1083
S'Learning Rate'
p1084
I2
sS'Num season factors'
p1085
I5
sS'Num home factors'
p1086
I5
sS'Iterations'
p1087
I1300
sS'Lambda'
p1088
I0
ssI1
(dp1089
g1084
I2
sg1085
I5
sg1086
I5
sg1087
I1300
sg1088
I0
ssI2
(dp1090
g1084
I2
sg1085
I5
sg1086
I5
sg1087
I1300
sg1088
I0
ssI3
(dp1091
g1084
I2
sg1085
I5
sg1086
I5
sg1087
I1300
sg1088
I0
ssI4
(dp1092
g1084
I2
sg1085
I5
sg1086
I5
sg1087
I1300
sg1088
I0
ssI5
(dp1093
g1084
I2
sg1085
I5
sg1086
I5
sg1087
I1300
sg1088
I0
ssI6
(dp1094
g1084
I2
sg1085
I5
sg1086
I5
sg1087
I1300
sg1088
I0
ssI7
(dp1095
g1084
I2
sg1085
I5
sg1086
I5
sg1087
I1300
sg1088
I0
ssI8
(dp1096
g1084
I2
sg1085
I5
sg1086
I5
sg1087
I1300
sg1088
I0
ssI9
(dp1097
g1084
I2
sg1085
I5
sg1086
I5
sg1087
I1300
sg1088
I0
sssI7
(dp1098
I0
(dp1099
S'Learning Rate'
p1100
I2
sS'Num season factors'
p1101
I5
sS'Num home factors'
p1102
I5
sS'Iterations'
p1103
I1300
sS'Lambda'
p1104
I0
ssI1
(dp1105
g1100
I2
sg1101
I5
sg1102
I5
sg1103
I1300
sg1104
I0
ssI2
(dp1106
g1100
I2
sg1101
I5
sg1102
I5
sg1103
I1300
sg1104
I0
ssI3
(dp1107
g1100
I2
sg1101
I5
sg1102
I5
sg1103
I1300
sg1104
I0
ssI4
(dp1108
g1100
I2
sg1101
I5
sg1102
I5
sg1103
I1300
sg1104
I0
ssI5
(dp1109
g1100
I2
sg1101
I5
sg1102
I5
sg1103
I1300
sg1104
I0
ssI6
(dp1110
g1100
I2
sg1101
I5
sg1102
I5
sg1103
I1300
sg1104
I0
ssI7
(dp1111
g1100
I2
sg1101
I5
sg1102
I5
sg1103
I1300
sg1104
I0
ssI8
(dp1112
g1100
I2
sg1101
I5
sg1102
I5
sg1103
I1300
sg1104
I0
ssI9
(dp1113
g1100
I2
sg1101
I5
sg1102
I5
sg1103
I1300
sg1104
I0
sssI8
(dp1114
I0
(dp1115
S'Learning Rate'
p1116
I2
sS'Num season factors'
p1117
I5
sS'Num home factors'
p1118
I5
sS'Iterations'
p1119
I1300
sS'Lambda'
p1120
I0
ssI1
(dp1121
g1116
I2
sg1117
I5
sg1118
I5
sg1119
I1300
sg1120
I0
ssI2
(dp1122
g1116
I2
sg1117
I5
sg1118
I5
sg1119
I1300
sg1120
I0
ssI3
(dp1123
g1116
I2
sg1117
I5
sg1118
I5
sg1119
I1300
sg1120
I0
ssI4
(dp1124
g1116
I2
sg1117
I5
sg1118
I5
sg1119
I1300
sg1120
I0
ssI5
(dp1125
g1116
I2
sg1117
I5
sg1118
I5
sg1119
I1300
sg1120
I0
ssI6
(dp1126
g1116
I2
sg1117
I5
sg1118
I5
sg1119
I1300
sg1120
I0
ssI7
(dp1127
g1116
I2
sg1117
I5
sg1118
I5
sg1119
I1300
sg1120
I0
ssI8
(dp1128
g1116
I2
sg1117
I5
sg1118
I5
sg1119
I1300
sg1120
I0
ssI9
(dp1129
g1116
I2
sg1117
I5
sg1118
I5
sg1119
I1300
sg1120
I0
sssI9
(dp1130
I0
(dp1131
S'Learning Rate'
p1132
I2
sS'Num season factors'
p1133
I5
sS'Num home factors'
p1134
I5
sS'Iterations'
p1135
I1300
sS'Lambda'
p1136
I0
ssI1
(dp1137
g1132
I2
sg1133
I5
sg1134
I5
sg1135
I1300
sg1136
I0
ssI2
(dp1138
g1132
I2
sg1133
I5
sg1134
I5
sg1135
I1300
sg1136
I0
ssI3
(dp1139
g1132
I2
sg1133
I5
sg1134
I5
sg1135
I1300
sg1136
I0
ssI4
(dp1140
g1132
I2
sg1133
I5
sg1134
I5
sg1135
I1300
sg1136
I0
ssI5
(dp1141
g1132
I2
sg1133
I5
sg1134
I5
sg1135
I1300
sg1136
I0
ssI6
(dp1142
g1132
I2
sg1133
I5
sg1134
I5
sg1135
I1300
sg1136
I0
ssI7
(dp1143
g1132
I2
sg1133
I5
sg1134
I5
sg1135
I1300
sg1136
I0
ssI8
(dp1144
g1132
I2
sg1133
I5
sg1134
I5
sg1135
I1300
sg1136
I0
ssI9
(dp1145
g1132
I2
sg1133
I5
sg1134
I5
sg1135
I1300
sg1136
I0
sssssg168
(dp1146
F0.0
(dp1147
I0
(dp1148
I0
(dp1149
S'Learning Rate'
p1150
I2
sS'Num season factors'
p1151
I5
sS'Num home factors'
p1152
I5
sS'Iterations'
p1153
I1300
sS'Lambda'
p1154
I0
ssI1
(dp1155
g1150
I2
sg1151
I5
sg1152
I5
sg1153
I1300
sg1154
I0
ssI2
(dp1156
g1150
I2
sg1151
I5
sg1152
I5
sg1153
I1300
sg1154
I0
ssI3
(dp1157
g1150
I2
sg1151
I5
sg1152
I5
sg1153
I1300
sg1154
I0
ssI4
(dp1158
g1150
I2
sg1151
I5
sg1152
I5
sg1153
I1300
sg1154
I0
ssI5
(dp1159
g1150
I2
sg1151
I5
sg1152
I5
sg1153
I1300
sg1154
I0
ssI6
(dp1160
g1150
I2
sg1151
I5
sg1152
I5
sg1153
I1300
sg1154
I0
ssI7
(dp1161
g1150
I2
sg1151
I5
sg1152
I5
sg1153
I1300
sg1154
I0
ssI8
(dp1162
g1150
I2
sg1151
I5
sg1152
I5
sg1153
I1300
sg1154
I0
ssI9
(dp1163
g1150
I2
sg1151
I5
sg1152
I5
sg1153
I1300
sg1154
I0
sssI1
(dp1164
I0
(dp1165
S'Learning Rate'
p1166
I2
sS'Num season factors'
p1167
I5
sS'Num home factors'
p1168
I5
sS'Iterations'
p1169
I1300
sS'Lambda'
p1170
I0
ssI1
(dp1171
g1166
I2
sg1167
I5
sg1168
I5
sg1169
I1300
sg1170
I0
ssI2
(dp1172
g1166
I2
sg1167
I5
sg1168
I5
sg1169
I1300
sg1170
I0
ssI3
(dp1173
g1166
I2
sg1167
I5
sg1168
I5
sg1169
I1300
sg1170
I0
ssI4
(dp1174
g1166
I2
sg1167
I5
sg1168
I5
sg1169
I1300
sg1170
I0
ssI5
(dp1175
g1166
I2
sg1167
I5
sg1168
I5
sg1169
I1300
sg1170
I0
ssI6
(dp1176
g1166
I2
sg1167
I5
sg1168
I5
sg1169
I1300
sg1170
I0
ssI7
(dp1177
g1166
I2
sg1167
I5
sg1168
I5
sg1169
I1300
sg1170
I0
ssI8
(dp1178
g1166
I2
sg1167
I5
sg1168
I5
sg1169
I1300
sg1170
I0
ssI9
(dp1179
g1166
I2
sg1167
I5
sg1168
I5
sg1169
I1300
sg1170
I0
sssI2
(dp1180
I0
(dp1181
S'Learning Rate'
p1182
I2
sS'Num season factors'
p1183
I5
sS'Num home factors'
p1184
I5
sS'Iterations'
p1185
I1300
sS'Lambda'
p1186
I0
ssI1
(dp1187
g1182
I2
sg1183
I5
sg1184
I5
sg1185
I1300
sg1186
I0
ssI2
(dp1188
g1182
I2
sg1183
I5
sg1184
I5
sg1185
I1300
sg1186
I0
ssI3
(dp1189
g1182
I2
sg1183
I5
sg1184
I5
sg1185
I1300
sg1186
I0
ssI4
(dp1190
g1182
I2
sg1183
I5
sg1184
I5
sg1185
I1300
sg1186
I0
ssI5
(dp1191
g1182
I2
sg1183
I5
sg1184
I5
sg1185
I1300
sg1186
I0
ssI6
(dp1192
g1182
I2
sg1183
I5
sg1184
I5
sg1185
I1300
sg1186
I0
ssI7
(dp1193
g1182
I2
sg1183
I5
sg1184
I5
sg1185
I1300
sg1186
I0
ssI8
(dp1194
g1182
I2
sg1183
I5
sg1184
I5
sg1185
I1300
sg1186
I0
ssI9
(dp1195
g1182
I2
sg1183
I5
sg1184
I5
sg1185
I1300
sg1186
I0
sssI3
(dp1196
I0
(dp1197
S'Learning Rate'
p1198
I2
sS'Num season factors'
p1199
I5
sS'Num home factors'
p1200
I5
sS'Iterations'
p1201
I1300
sS'Lambda'
p1202
I0
ssI1
(dp1203
g1198
I2
sg1199
I5
sg1200
I5
sg1201
I1300
sg1202
I0
ssI2
(dp1204
g1198
I2
sg1199
I5
sg1200
I5
sg1201
I1300
sg1202
I0
ssI3
(dp1205
g1198
I2
sg1199
I5
sg1200
I5
sg1201
I1300
sg1202
I0
ssI4
(dp1206
g1198
I2
sg1199
I5
sg1200
I5
sg1201
I1300
sg1202
I0
ssI5
(dp1207
g1198
I2
sg1199
I5
sg1200
I5
sg1201
I1300
sg1202
I0
ssI6
(dp1208
g1198
I2
sg1199
I5
sg1200
I5
sg1201
I1300
sg1202
I0
ssI7
(dp1209
g1198
I2
sg1199
I5
sg1200
I5
sg1201
I1300
sg1202
I0
ssI8
(dp1210
g1198
I2
sg1199
I5
sg1200
I5
sg1201
I1300
sg1202
I0
ssI9
(dp1211
g1198
I2
sg1199
I5
sg1200
I5
sg1201
I1300
sg1202
I0
sssI4
(dp1212
I0
(dp1213
S'Learning Rate'
p1214
I2
sS'Num season factors'
p1215
I5
sS'Num home factors'
p1216
I5
sS'Iterations'
p1217
I1300
sS'Lambda'
p1218
I0
ssI1
(dp1219
g1214
I2
sg1215
I5
sg1216
I5
sg1217
I1300
sg1218
I0
ssI2
(dp1220
g1214
I2
sg1215
I5
sg1216
I5
sg1217
I1300
sg1218
I0
ssI3
(dp1221
g1214
I2
sg1215
I5
sg1216
I5
sg1217
I1300
sg1218
I0
ssI4
(dp1222
g1214
I2
sg1215
I5
sg1216
I5
sg1217
I1300
sg1218
I0
ssI5
(dp1223
g1214
I2
sg1215
I5
sg1216
I5
sg1217
I1300
sg1218
I0
ssI6
(dp1224
g1214
I2
sg1215
I5
sg1216
I5
sg1217
I1300
sg1218
I0
ssI7
(dp1225
g1214
I2
sg1215
I5
sg1216
I5
sg1217
I1300
sg1218
I0
ssI8
(dp1226
g1214
I2
sg1215
I5
sg1216
I5
sg1217
I1300
sg1218
I0
ssI9
(dp1227
g1214
I2
sg1215
I5
sg1216
I5
sg1217
I1300
sg1218
I0
sssI5
(dp1228
I0
(dp1229
S'Learning Rate'
p1230
I2
sS'Num season factors'
p1231
I5
sS'Num home factors'
p1232
I5
sS'Iterations'
p1233
I1300
sS'Lambda'
p1234
I0
ssI1
(dp1235
g1230
I2
sg1231
I5
sg1232
I5
sg1233
I1300
sg1234
I0
ssI2
(dp1236
g1230
I2
sg1231
I5
sg1232
I5
sg1233
I1300
sg1234
I0
ssI3
(dp1237
g1230
I2
sg1231
I5
sg1232
I5
sg1233
I1300
sg1234
I0
ssI4
(dp1238
g1230
I2
sg1231
I5
sg1232
I5
sg1233
I1300
sg1234
I0
ssI5
(dp1239
g1230
I2
sg1231
I5
sg1232
I5
sg1233
I1300
sg1234
I0
ssI6
(dp1240
g1230
I2
sg1231
I5
sg1232
I5
sg1233
I1300
sg1234
I0
ssI7
(dp1241
g1230
I2
sg1231
I5
sg1232
I5
sg1233
I1300
sg1234
I0
ssI8
(dp1242
g1230
I2
sg1231
I5
sg1232
I5
sg1233
I1300
sg1234
I0
ssI9
(dp1243
g1230
I2
sg1231
I5
sg1232
I5
sg1233
I1300
sg1234
I0
sssI6
(dp1244
I0
(dp1245
S'Learning Rate'
p1246
I2
sS'Num season factors'
p1247
I5
sS'Num home factors'
p1248
I5
sS'Iterations'
p1249
I1300
sS'Lambda'
p1250
I0
ssI1
(dp1251
g1246
I2
sg1247
I5
sg1248
I5
sg1249
I1300
sg1250
I0
ssI2
(dp1252
g1246
I2
sg1247
I5
sg1248
I5
sg1249
I1300
sg1250
I0
ssI3
(dp1253
g1246
I2
sg1247
I5
sg1248
I5
sg1249
I1300
sg1250
I0
ssI4
(dp1254
g1246
I2
sg1247
I5
sg1248
I5
sg1249
I1300
sg1250
I0
ssI5
(dp1255
g1246
I2
sg1247
I5
sg1248
I5
sg1249
I1300
sg1250
I0
ssI6
(dp1256
g1246
I2
sg1247
I5
sg1248
I5
sg1249
I1300
sg1250
I0
ssI7
(dp1257
g1246
I2
sg1247
I5
sg1248
I5
sg1249
I1300
sg1250
I0
ssI8
(dp1258
g1246
I2
sg1247
I5
sg1248
I5
sg1249
I1300
sg1250
I0
ssI9
(dp1259
g1246
I2
sg1247
I5
sg1248
I5
sg1249
I1300
sg1250
I0
sssI7
(dp1260
I0
(dp1261
S'Learning Rate'
p1262
I2
sS'Num season factors'
p1263
I5
sS'Num home factors'
p1264
I5
sS'Iterations'
p1265
I1300
sS'Lambda'
p1266
I0
ssI1
(dp1267
g1262
I2
sg1263
I5
sg1264
I5
sg1265
I1300
sg1266
I0
ssI2
(dp1268
g1262
I2
sg1263
I5
sg1264
I5
sg1265
I1300
sg1266
I0
ssI3
(dp1269
g1262
I2
sg1263
I5
sg1264
I5
sg1265
I1300
sg1266
I0
ssI4
(dp1270
g1262
I2
sg1263
I5
sg1264
I5
sg1265
I1300
sg1266
I0
ssI5
(dp1271
g1262
I2
sg1263
I5
sg1264
I5
sg1265
I1300
sg1266
I0
ssI6
(dp1272
g1262
I2
sg1263
I5
sg1264
I5
sg1265
I1300
sg1266
I0
ssI7
(dp1273
g1262
I2
sg1263
I5
sg1264
I5
sg1265
I1300
sg1266
I0
ssI8
(dp1274
g1262
I2
sg1263
I5
sg1264
I5
sg1265
I1300
sg1266
I0
ssI9
(dp1275
g1262
I2
sg1263
I5
sg1264
I5
sg1265
I1300
sg1266
I0
sssI8
(dp1276
I0
(dp1277
S'Learning Rate'
p1278
I2
sS'Num season factors'
p1279
I5
sS'Num home factors'
p1280
I5
sS'Iterations'
p1281
I1300
sS'Lambda'
p1282
I0
ssI1
(dp1283
g1278
I2
sg1279
I5
sg1280
I5
sg1281
I1300
sg1282
I0
ssI2
(dp1284
g1278
I2
sg1279
I5
sg1280
I5
sg1281
I1300
sg1282
I0
ssI3
(dp1285
g1278
I2
sg1279
I5
sg1280
I5
sg1281
I1300
sg1282
I0
ssI4
(dp1286
g1278
I2
sg1279
I5
sg1280
I5
sg1281
I1300
sg1282
I0
ssI5
(dp1287
g1278
I2
sg1279
I5
sg1280
I5
sg1281
I1300
sg1282
I0
ssI6
(dp1288
g1278
I2
sg1279
I5
sg1280
I5
sg1281
I1300
sg1282
I0
ssI7
(dp1289
g1278
I2
sg1279
I5
sg1280
I5
sg1281
I1300
sg1282
I0
ssI8
(dp1290
g1278
I2
sg1279
I5
sg1280
I5
sg1281
I1300
sg1282
I0
ssI9
(dp1291
g1278
I2
sg1279
I5
sg1280
I5
sg1281
I1300
sg1282
I0
sssI9
(dp1292
I0
(dp1293
S'Learning Rate'
p1294
I2
sS'Num season factors'
p1295
I5
sS'Num home factors'
p1296
I5
sS'Iterations'
p1297
I1300
sS'Lambda'
p1298
I0
ssI1
(dp1299
g1294
I2
sg1295
I5
sg1296
I5
sg1297
I1300
sg1298
I0
ssI2
(dp1300
g1294
I2
sg1295
I5
sg1296
I5
sg1297
I1300
sg1298
I0
ssI3
(dp1301
g1294
I2
sg1295
I5
sg1296
I5
sg1297
I1300
sg1298
I0
ssI4
(dp1302
g1294
I2
sg1295
I5
sg1296
I5
sg1297
I1300
sg1298
I0
ssI5
(dp1303
g1294
I2
sg1295
I5
sg1296
I5
sg1297
I1300
sg1298
I0
ssI6
(dp1304
g1294
I2
sg1295
I5
sg1296
I5
sg1297
I1300
sg1298
I0
ssI7
(dp1305
g1294
I2
sg1295
I5
sg1296
I5
sg1297
I1300
sg1298
I0
ssI8
(dp1306
g1294
I2
sg1295
I5
sg1296
I5
sg1297
I1300
sg1298
I0
ssI9
(dp1307
g1294
I2
sg1295
I5
sg1296
I5
sg1297
I1300
sg1298
I0
ssssssssI4
(dp1308
g2
(dp1309
g2
(dp1310
g5
(dp1311
F0.0
(dp1312
I0
(dp1313
I0
(dp1314
S'Learning Rate'
p1315
F0.5
sS'Num season factors'
p1316
I5
sS'Num home factors'
p1317
I5
sS'Iterations'
p1318
I1300
sS'Lambda'
p1319
I0
ssI1
(dp1320
g1315
F0.5
sg1316
I5
sg1317
I5
sg1318
I1300
sg1319
I0
ssI2
(dp1321
g1315
F0.5
sg1316
I5
sg1317
I5
sg1318
I1300
sg1319
I0
ssI3
(dp1322
g1315
F0.5
sg1316
I5
sg1317
I5
sg1318
I1300
sg1319
I0
ssI4
(dp1323
g1315
F0.5
sg1316
I5
sg1317
I5
sg1318
I1300
sg1319
I0
ssI5
(dp1324
g1315
F0.5
sg1316
I5
sg1317
I5
sg1318
I1300
sg1319
I0
ssI6
(dp1325
g1315
F0.5
sg1316
I5
sg1317
I5
sg1318
I1300
sg1319
I0
ssI7
(dp1326
g1315
F0.5
sg1316
I5
sg1317
I5
sg1318
I1300
sg1319
I0
ssI8
(dp1327
g1315
F0.5
sg1316
I5
sg1317
I5
sg1318
I1300
sg1319
I0
ssI9
(dp1328
g1315
F0.5
sg1316
I5
sg1317
I5
sg1318
I1300
sg1319
I0
sssI1
(dp1329
I0
(dp1330
S'Learning Rate'
p1331
F0.5
sS'Num season factors'
p1332
I5
sS'Num home factors'
p1333
I5
sS'Iterations'
p1334
I1300
sS'Lambda'
p1335
I0
ssI1
(dp1336
g1331
F0.5
sg1332
I5
sg1333
I5
sg1334
I1300
sg1335
I0
ssI2
(dp1337
g1331
F0.5
sg1332
I5
sg1333
I5
sg1334
I1300
sg1335
I0
ssI3
(dp1338
g1331
F0.5
sg1332
I5
sg1333
I5
sg1334
I1300
sg1335
I0
ssI4
(dp1339
g1331
F0.5
sg1332
I5
sg1333
I5
sg1334
I1300
sg1335
I0
ssI5
(dp1340
g1331
F0.5
sg1332
I5
sg1333
I5
sg1334
I1300
sg1335
I0
ssI6
(dp1341
g1331
F0.5
sg1332
I5
sg1333
I5
sg1334
I1300
sg1335
I0
ssI7
(dp1342
g1331
F0.5
sg1332
I5
sg1333
I5
sg1334
I1300
sg1335
I0
ssI8
(dp1343
g1331
F0.5
sg1332
I5
sg1333
I5
sg1334
I1300
sg1335
I0
ssI9
(dp1344
g1331
F0.5
sg1332
I5
sg1333
I5
sg1334
I1300
sg1335
I0
sssI2
(dp1345
I0
(dp1346
S'Learning Rate'
p1347
F0.5
sS'Num season factors'
p1348
I5
sS'Num home factors'
p1349
I5
sS'Iterations'
p1350
I1300
sS'Lambda'
p1351
I0
ssI1
(dp1352
g1347
F0.5
sg1348
I5
sg1349
I5
sg1350
I1300
sg1351
I0
ssI2
(dp1353
g1347
F0.5
sg1348
I5
sg1349
I5
sg1350
I1300
sg1351
I0
ssI3
(dp1354
g1347
F0.5
sg1348
I5
sg1349
I5
sg1350
I1300
sg1351
I0
ssI4
(dp1355
g1347
F0.5
sg1348
I5
sg1349
I5
sg1350
I1300
sg1351
I0
ssI5
(dp1356
g1347
F0.5
sg1348
I5
sg1349
I5
sg1350
I1300
sg1351
I0
ssI6
(dp1357
g1347
F0.5
sg1348
I5
sg1349
I5
sg1350
I1300
sg1351
I0
ssI7
(dp1358
g1347
F0.5
sg1348
I5
sg1349
I5
sg1350
I1300
sg1351
I0
ssI8
(dp1359
g1347
F0.5
sg1348
I5
sg1349
I5
sg1350
I1300
sg1351
I0
ssI9
(dp1360
g1347
F0.5
sg1348
I5
sg1349
I5
sg1350
I1300
sg1351
I0
sssI3
(dp1361
I0
(dp1362
S'Learning Rate'
p1363
F0.5
sS'Num season factors'
p1364
I5
sS'Num home factors'
p1365
I5
sS'Iterations'
p1366
I1300
sS'Lambda'
p1367
I0
ssI1
(dp1368
g1363
F0.5
sg1364
I5
sg1365
I5
sg1366
I1300
sg1367
I0
ssI2
(dp1369
g1363
F0.5
sg1364
I5
sg1365
I5
sg1366
I1300
sg1367
I0
ssI3
(dp1370
g1363
F0.5
sg1364
I5
sg1365
I5
sg1366
I1300
sg1367
I0
ssI4
(dp1371
g1363
F0.5
sg1364
I5
sg1365
I5
sg1366
I1300
sg1367
I0
ssI5
(dp1372
g1363
F0.5
sg1364
I5
sg1365
I5
sg1366
I1300
sg1367
I0
ssI6
(dp1373
g1363
F0.5
sg1364
I5
sg1365
I5
sg1366
I1300
sg1367
I0
ssI7
(dp1374
g1363
F0.5
sg1364
I5
sg1365
I5
sg1366
I1300
sg1367
I0
ssI8
(dp1375
g1363
F0.5
sg1364
I5
sg1365
I5
sg1366
I1300
sg1367
I0
ssI9
(dp1376
g1363
F0.5
sg1364
I5
sg1365
I5
sg1366
I1300
sg1367
I0
sssI4
(dp1377
I0
(dp1378
S'Learning Rate'
p1379
F0.5
sS'Num season factors'
p1380
I5
sS'Num home factors'
p1381
I5
sS'Iterations'
p1382
I1300
sS'Lambda'
p1383
I0
ssI1
(dp1384
g1379
F0.5
sg1380
I5
sg1381
I5
sg1382
I1300
sg1383
I0
ssI2
(dp1385
g1379
F0.5
sg1380
I5
sg1381
I5
sg1382
I1300
sg1383
I0
ssI3
(dp1386
g1379
F0.5
sg1380
I5
sg1381
I5
sg1382
I1300
sg1383
I0
ssI4
(dp1387
g1379
F0.5
sg1380
I5
sg1381
I5
sg1382
I1300
sg1383
I0
ssI5
(dp1388
g1379
F0.5
sg1380
I5
sg1381
I5
sg1382
I1300
sg1383
I0
ssI6
(dp1389
g1379
F0.5
sg1380
I5
sg1381
I5
sg1382
I1300
sg1383
I0
ssI7
(dp1390
g1379
F0.5
sg1380
I5
sg1381
I5
sg1382
I1300
sg1383
I0
ssI8
(dp1391
g1379
F0.5
sg1380
I5
sg1381
I5
sg1382
I1300
sg1383
I0
ssI9
(dp1392
g1379
F0.5
sg1380
I5
sg1381
I5
sg1382
I1300
sg1383
I0
sssI5
(dp1393
I0
(dp1394
S'Learning Rate'
p1395
F0.5
sS'Num season factors'
p1396
I5
sS'Num home factors'
p1397
I5
sS'Iterations'
p1398
I1300
sS'Lambda'
p1399
I0
ssI1
(dp1400
g1395
F0.5
sg1396
I5
sg1397
I5
sg1398
I1300
sg1399
I0
ssI2
(dp1401
g1395
F0.5
sg1396
I5
sg1397
I5
sg1398
I1300
sg1399
I0
ssI3
(dp1402
g1395
F0.5
sg1396
I5
sg1397
I5
sg1398
I1300
sg1399
I0
ssI4
(dp1403
g1395
F0.5
sg1396
I5
sg1397
I5
sg1398
I1300
sg1399
I0
ssI5
(dp1404
g1395
F0.5
sg1396
I5
sg1397
I5
sg1398
I1300
sg1399
I0
ssI6
(dp1405
g1395
F0.5
sg1396
I5
sg1397
I5
sg1398
I1300
sg1399
I0
ssI7
(dp1406
g1395
F0.5
sg1396
I5
sg1397
I5
sg1398
I1300
sg1399
I0
ssI8
(dp1407
g1395
F0.5
sg1396
I5
sg1397
I5
sg1398
I1300
sg1399
I0
ssI9
(dp1408
g1395
F0.5
sg1396
I5
sg1397
I5
sg1398
I1300
sg1399
I0
sssI6
(dp1409
I0
(dp1410
S'Learning Rate'
p1411
F0.5
sS'Num season factors'
p1412
I5
sS'Num home factors'
p1413
I5
sS'Iterations'
p1414
I1300
sS'Lambda'
p1415
I0
ssI1
(dp1416
g1411
F0.5
sg1412
I5
sg1413
I5
sg1414
I1300
sg1415
I0
ssI2
(dp1417
g1411
F0.5
sg1412
I5
sg1413
I5
sg1414
I1300
sg1415
I0
ssI3
(dp1418
g1411
F0.5
sg1412
I5
sg1413
I5
sg1414
I1300
sg1415
I0
ssI4
(dp1419
g1411
F0.5
sg1412
I5
sg1413
I5
sg1414
I1300
sg1415
I0
ssI5
(dp1420
g1411
F0.5
sg1412
I5
sg1413
I5
sg1414
I1300
sg1415
I0
ssI6
(dp1421
g1411
F0.5
sg1412
I5
sg1413
I5
sg1414
I1300
sg1415
I0
ssI7
(dp1422
g1411
F0.5
sg1412
I5
sg1413
I5
sg1414
I1300
sg1415
I0
ssI8
(dp1423
g1411
F0.5
sg1412
I5
sg1413
I5
sg1414
I1300
sg1415
I0
ssI9
(dp1424
g1411
F0.5
sg1412
I5
sg1413
I5
sg1414
I1300
sg1415
I0
sssI7
(dp1425
I0
(dp1426
S'Learning Rate'
p1427
F0.5
sS'Num season factors'
p1428
I5
sS'Num home factors'
p1429
I5
sS'Iterations'
p1430
I1300
sS'Lambda'
p1431
I0
ssI1
(dp1432
g1427
F0.5
sg1428
I5
sg1429
I5
sg1430
I1300
sg1431
I0
ssI2
(dp1433
g1427
F0.5
sg1428
I5
sg1429
I5
sg1430
I1300
sg1431
I0
ssI3
(dp1434
g1427
F0.5
sg1428
I5
sg1429
I5
sg1430
I1300
sg1431
I0
ssI4
(dp1435
g1427
F0.5
sg1428
I5
sg1429
I5
sg1430
I1300
sg1431
I0
ssI5
(dp1436
g1427
F0.5
sg1428
I5
sg1429
I5
sg1430
I1300
sg1431
I0
ssI6
(dp1437
g1427
F0.5
sg1428
I5
sg1429
I5
sg1430
I1300
sg1431
I0
ssI7
(dp1438
g1427
F0.5
sg1428
I5
sg1429
I5
sg1430
I1300
sg1431
I0
ssI8
(dp1439
g1427
F0.5
sg1428
I5
sg1429
I5
sg1430
I1300
sg1431
I0
ssI9
(dp1440
g1427
F0.5
sg1428
I5
sg1429
I5
sg1430
I1300
sg1431
I0
sssI8
(dp1441
I0
(dp1442
S'Learning Rate'
p1443
F0.5
sS'Num season factors'
p1444
I5
sS'Num home factors'
p1445
I5
sS'Iterations'
p1446
I1300
sS'Lambda'
p1447
I0
ssI1
(dp1448
g1443
F0.5
sg1444
I5
sg1445
I5
sg1446
I1300
sg1447
I0
ssI2
(dp1449
g1443
F0.5
sg1444
I5
sg1445
I5
sg1446
I1300
sg1447
I0
ssI3
(dp1450
g1443
F0.5
sg1444
I5
sg1445
I5
sg1446
I1300
sg1447
I0
ssI4
(dp1451
g1443
F0.5
sg1444
I5
sg1445
I5
sg1446
I1300
sg1447
I0
ssI5
(dp1452
g1443
F0.5
sg1444
I5
sg1445
I5
sg1446
I1300
sg1447
I0
ssI6
(dp1453
g1443
F0.5
sg1444
I5
sg1445
I5
sg1446
I1300
sg1447
I0
ssI7
(dp1454
g1443
F0.5
sg1444
I5
sg1445
I5
sg1446
I1300
sg1447
I0
ssI8
(dp1455
g1443
F0.5
sg1444
I5
sg1445
I5
sg1446
I1300
sg1447
I0
ssI9
(dp1456
g1443
F0.5
sg1444
I5
sg1445
I5
sg1446
I1300
sg1447
I0
sssI9
(dp1457
I0
(dp1458
S'Learning Rate'
p1459
F0.5
sS'Num season factors'
p1460
I5
sS'Num home factors'
p1461
I5
sS'Iterations'
p1462
I1300
sS'Lambda'
p1463
I0
ssI1
(dp1464
g1459
F0.5
sg1460
I5
sg1461
I5
sg1462
I1300
sg1463
I0
ssI2
(dp1465
g1459
F0.5
sg1460
I5
sg1461
I5
sg1462
I1300
sg1463
I0
ssI3
(dp1466
g1459
F0.5
sg1460
I5
sg1461
I5
sg1462
I1300
sg1463
I0
ssI4
(dp1467
g1459
F0.5
sg1460
I5
sg1461
I5
sg1462
I1300
sg1463
I0
ssI5
(dp1468
g1459
F0.5
sg1460
I5
sg1461
I5
sg1462
I1300
sg1463
I0
ssI6
(dp1469
g1459
F0.5
sg1460
I5
sg1461
I5
sg1462
I1300
sg1463
I0
ssI7
(dp1470
g1459
F0.5
sg1460
I5
sg1461
I5
sg1462
I1300
sg1463
I0
ssI8
(dp1471
g1459
F0.5
sg1460
I5
sg1461
I5
sg1462
I1300
sg1463
I0
ssI9
(dp1472
g1459
F0.5
sg1460
I5
sg1461
I5
sg1462
I1300
sg1463
I0
sssssg168
(dp1473
F0.0
(dp1474
I0
(dp1475
I0
(dp1476
S'Learning Rate'
p1477
F0.5
sS'Num season factors'
p1478
I5
sS'Num home factors'
p1479
I5
sS'Iterations'
p1480
I1300
sS'Lambda'
p1481
I0
ssI1
(dp1482
g1477
F0.5
sg1478
I5
sg1479
I5
sg1480
I1300
sg1481
I0
ssI2
(dp1483
g1477
F0.5
sg1478
I5
sg1479
I5
sg1480
I1300
sg1481
I0
ssI3
(dp1484
g1477
F0.5
sg1478
I5
sg1479
I5
sg1480
I1300
sg1481
I0
ssI4
(dp1485
g1477
F0.5
sg1478
I5
sg1479
I5
sg1480
I1300
sg1481
I0
ssI5
(dp1486
g1477
F0.5
sg1478
I5
sg1479
I5
sg1480
I1300
sg1481
I0
ssI6
(dp1487
g1477
F0.5
sg1478
I5
sg1479
I5
sg1480
I1300
sg1481
I0
ssI7
(dp1488
g1477
F0.5
sg1478
I5
sg1479
I5
sg1480
I1300
sg1481
I0
ssI8
(dp1489
g1477
F0.5
sg1478
I5
sg1479
I5
sg1480
I1300
sg1481
I0
ssI9
(dp1490
g1477
F0.5
sg1478
I5
sg1479
I5
sg1480
I1300
sg1481
I0
sssI1
(dp1491
I0
(dp1492
S'Learning Rate'
p1493
F0.5
sS'Num season factors'
p1494
I5
sS'Num home factors'
p1495
I5
sS'Iterations'
p1496
I1300
sS'Lambda'
p1497
I0
ssI1
(dp1498
g1493
F0.5
sg1494
I5
sg1495
I5
sg1496
I1300
sg1497
I0
ssI2
(dp1499
g1493
F0.5
sg1494
I5
sg1495
I5
sg1496
I1300
sg1497
I0
ssI3
(dp1500
g1493
F0.5
sg1494
I5
sg1495
I5
sg1496
I1300
sg1497
I0
ssI4
(dp1501
g1493
F0.5
sg1494
I5
sg1495
I5
sg1496
I1300
sg1497
I0
ssI5
(dp1502
g1493
F0.5
sg1494
I5
sg1495
I5
sg1496
I1300
sg1497
I0
ssI6
(dp1503
g1493
F0.5
sg1494
I5
sg1495
I5
sg1496
I1300
sg1497
I0
ssI7
(dp1504
g1493
F0.5
sg1494
I5
sg1495
I5
sg1496
I1300
sg1497
I0
ssI8
(dp1505
g1493
F0.5
sg1494
I5
sg1495
I5
sg1496
I1300
sg1497
I0
ssI9
(dp1506
g1493
F0.5
sg1494
I5
sg1495
I5
sg1496
I1300
sg1497
I0
sssI2
(dp1507
I0
(dp1508
S'Learning Rate'
p1509
F0.5
sS'Num season factors'
p1510
I5
sS'Num home factors'
p1511
I5
sS'Iterations'
p1512
I1300
sS'Lambda'
p1513
I0
ssI1
(dp1514
g1509
F0.5
sg1510
I5
sg1511
I5
sg1512
I1300
sg1513
I0
ssI2
(dp1515
g1509
F0.5
sg1510
I5
sg1511
I5
sg1512
I1300
sg1513
I0
ssI3
(dp1516
g1509
F0.5
sg1510
I5
sg1511
I5
sg1512
I1300
sg1513
I0
ssI4
(dp1517
g1509
F0.5
sg1510
I5
sg1511
I5
sg1512
I1300
sg1513
I0
ssI5
(dp1518
g1509
F0.5
sg1510
I5
sg1511
I5
sg1512
I1300
sg1513
I0
ssI6
(dp1519
g1509
F0.5
sg1510
I5
sg1511
I5
sg1512
I1300
sg1513
I0
ssI7
(dp1520
g1509
F0.5
sg1510
I5
sg1511
I5
sg1512
I1300
sg1513
I0
ssI8
(dp1521
g1509
F0.5
sg1510
I5
sg1511
I5
sg1512
I1300
sg1513
I0
ssI9
(dp1522
g1509
F0.5
sg1510
I5
sg1511
I5
sg1512
I1300
sg1513
I0
sssI3
(dp1523
I0
(dp1524
S'Learning Rate'
p1525
F0.5
sS'Num season factors'
p1526
I5
sS'Num home factors'
p1527
I5
sS'Iterations'
p1528
I1300
sS'Lambda'
p1529
I0
ssI1
(dp1530
g1525
F0.5
sg1526
I5
sg1527
I5
sg1528
I1300
sg1529
I0
ssI2
(dp1531
g1525
F0.5
sg1526
I5
sg1527
I5
sg1528
I1300
sg1529
I0
ssI3
(dp1532
g1525
F0.5
sg1526
I5
sg1527
I5
sg1528
I1300
sg1529
I0
ssI4
(dp1533
g1525
F0.5
sg1526
I5
sg1527
I5
sg1528
I1300
sg1529
I0
ssI5
(dp1534
g1525
F0.5
sg1526
I5
sg1527
I5
sg1528
I1300
sg1529
I0
ssI6
(dp1535
g1525
F0.5
sg1526
I5
sg1527
I5
sg1528
I1300
sg1529
I0
ssI7
(dp1536
g1525
F0.5
sg1526
I5
sg1527
I5
sg1528
I1300
sg1529
I0
ssI8
(dp1537
g1525
F0.5
sg1526
I5
sg1527
I5
sg1528
I1300
sg1529
I0
ssI9
(dp1538
g1525
F0.5
sg1526
I5
sg1527
I5
sg1528
I1300
sg1529
I0
sssI4
(dp1539
I0
(dp1540
S'Learning Rate'
p1541
F0.5
sS'Num season factors'
p1542
I5
sS'Num home factors'
p1543
I5
sS'Iterations'
p1544
I1300
sS'Lambda'
p1545
I0
ssI1
(dp1546
g1541
F0.5
sg1542
I5
sg1543
I5
sg1544
I1300
sg1545
I0
ssI2
(dp1547
g1541
F0.5
sg1542
I5
sg1543
I5
sg1544
I1300
sg1545
I0
ssI3
(dp1548
g1541
F0.5
sg1542
I5
sg1543
I5
sg1544
I1300
sg1545
I0
ssI4
(dp1549
g1541
F0.5
sg1542
I5
sg1543
I5
sg1544
I1300
sg1545
I0
ssI5
(dp1550
g1541
F0.5
sg1542
I5
sg1543
I5
sg1544
I1300
sg1545
I0
ssI6
(dp1551
g1541
F0.5
sg1542
I5
sg1543
I5
sg1544
I1300
sg1545
I0
ssI7
(dp1552
g1541
F0.5
sg1542
I5
sg1543
I5
sg1544
I1300
sg1545
I0
ssI8
(dp1553
g1541
F0.5
sg1542
I5
sg1543
I5
sg1544
I1300
sg1545
I0
ssI9
(dp1554
g1541
F0.5
sg1542
I5
sg1543
I5
sg1544
I1300
sg1545
I0
sssI5
(dp1555
I0
(dp1556
S'Learning Rate'
p1557
F0.5
sS'Num season factors'
p1558
I5
sS'Num home factors'
p1559
I5
sS'Iterations'
p1560
I1300
sS'Lambda'
p1561
I0
ssI1
(dp1562
g1557
F0.5
sg1558
I5
sg1559
I5
sg1560
I1300
sg1561
I0
ssI2
(dp1563
g1557
F0.5
sg1558
I5
sg1559
I5
sg1560
I1300
sg1561
I0
ssI3
(dp1564
g1557
F0.5
sg1558
I5
sg1559
I5
sg1560
I1300
sg1561
I0
ssI4
(dp1565
g1557
F0.5
sg1558
I5
sg1559
I5
sg1560
I1300
sg1561
I0
ssI5
(dp1566
g1557
F0.5
sg1558
I5
sg1559
I5
sg1560
I1300
sg1561
I0
ssI6
(dp1567
g1557
F0.5
sg1558
I5
sg1559
I5
sg1560
I1300
sg1561
I0
ssI7
(dp1568
g1557
F0.5
sg1558
I5
sg1559
I5
sg1560
I1300
sg1561
I0
ssI8
(dp1569
g1557
F0.5
sg1558
I5
sg1559
I5
sg1560
I1300
sg1561
I0
ssI9
(dp1570
g1557
F0.5
sg1558
I5
sg1559
I5
sg1560
I1300
sg1561
I0
sssI6
(dp1571
I0
(dp1572
S'Learning Rate'
p1573
F0.5
sS'Num season factors'
p1574
I5
sS'Num home factors'
p1575
I5
sS'Iterations'
p1576
I1300
sS'Lambda'
p1577
I0
ssI1
(dp1578
g1573
F0.5
sg1574
I5
sg1575
I5
sg1576
I1300
sg1577
I0
ssI2
(dp1579
g1573
F0.5
sg1574
I5
sg1575
I5
sg1576
I1300
sg1577
I0
ssI3
(dp1580
g1573
F0.5
sg1574
I5
sg1575
I5
sg1576
I1300
sg1577
I0
ssI4
(dp1581
g1573
F0.5
sg1574
I5
sg1575
I5
sg1576
I1300
sg1577
I0
ssI5
(dp1582
g1573
F0.5
sg1574
I5
sg1575
I5
sg1576
I1300
sg1577
I0
ssI6
(dp1583
g1573
F0.5
sg1574
I5
sg1575
I5
sg1576
I1300
sg1577
I0
ssI7
(dp1584
g1573
F0.5
sg1574
I5
sg1575
I5
sg1576
I1300
sg1577
I0
ssI8
(dp1585
g1573
F0.5
sg1574
I5
sg1575
I5
sg1576
I1300
sg1577
I0
ssI9
(dp1586
g1573
F0.5
sg1574
I5
sg1575
I5
sg1576
I1300
sg1577
I0
sssI7
(dp1587
I0
(dp1588
S'Learning Rate'
p1589
F0.5
sS'Num season factors'
p1590
I5
sS'Num home factors'
p1591
I5
sS'Iterations'
p1592
I1300
sS'Lambda'
p1593
I0
ssI1
(dp1594
g1589
F0.5
sg1590
I5
sg1591
I5
sg1592
I1300
sg1593
I0
ssI2
(dp1595
g1589
F0.5
sg1590
I5
sg1591
I5
sg1592
I1300
sg1593
I0
ssI3
(dp1596
g1589
F0.5
sg1590
I5
sg1591
I5
sg1592
I1300
sg1593
I0
ssI4
(dp1597
g1589
F0.5
sg1590
I5
sg1591
I5
sg1592
I1300
sg1593
I0
ssI5
(dp1598
g1589
F0.5
sg1590
I5
sg1591
I5
sg1592
I1300
sg1593
I0
ssI6
(dp1599
g1589
F0.5
sg1590
I5
sg1591
I5
sg1592
I1300
sg1593
I0
ssI7
(dp1600
g1589
F0.5
sg1590
I5
sg1591
I5
sg1592
I1300
sg1593
I0
ssI8
(dp1601
g1589
F0.5
sg1590
I5
sg1591
I5
sg1592
I1300
sg1593
I0
ssI9
(dp1602
g1589
F0.5
sg1590
I5
sg1591
I5
sg1592
I1300
sg1593
I0
sssI8
(dp1603
I0
(dp1604
S'Learning Rate'
p1605
F0.5
sS'Num season factors'
p1606
I5
sS'Num home factors'
p1607
I5
sS'Iterations'
p1608
I1300
sS'Lambda'
p1609
I0
ssI1
(dp1610
g1605
F0.5
sg1606
I5
sg1607
I5
sg1608
I1300
sg1609
I0
ssI2
(dp1611
g1605
F0.5
sg1606
I5
sg1607
I5
sg1608
I1300
sg1609
I0
ssI3
(dp1612
g1605
F0.5
sg1606
I5
sg1607
I5
sg1608
I1300
sg1609
I0
ssI4
(dp1613
g1605
F0.5
sg1606
I5
sg1607
I5
sg1608
I1300
sg1609
I0
ssI5
(dp1614
g1605
F0.5
sg1606
I5
sg1607
I5
sg1608
I1300
sg1609
I0
ssI6
(dp1615
g1605
F0.5
sg1606
I5
sg1607
I5
sg1608
I1300
sg1609
I0
ssI7
(dp1616
g1605
F0.5
sg1606
I5
sg1607
I5
sg1608
I1300
sg1609
I0
ssI8
(dp1617
g1605
F0.5
sg1606
I5
sg1607
I5
sg1608
I1300
sg1609
I0
ssI9
(dp1618
g1605
F0.5
sg1606
I5
sg1607
I5
sg1608
I1300
sg1609
I0
sssI9
(dp1619
I0
(dp1620
S'Learning Rate'
p1621
F0.5
sS'Num season factors'
p1622
I5
sS'Num home factors'
p1623
I5
sS'Iterations'
p1624
I1300
sS'Lambda'
p1625
I0
ssI1
(dp1626
g1621
F0.5
sg1622
I5
sg1623
I5
sg1624
I1300
sg1625
I0
ssI2
(dp1627
g1621
F0.5
sg1622
I5
sg1623
I5
sg1624
I1300
sg1625
I0
ssI3
(dp1628
g1621
F0.5
sg1622
I5
sg1623
I5
sg1624
I1300
sg1625
I0
ssI4
(dp1629
g1621
F0.5
sg1622
I5
sg1623
I5
sg1624
I1300
sg1625
I0
ssI5
(dp1630
g1621
F0.5
sg1622
I5
sg1623
I5
sg1624
I1300
sg1625
I0
ssI6
(dp1631
g1621
F0.5
sg1622
I5
sg1623
I5
sg1624
I1300
sg1625
I0
ssI7
(dp1632
g1621
F0.5
sg1622
I5
sg1623
I5
sg1624
I1300
sg1625
I0
ssI8
(dp1633
g1621
F0.5
sg1622
I5
sg1623
I5
sg1624
I1300
sg1625
I0
ssI9
(dp1634
g1621
F0.5
sg1622
I5
sg1623
I5
sg1624
I1300
sg1625
I0
ssssssg331
(dp1635
g5
(dp1636
F0.0
(dp1637
I0
(dp1638
I0
(dp1639
S'Learning Rate'
p1640
F0.5
sS'Num season factors'
p1641
I5
sS'Num home factors'
p1642
I5
sS'Iterations'
p1643
I1300
sS'Lambda'
p1644
I0
ssI1
(dp1645
g1640
F0.5
sg1641
I5
sg1642
I5
sg1643
I1300
sg1644
I0
ssI2
(dp1646
g1640
F0.5
sg1641
I5
sg1642
I5
sg1643
I1300
sg1644
I0
ssI3
(dp1647
g1640
F0.5
sg1641
I5
sg1642
I5
sg1643
I1300
sg1644
I0
ssI4
(dp1648
g1640
F0.5
sg1641
I5
sg1642
I5
sg1643
I1300
sg1644
I0
ssI5
(dp1649
g1640
F0.5
sg1641
I5
sg1642
I5
sg1643
I1300
sg1644
I0
ssI6
(dp1650
g1640
F0.5
sg1641
I5
sg1642
I5
sg1643
I1300
sg1644
I0
ssI7
(dp1651
g1640
F0.5
sg1641
I5
sg1642
I5
sg1643
I1300
sg1644
I0
ssI8
(dp1652
g1640
F0.5
sg1641
I5
sg1642
I5
sg1643
I1300
sg1644
I0
ssI9
(dp1653
g1640
F0.5
sg1641
I5
sg1642
I5
sg1643
I1300
sg1644
I0
sssI1
(dp1654
I0
(dp1655
S'Learning Rate'
p1656
F0.5
sS'Num season factors'
p1657
I5
sS'Num home factors'
p1658
I5
sS'Iterations'
p1659
I1300
sS'Lambda'
p1660
I0
ssI1
(dp1661
g1656
F0.5
sg1657
I5
sg1658
I5
sg1659
I1300
sg1660
I0
ssI2
(dp1662
g1656
F0.5
sg1657
I5
sg1658
I5
sg1659
I1300
sg1660
I0
ssI3
(dp1663
g1656
F0.5
sg1657
I5
sg1658
I5
sg1659
I1300
sg1660
I0
ssI4
(dp1664
g1656
F0.5
sg1657
I5
sg1658
I5
sg1659
I1300
sg1660
I0
ssI5
(dp1665
g1656
F0.5
sg1657
I5
sg1658
I5
sg1659
I1300
sg1660
I0
ssI6
(dp1666
g1656
F0.5
sg1657
I5
sg1658
I5
sg1659
I1300
sg1660
I0
ssI7
(dp1667
g1656
F0.5
sg1657
I5
sg1658
I5
sg1659
I1300
sg1660
I0
ssI8
(dp1668
g1656
F0.5
sg1657
I5
sg1658
I5
sg1659
I1300
sg1660
I0
ssI9
(dp1669
g1656
F0.5
sg1657
I5
sg1658
I5
sg1659
I1300
sg1660
I0
sssI2
(dp1670
I0
(dp1671
S'Learning Rate'
p1672
F0.5
sS'Num season factors'
p1673
I5
sS'Num home factors'
p1674
I5
sS'Iterations'
p1675
I1300
sS'Lambda'
p1676
I0
ssI1
(dp1677
g1672
F0.5
sg1673
I5
sg1674
I5
sg1675
I1300
sg1676
I0
ssI2
(dp1678
g1672
F0.5
sg1673
I5
sg1674
I5
sg1675
I1300
sg1676
I0
ssI3
(dp1679
g1672
F0.5
sg1673
I5
sg1674
I5
sg1675
I1300
sg1676
I0
ssI4
(dp1680
g1672
F0.5
sg1673
I5
sg1674
I5
sg1675
I1300
sg1676
I0
ssI5
(dp1681
g1672
F0.5
sg1673
I5
sg1674
I5
sg1675
I1300
sg1676
I0
ssI6
(dp1682
g1672
F0.5
sg1673
I5
sg1674
I5
sg1675
I1300
sg1676
I0
ssI7
(dp1683
g1672
F0.5
sg1673
I5
sg1674
I5
sg1675
I1300
sg1676
I0
ssI8
(dp1684
g1672
F0.5
sg1673
I5
sg1674
I5
sg1675
I1300
sg1676
I0
ssI9
(dp1685
g1672
F0.5
sg1673
I5
sg1674
I5
sg1675
I1300
sg1676
I0
sssI3
(dp1686
I0
(dp1687
S'Learning Rate'
p1688
F0.5
sS'Num season factors'
p1689
I5
sS'Num home factors'
p1690
I5
sS'Iterations'
p1691
I1300
sS'Lambda'
p1692
I0
ssI1
(dp1693
g1688
F0.5
sg1689
I5
sg1690
I5
sg1691
I1300
sg1692
I0
ssI2
(dp1694
g1688
F0.5
sg1689
I5
sg1690
I5
sg1691
I1300
sg1692
I0
ssI3
(dp1695
g1688
F0.5
sg1689
I5
sg1690
I5
sg1691
I1300
sg1692
I0
ssI4
(dp1696
g1688
F0.5
sg1689
I5
sg1690
I5
sg1691
I1300
sg1692
I0
ssI5
(dp1697
g1688
F0.5
sg1689
I5
sg1690
I5
sg1691
I1300
sg1692
I0
ssI6
(dp1698
g1688
F0.5
sg1689
I5
sg1690
I5
sg1691
I1300
sg1692
I0
ssI7
(dp1699
g1688
F0.5
sg1689
I5
sg1690
I5
sg1691
I1300
sg1692
I0
ssI8
(dp1700
g1688
F0.5
sg1689
I5
sg1690
I5
sg1691
I1300
sg1692
I0
ssI9
(dp1701
g1688
F0.5
sg1689
I5
sg1690
I5
sg1691
I1300
sg1692
I0
sssI4
(dp1702
I0
(dp1703
S'Learning Rate'
p1704
F0.5
sS'Num season factors'
p1705
I5
sS'Num home factors'
p1706
I5
sS'Iterations'
p1707
I1300
sS'Lambda'
p1708
I0
ssI1
(dp1709
g1704
F0.5
sg1705
I5
sg1706
I5
sg1707
I1300
sg1708
I0
ssI2
(dp1710
g1704
F0.5
sg1705
I5
sg1706
I5
sg1707
I1300
sg1708
I0
ssI3
(dp1711
g1704
F0.5
sg1705
I5
sg1706
I5
sg1707
I1300
sg1708
I0
ssI4
(dp1712
g1704
F0.5
sg1705
I5
sg1706
I5
sg1707
I1300
sg1708
I0
ssI5
(dp1713
g1704
F0.5
sg1705
I5
sg1706
I5
sg1707
I1300
sg1708
I0
ssI6
(dp1714
g1704
F0.5
sg1705
I5
sg1706
I5
sg1707
I1300
sg1708
I0
ssI7
(dp1715
g1704
F0.5
sg1705
I5
sg1706
I5
sg1707
I1300
sg1708
I0
ssI8
(dp1716
g1704
F0.5
sg1705
I5
sg1706
I5
sg1707
I1300
sg1708
I0
ssI9
(dp1717
g1704
F0.5
sg1705
I5
sg1706
I5
sg1707
I1300
sg1708
I0
sssI5
(dp1718
I0
(dp1719
S'Learning Rate'
p1720
F0.5
sS'Num season factors'
p1721
I5
sS'Num home factors'
p1722
I5
sS'Iterations'
p1723
I1300
sS'Lambda'
p1724
I0
ssI1
(dp1725
g1720
F0.5
sg1721
I5
sg1722
I5
sg1723
I1300
sg1724
I0
ssI2
(dp1726
g1720
F0.5
sg1721
I5
sg1722
I5
sg1723
I1300
sg1724
I0
ssI3
(dp1727
g1720
F0.5
sg1721
I5
sg1722
I5
sg1723
I1300
sg1724
I0
ssI4
(dp1728
g1720
F0.5
sg1721
I5
sg1722
I5
sg1723
I1300
sg1724
I0
ssI5
(dp1729
g1720
F0.5
sg1721
I5
sg1722
I5
sg1723
I1300
sg1724
I0
ssI6
(dp1730
g1720
F0.5
sg1721
I5
sg1722
I5
sg1723
I1300
sg1724
I0
ssI7
(dp1731
g1720
F0.5
sg1721
I5
sg1722
I5
sg1723
I1300
sg1724
I0
ssI8
(dp1732
g1720
F0.5
sg1721
I5
sg1722
I5
sg1723
I1300
sg1724
I0
ssI9
(dp1733
g1720
F0.5
sg1721
I5
sg1722
I5
sg1723
I1300
sg1724
I0
sssI6
(dp1734
I0
(dp1735
S'Learning Rate'
p1736
F0.5
sS'Num season factors'
p1737
I5
sS'Num home factors'
p1738
I5
sS'Iterations'
p1739
I1300
sS'Lambda'
p1740
I0
ssI1
(dp1741
g1736
F0.5
sg1737
I5
sg1738
I5
sg1739
I1300
sg1740
I0
ssI2
(dp1742
g1736
F0.5
sg1737
I5
sg1738
I5
sg1739
I1300
sg1740
I0
ssI3
(dp1743
g1736
F0.5
sg1737
I5
sg1738
I5
sg1739
I1300
sg1740
I0
ssI4
(dp1744
g1736
F0.5
sg1737
I5
sg1738
I5
sg1739
I1300
sg1740
I0
ssI5
(dp1745
g1736
F0.5
sg1737
I5
sg1738
I5
sg1739
I1300
sg1740
I0
ssI6
(dp1746
g1736
F0.5
sg1737
I5
sg1738
I5
sg1739
I1300
sg1740
I0
ssI7
(dp1747
g1736
F0.5
sg1737
I5
sg1738
I5
sg1739
I1300
sg1740
I0
ssI8
(dp1748
g1736
F0.5
sg1737
I5
sg1738
I5
sg1739
I1300
sg1740
I0
ssI9
(dp1749
g1736
F0.5
sg1737
I5
sg1738
I5
sg1739
I1300
sg1740
I0
sssI7
(dp1750
I0
(dp1751
S'Learning Rate'
p1752
F0.5
sS'Num season factors'
p1753
I5
sS'Num home factors'
p1754
I5
sS'Iterations'
p1755
I1300
sS'Lambda'
p1756
I0
ssI1
(dp1757
g1752
F0.5
sg1753
I5
sg1754
I5
sg1755
I1300
sg1756
I0
ssI2
(dp1758
g1752
F0.5
sg1753
I5
sg1754
I5
sg1755
I1300
sg1756
I0
ssI3
(dp1759
g1752
F0.5
sg1753
I5
sg1754
I5
sg1755
I1300
sg1756
I0
ssI4
(dp1760
g1752
F0.5
sg1753
I5
sg1754
I5
sg1755
I1300
sg1756
I0
ssI5
(dp1761
g1752
F0.5
sg1753
I5
sg1754
I5
sg1755
I1300
sg1756
I0
ssI6
(dp1762
g1752
F0.5
sg1753
I5
sg1754
I5
sg1755
I1300
sg1756
I0
ssI7
(dp1763
g1752
F0.5
sg1753
I5
sg1754
I5
sg1755
I1300
sg1756
I0
ssI8
(dp1764
g1752
F0.5
sg1753
I5
sg1754
I5
sg1755
I1300
sg1756
I0
ssI9
(dp1765
g1752
F0.5
sg1753
I5
sg1754
I5
sg1755
I1300
sg1756
I0
sssI8
(dp1766
I0
(dp1767
S'Learning Rate'
p1768
F0.5
sS'Num season factors'
p1769
I5
sS'Num home factors'
p1770
I5
sS'Iterations'
p1771
I1300
sS'Lambda'
p1772
I0
ssI1
(dp1773
g1768
F0.5
sg1769
I5
sg1770
I5
sg1771
I1300
sg1772
I0
ssI2
(dp1774
g1768
F0.5
sg1769
I5
sg1770
I5
sg1771
I1300
sg1772
I0
ssI3
(dp1775
g1768
F0.5
sg1769
I5
sg1770
I5
sg1771
I1300
sg1772
I0
ssI4
(dp1776
g1768
F0.5
sg1769
I5
sg1770
I5
sg1771
I1300
sg1772
I0
ssI5
(dp1777
g1768
F0.5
sg1769
I5
sg1770
I5
sg1771
I1300
sg1772
I0
ssI6
(dp1778
g1768
F0.5
sg1769
I5
sg1770
I5
sg1771
I1300
sg1772
I0
ssI7
(dp1779
g1768
F0.5
sg1769
I5
sg1770
I5
sg1771
I1300
sg1772
I0
ssI8
(dp1780
g1768
F0.5
sg1769
I5
sg1770
I5
sg1771
I1300
sg1772
I0
ssI9
(dp1781
g1768
F0.5
sg1769
I5
sg1770
I5
sg1771
I1300
sg1772
I0
sssI9
(dp1782
I0
(dp1783
S'Learning Rate'
p1784
F0.5
sS'Num season factors'
p1785
I5
sS'Num home factors'
p1786
I5
sS'Iterations'
p1787
I1300
sS'Lambda'
p1788
I0
ssI1
(dp1789
g1784
F0.5
sg1785
I5
sg1786
I5
sg1787
I1300
sg1788
I0
ssI2
(dp1790
g1784
F0.5
sg1785
I5
sg1786
I5
sg1787
I1300
sg1788
I0
ssI3
(dp1791
g1784
F0.5
sg1785
I5
sg1786
I5
sg1787
I1300
sg1788
I0
ssI4
(dp1792
g1784
F0.5
sg1785
I5
sg1786
I5
sg1787
I1300
sg1788
I0
ssI5
(dp1793
g1784
F0.5
sg1785
I5
sg1786
I5
sg1787
I1300
sg1788
I0
ssI6
(dp1794
g1784
F0.5
sg1785
I5
sg1786
I5
sg1787
I1300
sg1788
I0
ssI7
(dp1795
g1784
F0.5
sg1785
I5
sg1786
I5
sg1787
I1300
sg1788
I0
ssI8
(dp1796
g1784
F0.5
sg1785
I5
sg1786
I5
sg1787
I1300
sg1788
I0
ssI9
(dp1797
g1784
F0.5
sg1785
I5
sg1786
I5
sg1787
I1300
sg1788
I0
sssssg168
(dp1798
F0.0
(dp1799
I0
(dp1800
I0
(dp1801
S'Learning Rate'
p1802
F0.5
sS'Num season factors'
p1803
I5
sS'Num home factors'
p1804
I5
sS'Iterations'
p1805
I1300
sS'Lambda'
p1806
I0
ssI1
(dp1807
g1802
F0.5
sg1803
I5
sg1804
I5
sg1805
I1300
sg1806
I0
ssI2
(dp1808
g1802
F0.5
sg1803
I5
sg1804
I5
sg1805
I1300
sg1806
I0
ssI3
(dp1809
g1802
F0.5
sg1803
I5
sg1804
I5
sg1805
I1300
sg1806
I0
ssI4
(dp1810
g1802
F0.5
sg1803
I5
sg1804
I5
sg1805
I1300
sg1806
I0
ssI5
(dp1811
g1802
F0.5
sg1803
I5
sg1804
I5
sg1805
I1300
sg1806
I0
ssI6
(dp1812
g1802
F0.5
sg1803
I5
sg1804
I5
sg1805
I1300
sg1806
I0
ssI7
(dp1813
g1802
F0.5
sg1803
I5
sg1804
I5
sg1805
I1300
sg1806
I0
ssI8
(dp1814
g1802
F0.5
sg1803
I5
sg1804
I5
sg1805
I1300
sg1806
I0
ssI9
(dp1815
g1802
F0.5
sg1803
I5
sg1804
I5
sg1805
I1300
sg1806
I0
sssI1
(dp1816
I0
(dp1817
S'Learning Rate'
p1818
F0.5
sS'Num season factors'
p1819
I5
sS'Num home factors'
p1820
I5
sS'Iterations'
p1821
I1300
sS'Lambda'
p1822
I0
ssI1
(dp1823
g1818
F0.5
sg1819
I5
sg1820
I5
sg1821
I1300
sg1822
I0
ssI2
(dp1824
g1818
F0.5
sg1819
I5
sg1820
I5
sg1821
I1300
sg1822
I0
ssI3
(dp1825
g1818
F0.5
sg1819
I5
sg1820
I5
sg1821
I1300
sg1822
I0
ssI4
(dp1826
g1818
F0.5
sg1819
I5
sg1820
I5
sg1821
I1300
sg1822
I0
ssI5
(dp1827
g1818
F0.5
sg1819
I5
sg1820
I5
sg1821
I1300
sg1822
I0
ssI6
(dp1828
g1818
F0.5
sg1819
I5
sg1820
I5
sg1821
I1300
sg1822
I0
ssI7
(dp1829
g1818
F0.5
sg1819
I5
sg1820
I5
sg1821
I1300
sg1822
I0
ssI8
(dp1830
g1818
F0.5
sg1819
I5
sg1820
I5
sg1821
I1300
sg1822
I0
ssI9
(dp1831
g1818
F0.5
sg1819
I5
sg1820
I5
sg1821
I1300
sg1822
I0
sssI2
(dp1832
I0
(dp1833
S'Learning Rate'
p1834
F0.5
sS'Num season factors'
p1835
I5
sS'Num home factors'
p1836
I5
sS'Iterations'
p1837
I1300
sS'Lambda'
p1838
I0
ssI1
(dp1839
g1834
F0.5
sg1835
I5
sg1836
I5
sg1837
I1300
sg1838
I0
ssI2
(dp1840
g1834
F0.5
sg1835
I5
sg1836
I5
sg1837
I1300
sg1838
I0
ssI3
(dp1841
g1834
F0.5
sg1835
I5
sg1836
I5
sg1837
I1300
sg1838
I0
ssI4
(dp1842
g1834
F0.5
sg1835
I5
sg1836
I5
sg1837
I1300
sg1838
I0
ssI5
(dp1843
g1834
F0.5
sg1835
I5
sg1836
I5
sg1837
I1300
sg1838
I0
ssI6
(dp1844
g1834
F0.5
sg1835
I5
sg1836
I5
sg1837
I1300
sg1838
I0
ssI7
(dp1845
g1834
F0.5
sg1835
I5
sg1836
I5
sg1837
I1300
sg1838
I0
ssI8
(dp1846
g1834
F0.5
sg1835
I5
sg1836
I5
sg1837
I1300
sg1838
I0
ssI9
(dp1847
g1834
F0.5
sg1835
I5
sg1836
I5
sg1837
I1300
sg1838
I0
sssI3
(dp1848
I0
(dp1849
S'Learning Rate'
p1850
F0.5
sS'Num season factors'
p1851
I5
sS'Num home factors'
p1852
I5
sS'Iterations'
p1853
I1300
sS'Lambda'
p1854
I0
ssI1
(dp1855
g1850
F0.5
sg1851
I5
sg1852
I5
sg1853
I1300
sg1854
I0
ssI2
(dp1856
g1850
F0.5
sg1851
I5
sg1852
I5
sg1853
I1300
sg1854
I0
ssI3
(dp1857
g1850
F0.5
sg1851
I5
sg1852
I5
sg1853
I1300
sg1854
I0
ssI4
(dp1858
g1850
F0.5
sg1851
I5
sg1852
I5
sg1853
I1300
sg1854
I0
ssI5
(dp1859
g1850
F0.5
sg1851
I5
sg1852
I5
sg1853
I1300
sg1854
I0
ssI6
(dp1860
g1850
F0.5
sg1851
I5
sg1852
I5
sg1853
I1300
sg1854
I0
ssI7
(dp1861
g1850
F0.5
sg1851
I5
sg1852
I5
sg1853
I1300
sg1854
I0
ssI8
(dp1862
g1850
F0.5
sg1851
I5
sg1852
I5
sg1853
I1300
sg1854
I0
ssI9
(dp1863
g1850
F0.5
sg1851
I5
sg1852
I5
sg1853
I1300
sg1854
I0
sssI4
(dp1864
I0
(dp1865
S'Learning Rate'
p1866
F0.5
sS'Num season factors'
p1867
I5
sS'Num home factors'
p1868
I5
sS'Iterations'
p1869
I1300
sS'Lambda'
p1870
I0
ssI1
(dp1871
g1866
F0.5
sg1867
I5
sg1868
I5
sg1869
I1300
sg1870
I0
ssI2
(dp1872
g1866
F0.5
sg1867
I5
sg1868
I5
sg1869
I1300
sg1870
I0
ssI3
(dp1873
g1866
F0.5
sg1867
I5
sg1868
I5
sg1869
I1300
sg1870
I0
ssI4
(dp1874
g1866
F0.5
sg1867
I5
sg1868
I5
sg1869
I1300
sg1870
I0
ssI5
(dp1875
g1866
F0.5
sg1867
I5
sg1868
I5
sg1869
I1300
sg1870
I0
ssI6
(dp1876
g1866
F0.5
sg1867
I5
sg1868
I5
sg1869
I1300
sg1870
I0
ssI7
(dp1877
g1866
F0.5
sg1867
I5
sg1868
I5
sg1869
I1300
sg1870
I0
ssI8
(dp1878
g1866
F0.5
sg1867
I5
sg1868
I5
sg1869
I1300
sg1870
I0
ssI9
(dp1879
g1866
F0.5
sg1867
I5
sg1868
I5
sg1869
I1300
sg1870
I0
sssI5
(dp1880
I0
(dp1881
S'Learning Rate'
p1882
F0.5
sS'Num season factors'
p1883
I5
sS'Num home factors'
p1884
I5
sS'Iterations'
p1885
I1300
sS'Lambda'
p1886
I0
ssI1
(dp1887
g1882
F0.5
sg1883
I5
sg1884
I5
sg1885
I1300
sg1886
I0
ssI2
(dp1888
g1882
F0.5
sg1883
I5
sg1884
I5
sg1885
I1300
sg1886
I0
ssI3
(dp1889
g1882
F0.5
sg1883
I5
sg1884
I5
sg1885
I1300
sg1886
I0
ssI4
(dp1890
g1882
F0.5
sg1883
I5
sg1884
I5
sg1885
I1300
sg1886
I0
ssI5
(dp1891
g1882
F0.5
sg1883
I5
sg1884
I5
sg1885
I1300
sg1886
I0
ssI6
(dp1892
g1882
F0.5
sg1883
I5
sg1884
I5
sg1885
I1300
sg1886
I0
ssI7
(dp1893
g1882
F0.5
sg1883
I5
sg1884
I5
sg1885
I1300
sg1886
I0
ssI8
(dp1894
g1882
F0.5
sg1883
I5
sg1884
I5
sg1885
I1300
sg1886
I0
ssI9
(dp1895
g1882
F0.5
sg1883
I5
sg1884
I5
sg1885
I1300
sg1886
I0
sssI6
(dp1896
I0
(dp1897
S'Learning Rate'
p1898
F0.5
sS'Num season factors'
p1899
I5
sS'Num home factors'
p1900
I5
sS'Iterations'
p1901
I1300
sS'Lambda'
p1902
I0
ssI1
(dp1903
g1898
F0.5
sg1899
I5
sg1900
I5
sg1901
I1300
sg1902
I0
ssI2
(dp1904
g1898
F0.5
sg1899
I5
sg1900
I5
sg1901
I1300
sg1902
I0
ssI3
(dp1905
g1898
F0.5
sg1899
I5
sg1900
I5
sg1901
I1300
sg1902
I0
ssI4
(dp1906
g1898
F0.5
sg1899
I5
sg1900
I5
sg1901
I1300
sg1902
I0
ssI5
(dp1907
g1898
F0.5
sg1899
I5
sg1900
I5
sg1901
I1300
sg1902
I0
ssI6
(dp1908
g1898
F0.5
sg1899
I5
sg1900
I5
sg1901
I1300
sg1902
I0
ssI7
(dp1909
g1898
F0.5
sg1899
I5
sg1900
I5
sg1901
I1300
sg1902
I0
ssI8
(dp1910
g1898
F0.5
sg1899
I5
sg1900
I5
sg1901
I1300
sg1902
I0
ssI9
(dp1911
g1898
F0.5
sg1899
I5
sg1900
I5
sg1901
I1300
sg1902
I0
sssI7
(dp1912
I0
(dp1913
S'Learning Rate'
p1914
F0.5
sS'Num season factors'
p1915
I5
sS'Num home factors'
p1916
I5
sS'Iterations'
p1917
I1300
sS'Lambda'
p1918
I0
ssI1
(dp1919
g1914
F0.5
sg1915
I5
sg1916
I5
sg1917
I1300
sg1918
I0
ssI2
(dp1920
g1914
F0.5
sg1915
I5
sg1916
I5
sg1917
I1300
sg1918
I0
ssI3
(dp1921
g1914
F0.5
sg1915
I5
sg1916
I5
sg1917
I1300
sg1918
I0
ssI4
(dp1922
g1914
F0.5
sg1915
I5
sg1916
I5
sg1917
I1300
sg1918
I0
ssI5
(dp1923
g1914
F0.5
sg1915
I5
sg1916
I5
sg1917
I1300
sg1918
I0
ssI6
(dp1924
g1914
F0.5
sg1915
I5
sg1916
I5
sg1917
I1300
sg1918
I0
ssI7
(dp1925
g1914
F0.5
sg1915
I5
sg1916
I5
sg1917
I1300
sg1918
I0
ssI8
(dp1926
g1914
F0.5
sg1915
I5
sg1916
I5
sg1917
I1300
sg1918
I0
ssI9
(dp1927
g1914
F0.5
sg1915
I5
sg1916
I5
sg1917
I1300
sg1918
I0
sssI8
(dp1928
I0
(dp1929
S'Learning Rate'
p1930
F0.5
sS'Num season factors'
p1931
I5
sS'Num home factors'
p1932
I5
sS'Iterations'
p1933
I1300
sS'Lambda'
p1934
I0
ssI1
(dp1935
g1930
F0.5
sg1931
I5
sg1932
I5
sg1933
I1300
sg1934
I0
ssI2
(dp1936
g1930
F0.5
sg1931
I5
sg1932
I5
sg1933
I1300
sg1934
I0
ssI3
(dp1937
g1930
F0.5
sg1931
I5
sg1932
I5
sg1933
I1300
sg1934
I0
ssI4
(dp1938
g1930
F0.5
sg1931
I5
sg1932
I5
sg1933
I1300
sg1934
I0
ssI5
(dp1939
g1930
F0.5
sg1931
I5
sg1932
I5
sg1933
I1300
sg1934
I0
ssI6
(dp1940
g1930
F0.5
sg1931
I5
sg1932
I5
sg1933
I1300
sg1934
I0
ssI7
(dp1941
g1930
F0.5
sg1931
I5
sg1932
I5
sg1933
I1300
sg1934
I0
ssI8
(dp1942
g1930
F0.5
sg1931
I5
sg1932
I5
sg1933
I1300
sg1934
I0
ssI9
(dp1943
g1930
F0.5
sg1931
I5
sg1932
I5
sg1933
I1300
sg1934
I0
sssI9
(dp1944
I0
(dp1945
S'Learning Rate'
p1946
F0.5
sS'Num season factors'
p1947
I5
sS'Num home factors'
p1948
I5
sS'Iterations'
p1949
I1300
sS'Lambda'
p1950
I0
ssI1
(dp1951
g1946
F0.5
sg1947
I5
sg1948
I5
sg1949
I1300
sg1950
I0
ssI2
(dp1952
g1946
F0.5
sg1947
I5
sg1948
I5
sg1949
I1300
sg1950
I0
ssI3
(dp1953
g1946
F0.5
sg1947
I5
sg1948
I5
sg1949
I1300
sg1950
I0
ssI4
(dp1954
g1946
F0.5
sg1947
I5
sg1948
I5
sg1949
I1300
sg1950
I0
ssI5
(dp1955
g1946
F0.5
sg1947
I5
sg1948
I5
sg1949
I1300
sg1950
I0
ssI6
(dp1956
g1946
F0.5
sg1947
I5
sg1948
I5
sg1949
I1300
sg1950
I0
ssI7
(dp1957
g1946
F0.5
sg1947
I5
sg1948
I5
sg1949
I1300
sg1950
I0
ssI8
(dp1958
g1946
F0.5
sg1947
I5
sg1948
I5
sg1949
I1300
sg1950
I0
ssI9
(dp1959
g1946
F0.5
sg1947
I5
sg1948
I5
sg1949
I1300
sg1950
I0
sssssssg331
(dp1960
g2
(dp1961
g5
(dp1962
F0.0
(dp1963
I0
(dp1964
I0
(dp1965
S'Learning Rate'
p1966
F0.5
sS'Num season factors'
p1967
I5
sS'Num home factors'
p1968
I5
sS'Iterations'
p1969
I1300
sS'Lambda'
p1970
I0
ssI1
(dp1971
g1966
F0.5
sg1967
I5
sg1968
I5
sg1969
I1300
sg1970
I0
ssI2
(dp1972
g1966
F0.5
sg1967
I5
sg1968
I5
sg1969
I1300
sg1970
I0
ssI3
(dp1973
g1966
F0.5
sg1967
I5
sg1968
I5
sg1969
I1300
sg1970
I0
ssI4
(dp1974
g1966
F0.5
sg1967
I5
sg1968
I5
sg1969
I1300
sg1970
I0
ssI5
(dp1975
g1966
F0.5
sg1967
I5
sg1968
I5
sg1969
I1300
sg1970
I0
ssI6
(dp1976
g1966
F0.5
sg1967
I5
sg1968
I5
sg1969
I1300
sg1970
I0
ssI7
(dp1977
g1966
F0.5
sg1967
I5
sg1968
I5
sg1969
I1300
sg1970
I0
ssI8
(dp1978
g1966
F0.5
sg1967
I5
sg1968
I5
sg1969
I1300
sg1970
I0
ssI9
(dp1979
g1966
F0.5
sg1967
I5
sg1968
I5
sg1969
I1300
sg1970
I0
sssI1
(dp1980
I0
(dp1981
S'Learning Rate'
p1982
F0.5
sS'Num season factors'
p1983
I5
sS'Num home factors'
p1984
I5
sS'Iterations'
p1985
I1300
sS'Lambda'
p1986
I0
ssI1
(dp1987
g1982
F0.5
sg1983
I5
sg1984
I5
sg1985
I1300
sg1986
I0
ssI2
(dp1988
g1982
F0.5
sg1983
I5
sg1984
I5
sg1985
I1300
sg1986
I0
ssI3
(dp1989
g1982
F0.5
sg1983
I5
sg1984
I5
sg1985
I1300
sg1986
I0
ssI4
(dp1990
g1982
F0.5
sg1983
I5
sg1984
I5
sg1985
I1300
sg1986
I0
ssI5
(dp1991
g1982
F0.5
sg1983
I5
sg1984
I5
sg1985
I1300
sg1986
I0
ssI6
(dp1992
g1982
F0.5
sg1983
I5
sg1984
I5
sg1985
I1300
sg1986
I0
ssI7
(dp1993
g1982
F0.5
sg1983
I5
sg1984
I5
sg1985
I1300
sg1986
I0
ssI8
(dp1994
g1982
F0.5
sg1983
I5
sg1984
I5
sg1985
I1300
sg1986
I0
ssI9
(dp1995
g1982
F0.5
sg1983
I5
sg1984
I5
sg1985
I1300
sg1986
I0
sssI2
(dp1996
I0
(dp1997
S'Learning Rate'
p1998
F0.5
sS'Num season factors'
p1999
I5
sS'Num home factors'
p2000
I5
sS'Iterations'
p2001
I1300
sS'Lambda'
p2002
I0
ssI1
(dp2003
g1998
F0.5
sg1999
I5
sg2000
I5
sg2001
I1300
sg2002
I0
ssI2
(dp2004
g1998
F0.5
sg1999
I5
sg2000
I5
sg2001
I1300
sg2002
I0
ssI3
(dp2005
g1998
F0.5
sg1999
I5
sg2000
I5
sg2001
I1300
sg2002
I0
ssI4
(dp2006
g1998
F0.5
sg1999
I5
sg2000
I5
sg2001
I1300
sg2002
I0
ssI5
(dp2007
g1998
F0.5
sg1999
I5
sg2000
I5
sg2001
I1300
sg2002
I0
ssI6
(dp2008
g1998
F0.5
sg1999
I5
sg2000
I5
sg2001
I1300
sg2002
I0
ssI7
(dp2009
g1998
F0.5
sg1999
I5
sg2000
I5
sg2001
I1300
sg2002
I0
ssI8
(dp2010
g1998
F0.5
sg1999
I5
sg2000
I5
sg2001
I1300
sg2002
I0
ssI9
(dp2011
g1998
F0.5
sg1999
I5
sg2000
I5
sg2001
I1300
sg2002
I0
sssI3
(dp2012
I0
(dp2013
S'Learning Rate'
p2014
F0.5
sS'Num season factors'
p2015
I5
sS'Num home factors'
p2016
I5
sS'Iterations'
p2017
I1300
sS'Lambda'
p2018
I0
ssI1
(dp2019
g2014
F0.5
sg2015
I5
sg2016
I5
sg2017
I1300
sg2018
I0
ssI2
(dp2020
g2014
F0.5
sg2015
I5
sg2016
I5
sg2017
I1300
sg2018
I0
ssI3
(dp2021
g2014
F0.5
sg2015
I5
sg2016
I5
sg2017
I1300
sg2018
I0
ssI4
(dp2022
g2014
F0.5
sg2015
I5
sg2016
I5
sg2017
I1300
sg2018
I0
ssI5
(dp2023
g2014
F0.5
sg2015
I5
sg2016
I5
sg2017
I1300
sg2018
I0
ssI6
(dp2024
g2014
F0.5
sg2015
I5
sg2016
I5
sg2017
I1300
sg2018
I0
ssI7
(dp2025
g2014
F0.5
sg2015
I5
sg2016
I5
sg2017
I1300
sg2018
I0
ssI8
(dp2026
g2014
F0.5
sg2015
I5
sg2016
I5
sg2017
I1300
sg2018
I0
ssI9
(dp2027
g2014
F0.5
sg2015
I5
sg2016
I5
sg2017
I1300
sg2018
I0
sssI4
(dp2028
I0
(dp2029
S'Learning Rate'
p2030
F0.5
sS'Num season factors'
p2031
I5
sS'Num home factors'
p2032
I5
sS'Iterations'
p2033
I1300
sS'Lambda'
p2034
I0
ssI1
(dp2035
g2030
F0.5
sg2031
I5
sg2032
I5
sg2033
I1300
sg2034
I0
ssI2
(dp2036
g2030
F0.5
sg2031
I5
sg2032
I5
sg2033
I1300
sg2034
I0
ssI3
(dp2037
g2030
F0.5
sg2031
I5
sg2032
I5
sg2033
I1300
sg2034
I0
ssI4
(dp2038
g2030
F0.5
sg2031
I5
sg2032
I5
sg2033
I1300
sg2034
I0
ssI5
(dp2039
g2030
F0.5
sg2031
I5
sg2032
I5
sg2033
I1300
sg2034
I0
ssI6
(dp2040
g2030
F0.5
sg2031
I5
sg2032
I5
sg2033
I1300
sg2034
I0
ssI7
(dp2041
g2030
F0.5
sg2031
I5
sg2032
I5
sg2033
I1300
sg2034
I0
ssI8
(dp2042
g2030
F0.5
sg2031
I5
sg2032
I5
sg2033
I1300
sg2034
I0
ssI9
(dp2043
g2030
F0.5
sg2031
I5
sg2032
I5
sg2033
I1300
sg2034
I0
sssI5
(dp2044
I0
(dp2045
S'Learning Rate'
p2046
F0.5
sS'Num season factors'
p2047
I5
sS'Num home factors'
p2048
I5
sS'Iterations'
p2049
I1300
sS'Lambda'
p2050
I0
ssI1
(dp2051
g2046
F0.5
sg2047
I5
sg2048
I5
sg2049
I1300
sg2050
I0
ssI2
(dp2052
g2046
F0.5
sg2047
I5
sg2048
I5
sg2049
I1300
sg2050
I0
ssI3
(dp2053
g2046
F0.5
sg2047
I5
sg2048
I5
sg2049
I1300
sg2050
I0
ssI4
(dp2054
g2046
F0.5
sg2047
I5
sg2048
I5
sg2049
I1300
sg2050
I0
ssI5
(dp2055
g2046
F0.5
sg2047
I5
sg2048
I5
sg2049
I1300
sg2050
I0
ssI6
(dp2056
g2046
F0.5
sg2047
I5
sg2048
I5
sg2049
I1300
sg2050
I0
ssI7
(dp2057
g2046
F0.5
sg2047
I5
sg2048
I5
sg2049
I1300
sg2050
I0
ssI8
(dp2058
g2046
F0.5
sg2047
I5
sg2048
I5
sg2049
I1300
sg2050
I0
ssI9
(dp2059
g2046
F0.5
sg2047
I5
sg2048
I5
sg2049
I1300
sg2050
I0
sssI6
(dp2060
I0
(dp2061
S'Learning Rate'
p2062
F0.5
sS'Num season factors'
p2063
I5
sS'Num home factors'
p2064
I5
sS'Iterations'
p2065
I1300
sS'Lambda'
p2066
I0
ssI1
(dp2067
g2062
F0.5
sg2063
I5
sg2064
I5
sg2065
I1300
sg2066
I0
ssI2
(dp2068
g2062
F0.5
sg2063
I5
sg2064
I5
sg2065
I1300
sg2066
I0
ssI3
(dp2069
g2062
F0.5
sg2063
I5
sg2064
I5
sg2065
I1300
sg2066
I0
ssI4
(dp2070
g2062
F0.5
sg2063
I5
sg2064
I5
sg2065
I1300
sg2066
I0
ssI5
(dp2071
g2062
F0.5
sg2063
I5
sg2064
I5
sg2065
I1300
sg2066
I0
ssI6
(dp2072
g2062
F0.5
sg2063
I5
sg2064
I5
sg2065
I1300
sg2066
I0
ssI7
(dp2073
g2062
F0.5
sg2063
I5
sg2064
I5
sg2065
I1300
sg2066
I0
ssI8
(dp2074
g2062
F0.5
sg2063
I5
sg2064
I5
sg2065
I1300
sg2066
I0
ssI9
(dp2075
g2062
F0.5
sg2063
I5
sg2064
I5
sg2065
I1300
sg2066
I0
sssI7
(dp2076
I0
(dp2077
S'Learning Rate'
p2078
F0.5
sS'Num season factors'
p2079
I5
sS'Num home factors'
p2080
I5
sS'Iterations'
p2081
I1300
sS'Lambda'
p2082
I0
ssI1
(dp2083
g2078
F0.5
sg2079
I5
sg2080
I5
sg2081
I1300
sg2082
I0
ssI2
(dp2084
g2078
F0.5
sg2079
I5
sg2080
I5
sg2081
I1300
sg2082
I0
ssI3
(dp2085
g2078
F0.5
sg2079
I5
sg2080
I5
sg2081
I1300
sg2082
I0
ssI4
(dp2086
g2078
F0.5
sg2079
I5
sg2080
I5
sg2081
I1300
sg2082
I0
ssI5
(dp2087
g2078
F0.5
sg2079
I5
sg2080
I5
sg2081
I1300
sg2082
I0
ssI6
(dp2088
g2078
F0.5
sg2079
I5
sg2080
I5
sg2081
I1300
sg2082
I0
ssI7
(dp2089
g2078
F0.5
sg2079
I5
sg2080
I5
sg2081
I1300
sg2082
I0
ssI8
(dp2090
g2078
F0.5
sg2079
I5
sg2080
I5
sg2081
I1300
sg2082
I0
ssI9
(dp2091
g2078
F0.5
sg2079
I5
sg2080
I5
sg2081
I1300
sg2082
I0
sssI8
(dp2092
I0
(dp2093
S'Learning Rate'
p2094
F0.5
sS'Num season factors'
p2095
I5
sS'Num home factors'
p2096
I5
sS'Iterations'
p2097
I1300
sS'Lambda'
p2098
I0
ssI1
(dp2099
g2094
F0.5
sg2095
I5
sg2096
I5
sg2097
I1300
sg2098
I0
ssI2
(dp2100
g2094
F0.5
sg2095
I5
sg2096
I5
sg2097
I1300
sg2098
I0
ssI3
(dp2101
g2094
F0.5
sg2095
I5
sg2096
I5
sg2097
I1300
sg2098
I0
ssI4
(dp2102
g2094
F0.5
sg2095
I5
sg2096
I5
sg2097
I1300
sg2098
I0
ssI5
(dp2103
g2094
F0.5
sg2095
I5
sg2096
I5
sg2097
I1300
sg2098
I0
ssI6
(dp2104
g2094
F0.5
sg2095
I5
sg2096
I5
sg2097
I1300
sg2098
I0
ssI7
(dp2105
g2094
F0.5
sg2095
I5
sg2096
I5
sg2097
I1300
sg2098
I0
ssI8
(dp2106
g2094
F0.5
sg2095
I5
sg2096
I5
sg2097
I1300
sg2098
I0
ssI9
(dp2107
g2094
F0.5
sg2095
I5
sg2096
I5
sg2097
I1300
sg2098
I0
sssI9
(dp2108
I0
(dp2109
S'Learning Rate'
p2110
F0.5
sS'Num season factors'
p2111
I5
sS'Num home factors'
p2112
I5
sS'Iterations'
p2113
I1300
sS'Lambda'
p2114
I0
ssI1
(dp2115
g2110
F0.5
sg2111
I5
sg2112
I5
sg2113
I1300
sg2114
I0
ssI2
(dp2116
g2110
F0.5
sg2111
I5
sg2112
I5
sg2113
I1300
sg2114
I0
ssI3
(dp2117
g2110
F0.5
sg2111
I5
sg2112
I5
sg2113
I1300
sg2114
I0
ssI4
(dp2118
g2110
F0.5
sg2111
I5
sg2112
I5
sg2113
I1300
sg2114
I0
ssI5
(dp2119
g2110
F0.5
sg2111
I5
sg2112
I5
sg2113
I1300
sg2114
I0
ssI6
(dp2120
g2110
F0.5
sg2111
I5
sg2112
I5
sg2113
I1300
sg2114
I0
ssI7
(dp2121
g2110
F0.5
sg2111
I5
sg2112
I5
sg2113
I1300
sg2114
I0
ssI8
(dp2122
g2110
F0.5
sg2111
I5
sg2112
I5
sg2113
I1300
sg2114
I0
ssI9
(dp2123
g2110
F0.5
sg2111
I5
sg2112
I5
sg2113
I1300
sg2114
I0
sssssg168
(dp2124
F0.0
(dp2125
I0
(dp2126
I0
(dp2127
S'Learning Rate'
p2128
F0.5
sS'Num season factors'
p2129
I5
sS'Num home factors'
p2130
I5
sS'Iterations'
p2131
I1300
sS'Lambda'
p2132
I0
ssI1
(dp2133
g2128
F0.5
sg2129
I5
sg2130
I5
sg2131
I1300
sg2132
I0
ssI2
(dp2134
g2128
F0.5
sg2129
I5
sg2130
I5
sg2131
I1300
sg2132
I0
ssI3
(dp2135
g2128
F0.5
sg2129
I5
sg2130
I5
sg2131
I1300
sg2132
I0
ssI4
(dp2136
g2128
F0.5
sg2129
I5
sg2130
I5
sg2131
I1300
sg2132
I0
ssI5
(dp2137
g2128
F0.5
sg2129
I5
sg2130
I5
sg2131
I1300
sg2132
I0
ssI6
(dp2138
g2128
F0.5
sg2129
I5
sg2130
I5
sg2131
I1300
sg2132
I0
ssI7
(dp2139
g2128
F0.5
sg2129
I5
sg2130
I5
sg2131
I1300
sg2132
I0
ssI8
(dp2140
g2128
F0.5
sg2129
I5
sg2130
I5
sg2131
I1300
sg2132
I0
ssI9
(dp2141
g2128
F0.5
sg2129
I5
sg2130
I5
sg2131
I1300
sg2132
I0
sssI1
(dp2142
I0
(dp2143
S'Learning Rate'
p2144
F0.5
sS'Num season factors'
p2145
I5
sS'Num home factors'
p2146
I5
sS'Iterations'
p2147
I1300
sS'Lambda'
p2148
I0
ssI1
(dp2149
g2144
F0.5
sg2145
I5
sg2146
I5
sg2147
I1300
sg2148
I0
ssI2
(dp2150
g2144
F0.5
sg2145
I5
sg2146
I5
sg2147
I1300
sg2148
I0
ssI3
(dp2151
g2144
F0.5
sg2145
I5
sg2146
I5
sg2147
I1300
sg2148
I0
ssI4
(dp2152
g2144
F0.5
sg2145
I5
sg2146
I5
sg2147
I1300
sg2148
I0
ssI5
(dp2153
g2144
F0.5
sg2145
I5
sg2146
I5
sg2147
I1300
sg2148
I0
ssI6
(dp2154
g2144
F0.5
sg2145
I5
sg2146
I5
sg2147
I1300
sg2148
I0
ssI7
(dp2155
g2144
F0.5
sg2145
I5
sg2146
I5
sg2147
I1300
sg2148
I0
ssI8
(dp2156
g2144
F0.5
sg2145
I5
sg2146
I5
sg2147
I1300
sg2148
I0
ssI9
(dp2157
g2144
F0.5
sg2145
I5
sg2146
I5
sg2147
I1300
sg2148
I0
sssI2
(dp2158
I0
(dp2159
S'Learning Rate'
p2160
F0.5
sS'Num season factors'
p2161
I5
sS'Num home factors'
p2162
I5
sS'Iterations'
p2163
I1300
sS'Lambda'
p2164
I0
ssI1
(dp2165
g2160
F0.5
sg2161
I5
sg2162
I5
sg2163
I1300
sg2164
I0
ssI2
(dp2166
g2160
F0.5
sg2161
I5
sg2162
I5
sg2163
I1300
sg2164
I0
ssI3
(dp2167
g2160
F0.5
sg2161
I5
sg2162
I5
sg2163
I1300
sg2164
I0
ssI4
(dp2168
g2160
F0.5
sg2161
I5
sg2162
I5
sg2163
I1300
sg2164
I0
ssI5
(dp2169
g2160
F0.5
sg2161
I5
sg2162
I5
sg2163
I1300
sg2164
I0
ssI6
(dp2170
g2160
F0.5
sg2161
I5
sg2162
I5
sg2163
I1300
sg2164
I0
ssI7
(dp2171
g2160
F0.5
sg2161
I5
sg2162
I5
sg2163
I1300
sg2164
I0
ssI8
(dp2172
g2160
F0.5
sg2161
I5
sg2162
I5
sg2163
I1300
sg2164
I0
ssI9
(dp2173
g2160
F0.5
sg2161
I5
sg2162
I5
sg2163
I1300
sg2164
I0
sssI3
(dp2174
I0
(dp2175
S'Learning Rate'
p2176
F0.5
sS'Num season factors'
p2177
I5
sS'Num home factors'
p2178
I5
sS'Iterations'
p2179
I1300
sS'Lambda'
p2180
I0
ssI1
(dp2181
g2176
F0.5
sg2177
I5
sg2178
I5
sg2179
I1300
sg2180
I0
ssI2
(dp2182
g2176
F0.5
sg2177
I5
sg2178
I5
sg2179
I1300
sg2180
I0
ssI3
(dp2183
g2176
F0.5
sg2177
I5
sg2178
I5
sg2179
I1300
sg2180
I0
ssI4
(dp2184
g2176
F0.5
sg2177
I5
sg2178
I5
sg2179
I1300
sg2180
I0
ssI5
(dp2185
g2176
F0.5
sg2177
I5
sg2178
I5
sg2179
I1300
sg2180
I0
ssI6
(dp2186
g2176
F0.5
sg2177
I5
sg2178
I5
sg2179
I1300
sg2180
I0
ssI7
(dp2187
g2176
F0.5
sg2177
I5
sg2178
I5
sg2179
I1300
sg2180
I0
ssI8
(dp2188
g2176
F0.5
sg2177
I5
sg2178
I5
sg2179
I1300
sg2180
I0
ssI9
(dp2189
g2176
F0.5
sg2177
I5
sg2178
I5
sg2179
I1300
sg2180
I0
sssI4
(dp2190
I0
(dp2191
S'Learning Rate'
p2192
F0.5
sS'Num season factors'
p2193
I5
sS'Num home factors'
p2194
I5
sS'Iterations'
p2195
I1300
sS'Lambda'
p2196
I0
ssI1
(dp2197
g2192
F0.5
sg2193
I5
sg2194
I5
sg2195
I1300
sg2196
I0
ssI2
(dp2198
g2192
F0.5
sg2193
I5
sg2194
I5
sg2195
I1300
sg2196
I0
ssI3
(dp2199
g2192
F0.5
sg2193
I5
sg2194
I5
sg2195
I1300
sg2196
I0
ssI4
(dp2200
g2192
F0.5
sg2193
I5
sg2194
I5
sg2195
I1300
sg2196
I0
ssI5
(dp2201
g2192
F0.5
sg2193
I5
sg2194
I5
sg2195
I1300
sg2196
I0
ssI6
(dp2202
g2192
F0.5
sg2193
I5
sg2194
I5
sg2195
I1300
sg2196
I0
ssI7
(dp2203
g2192
F0.5
sg2193
I5
sg2194
I5
sg2195
I1300
sg2196
I0
ssI8
(dp2204
g2192
F0.5
sg2193
I5
sg2194
I5
sg2195
I1300
sg2196
I0
ssI9
(dp2205
g2192
F0.5
sg2193
I5
sg2194
I5
sg2195
I1300
sg2196
I0
sssI5
(dp2206
I0
(dp2207
S'Learning Rate'
p2208
F0.5
sS'Num season factors'
p2209
I5
sS'Num home factors'
p2210
I5
sS'Iterations'
p2211
I1300
sS'Lambda'
p2212
I0
ssI1
(dp2213
g2208
F0.5
sg2209
I5
sg2210
I5
sg2211
I1300
sg2212
I0
ssI2
(dp2214
g2208
F0.5
sg2209
I5
sg2210
I5
sg2211
I1300
sg2212
I0
ssI3
(dp2215
g2208
F0.5
sg2209
I5
sg2210
I5
sg2211
I1300
sg2212
I0
ssI4
(dp2216
g2208
F0.5
sg2209
I5
sg2210
I5
sg2211
I1300
sg2212
I0
ssI5
(dp2217
g2208
F0.5
sg2209
I5
sg2210
I5
sg2211
I1300
sg2212
I0
ssI6
(dp2218
g2208
F0.5
sg2209
I5
sg2210
I5
sg2211
I1300
sg2212
I0
ssI7
(dp2219
g2208
F0.5
sg2209
I5
sg2210
I5
sg2211
I1300
sg2212
I0
ssI8
(dp2220
g2208
F0.5
sg2209
I5
sg2210
I5
sg2211
I1300
sg2212
I0
ssI9
(dp2221
g2208
F0.5
sg2209
I5
sg2210
I5
sg2211
I1300
sg2212
I0
sssI6
(dp2222
I0
(dp2223
S'Learning Rate'
p2224
F0.5
sS'Num season factors'
p2225
I5
sS'Num home factors'
p2226
I5
sS'Iterations'
p2227
I1300
sS'Lambda'
p2228
I0
ssI1
(dp2229
g2224
F0.5
sg2225
I5
sg2226
I5
sg2227
I1300
sg2228
I0
ssI2
(dp2230
g2224
F0.5
sg2225
I5
sg2226
I5
sg2227
I1300
sg2228
I0
ssI3
(dp2231
g2224
F0.5
sg2225
I5
sg2226
I5
sg2227
I1300
sg2228
I0
ssI4
(dp2232
g2224
F0.5
sg2225
I5
sg2226
I5
sg2227
I1300
sg2228
I0
ssI5
(dp2233
g2224
F0.5
sg2225
I5
sg2226
I5
sg2227
I1300
sg2228
I0
ssI6
(dp2234
g2224
F0.5
sg2225
I5
sg2226
I5
sg2227
I1300
sg2228
I0
ssI7
(dp2235
g2224
F0.5
sg2225
I5
sg2226
I5
sg2227
I1300
sg2228
I0
ssI8
(dp2236
g2224
F0.5
sg2225
I5
sg2226
I5
sg2227
I1300
sg2228
I0
ssI9
(dp2237
g2224
F0.5
sg2225
I5
sg2226
I5
sg2227
I1300
sg2228
I0
sssI7
(dp2238
I0
(dp2239
S'Learning Rate'
p2240
F0.5
sS'Num season factors'
p2241
I5
sS'Num home factors'
p2242
I5
sS'Iterations'
p2243
I1300
sS'Lambda'
p2244
I0
ssI1
(dp2245
g2240
F0.5
sg2241
I5
sg2242
I5
sg2243
I1300
sg2244
I0
ssI2
(dp2246
g2240
F0.5
sg2241
I5
sg2242
I5
sg2243
I1300
sg2244
I0
ssI3
(dp2247
g2240
F0.5
sg2241
I5
sg2242
I5
sg2243
I1300
sg2244
I0
ssI4
(dp2248
g2240
F0.5
sg2241
I5
sg2242
I5
sg2243
I1300
sg2244
I0
ssI5
(dp2249
g2240
F0.5
sg2241
I5
sg2242
I5
sg2243
I1300
sg2244
I0
ssI6
(dp2250
g2240
F0.5
sg2241
I5
sg2242
I5
sg2243
I1300
sg2244
I0
ssI7
(dp2251
g2240
F0.5
sg2241
I5
sg2242
I5
sg2243
I1300
sg2244
I0
ssI8
(dp2252
g2240
F0.5
sg2241
I5
sg2242
I5
sg2243
I1300
sg2244
I0
ssI9
(dp2253
g2240
F0.5
sg2241
I5
sg2242
I5
sg2243
I1300
sg2244
I0
sssI8
(dp2254
I0
(dp2255
S'Learning Rate'
p2256
F0.5
sS'Num season factors'
p2257
I5
sS'Num home factors'
p2258
I5
sS'Iterations'
p2259
I1300
sS'Lambda'
p2260
I0
ssI1
(dp2261
g2256
F0.5
sg2257
I5
sg2258
I5
sg2259
I1300
sg2260
I0
ssI2
(dp2262
g2256
F0.5
sg2257
I5
sg2258
I5
sg2259
I1300
sg2260
I0
ssI3
(dp2263
g2256
F0.5
sg2257
I5
sg2258
I5
sg2259
I1300
sg2260
I0
ssI4
(dp2264
g2256
F0.5
sg2257
I5
sg2258
I5
sg2259
I1300
sg2260
I0
ssI5
(dp2265
g2256
F0.5
sg2257
I5
sg2258
I5
sg2259
I1300
sg2260
I0
ssI6
(dp2266
g2256
F0.5
sg2257
I5
sg2258
I5
sg2259
I1300
sg2260
I0
ssI7
(dp2267
g2256
F0.5
sg2257
I5
sg2258
I5
sg2259
I1300
sg2260
I0
ssI8
(dp2268
g2256
F0.5
sg2257
I5
sg2258
I5
sg2259
I1300
sg2260
I0
ssI9
(dp2269
g2256
F0.5
sg2257
I5
sg2258
I5
sg2259
I1300
sg2260
I0
sssI9
(dp2270
I0
(dp2271
S'Learning Rate'
p2272
F0.5
sS'Num season factors'
p2273
I5
sS'Num home factors'
p2274
I5
sS'Iterations'
p2275
I1300
sS'Lambda'
p2276
I0
ssI1
(dp2277
g2272
F0.5
sg2273
I5
sg2274
I5
sg2275
I1300
sg2276
I0
ssI2
(dp2278
g2272
F0.5
sg2273
I5
sg2274
I5
sg2275
I1300
sg2276
I0
ssI3
(dp2279
g2272
F0.5
sg2273
I5
sg2274
I5
sg2275
I1300
sg2276
I0
ssI4
(dp2280
g2272
F0.5
sg2273
I5
sg2274
I5
sg2275
I1300
sg2276
I0
ssI5
(dp2281
g2272
F0.5
sg2273
I5
sg2274
I5
sg2275
I1300
sg2276
I0
ssI6
(dp2282
g2272
F0.5
sg2273
I5
sg2274
I5
sg2275
I1300
sg2276
I0
ssI7
(dp2283
g2272
F0.5
sg2273
I5
sg2274
I5
sg2275
I1300
sg2276
I0
ssI8
(dp2284
g2272
F0.5
sg2273
I5
sg2274
I5
sg2275
I1300
sg2276
I0
ssI9
(dp2285
g2272
F0.5
sg2273
I5
sg2274
I5
sg2275
I1300
sg2276
I0
ssssssg331
(dp2286
g5
(dp2287
F0.0
(dp2288
I0
(dp2289
I0
(dp2290
S'Learning Rate'
p2291
F0.5
sS'Num season factors'
p2292
I5
sS'Num home factors'
p2293
I5
sS'Iterations'
p2294
I1300
sS'Lambda'
p2295
I0
ssI1
(dp2296
g2291
F0.5
sg2292
I5
sg2293
I5
sg2294
I1300
sg2295
I0
ssI2
(dp2297
g2291
F0.5
sg2292
I5
sg2293
I5
sg2294
I1300
sg2295
I0
ssI3
(dp2298
g2291
F0.5
sg2292
I5
sg2293
I5
sg2294
I1300
sg2295
I0
ssI4
(dp2299
g2291
F0.5
sg2292
I5
sg2293
I5
sg2294
I1300
sg2295
I0
ssI5
(dp2300
g2291
F0.5
sg2292
I5
sg2293
I5
sg2294
I1300
sg2295
I0
ssI6
(dp2301
g2291
F0.5
sg2292
I5
sg2293
I5
sg2294
I1300
sg2295
I0
ssI7
(dp2302
g2291
F0.5
sg2292
I5
sg2293
I5
sg2294
I1300
sg2295
I0
ssI8
(dp2303
g2291
F0.5
sg2292
I5
sg2293
I5
sg2294
I1300
sg2295
I0
ssI9
(dp2304
g2291
F0.5
sg2292
I5
sg2293
I5
sg2294
I1300
sg2295
I0
sssI1
(dp2305
I0
(dp2306
S'Learning Rate'
p2307
F0.5
sS'Num season factors'
p2308
I5
sS'Num home factors'
p2309
I5
sS'Iterations'
p2310
I1300
sS'Lambda'
p2311
I0
ssI1
(dp2312
g2307
F0.5
sg2308
I5
sg2309
I5
sg2310
I1300
sg2311
I0
ssI2
(dp2313
g2307
F0.5
sg2308
I5
sg2309
I5
sg2310
I1300
sg2311
I0
ssI3
(dp2314
g2307
F0.5
sg2308
I5
sg2309
I5
sg2310
I1300
sg2311
I0
ssI4
(dp2315
g2307
F0.5
sg2308
I5
sg2309
I5
sg2310
I1300
sg2311
I0
ssI5
(dp2316
g2307
F0.5
sg2308
I5
sg2309
I5
sg2310
I1300
sg2311
I0
ssI6
(dp2317
g2307
F0.5
sg2308
I5
sg2309
I5
sg2310
I1300
sg2311
I0
ssI7
(dp2318
g2307
F0.5
sg2308
I5
sg2309
I5
sg2310
I1300
sg2311
I0
ssI8
(dp2319
g2307
F0.5
sg2308
I5
sg2309
I5
sg2310
I1300
sg2311
I0
ssI9
(dp2320
g2307
F0.5
sg2308
I5
sg2309
I5
sg2310
I1300
sg2311
I0
sssI2
(dp2321
I0
(dp2322
S'Learning Rate'
p2323
F0.5
sS'Num season factors'
p2324
I5
sS'Num home factors'
p2325
I5
sS'Iterations'
p2326
I1300
sS'Lambda'
p2327
I0
ssI1
(dp2328
g2323
F0.5
sg2324
I5
sg2325
I5
sg2326
I1300
sg2327
I0
ssI2
(dp2329
g2323
F0.5
sg2324
I5
sg2325
I5
sg2326
I1300
sg2327
I0
ssI3
(dp2330
g2323
F0.5
sg2324
I5
sg2325
I5
sg2326
I1300
sg2327
I0
ssI4
(dp2331
g2323
F0.5
sg2324
I5
sg2325
I5
sg2326
I1300
sg2327
I0
ssI5
(dp2332
g2323
F0.5
sg2324
I5
sg2325
I5
sg2326
I1300
sg2327
I0
ssI6
(dp2333
g2323
F0.5
sg2324
I5
sg2325
I5
sg2326
I1300
sg2327
I0
ssI7
(dp2334
g2323
F0.5
sg2324
I5
sg2325
I5
sg2326
I1300
sg2327
I0
ssI8
(dp2335
g2323
F0.5
sg2324
I5
sg2325
I5
sg2326
I1300
sg2327
I0
ssI9
(dp2336
g2323
F0.5
sg2324
I5
sg2325
I5
sg2326
I1300
sg2327
I0
sssI3
(dp2337
I0
(dp2338
S'Learning Rate'
p2339
F0.5
sS'Num season factors'
p2340
I5
sS'Num home factors'
p2341
I5
sS'Iterations'
p2342
I1300
sS'Lambda'
p2343
I0
ssI1
(dp2344
g2339
F0.5
sg2340
I5
sg2341
I5
sg2342
I1300
sg2343
I0
ssI2
(dp2345
g2339
F0.5
sg2340
I5
sg2341
I5
sg2342
I1300
sg2343
I0
ssI3
(dp2346
g2339
F0.5
sg2340
I5
sg2341
I5
sg2342
I1300
sg2343
I0
ssI4
(dp2347
g2339
F0.5
sg2340
I5
sg2341
I5
sg2342
I1300
sg2343
I0
ssI5
(dp2348
g2339
F0.5
sg2340
I5
sg2341
I5
sg2342
I1300
sg2343
I0
ssI6
(dp2349
g2339
F0.5
sg2340
I5
sg2341
I5
sg2342
I1300
sg2343
I0
ssI7
(dp2350
g2339
F0.5
sg2340
I5
sg2341
I5
sg2342
I1300
sg2343
I0
ssI8
(dp2351
g2339
F0.5
sg2340
I5
sg2341
I5
sg2342
I1300
sg2343
I0
ssI9
(dp2352
g2339
F0.5
sg2340
I5
sg2341
I5
sg2342
I1300
sg2343
I0
sssI4
(dp2353
I0
(dp2354
S'Learning Rate'
p2355
F0.5
sS'Num season factors'
p2356
I5
sS'Num home factors'
p2357
I5
sS'Iterations'
p2358
I1300
sS'Lambda'
p2359
I0
ssI1
(dp2360
g2355
F0.5
sg2356
I5
sg2357
I5
sg2358
I1300
sg2359
I0
ssI2
(dp2361
g2355
F0.5
sg2356
I5
sg2357
I5
sg2358
I1300
sg2359
I0
ssI3
(dp2362
g2355
F0.5
sg2356
I5
sg2357
I5
sg2358
I1300
sg2359
I0
ssI4
(dp2363
g2355
F0.5
sg2356
I5
sg2357
I5
sg2358
I1300
sg2359
I0
ssI5
(dp2364
g2355
F0.5
sg2356
I5
sg2357
I5
sg2358
I1300
sg2359
I0
ssI6
(dp2365
g2355
F0.5
sg2356
I5
sg2357
I5
sg2358
I1300
sg2359
I0
ssI7
(dp2366
g2355
F0.5
sg2356
I5
sg2357
I5
sg2358
I1300
sg2359
I0
ssI8
(dp2367
g2355
F0.5
sg2356
I5
sg2357
I5
sg2358
I1300
sg2359
I0
ssI9
(dp2368
g2355
F0.5
sg2356
I5
sg2357
I5
sg2358
I1300
sg2359
I0
sssI5
(dp2369
I0
(dp2370
S'Learning Rate'
p2371
F0.5
sS'Num season factors'
p2372
I5
sS'Num home factors'
p2373
I5
sS'Iterations'
p2374
I1300
sS'Lambda'
p2375
I0
ssI1
(dp2376
g2371
F0.5
sg2372
I5
sg2373
I5
sg2374
I1300
sg2375
I0
ssI2
(dp2377
g2371
F0.5
sg2372
I5
sg2373
I5
sg2374
I1300
sg2375
I0
ssI3
(dp2378
g2371
F0.5
sg2372
I5
sg2373
I5
sg2374
I1300
sg2375
I0
ssI4
(dp2379
g2371
F0.5
sg2372
I5
sg2373
I5
sg2374
I1300
sg2375
I0
ssI5
(dp2380
g2371
F0.5
sg2372
I5
sg2373
I5
sg2374
I1300
sg2375
I0
ssI6
(dp2381
g2371
F0.5
sg2372
I5
sg2373
I5
sg2374
I1300
sg2375
I0
ssI7
(dp2382
g2371
F0.5
sg2372
I5
sg2373
I5
sg2374
I1300
sg2375
I0
ssI8
(dp2383
g2371
F0.5
sg2372
I5
sg2373
I5
sg2374
I1300
sg2375
I0
ssI9
(dp2384
g2371
F0.5
sg2372
I5
sg2373
I5
sg2374
I1300
sg2375
I0
sssI6
(dp2385
I0
(dp2386
S'Learning Rate'
p2387
F0.5
sS'Num season factors'
p2388
I5
sS'Num home factors'
p2389
I5
sS'Iterations'
p2390
I1300
sS'Lambda'
p2391
I0
ssI1
(dp2392
g2387
F0.5
sg2388
I5
sg2389
I5
sg2390
I1300
sg2391
I0
ssI2
(dp2393
g2387
F0.5
sg2388
I5
sg2389
I5
sg2390
I1300
sg2391
I0
ssI3
(dp2394
g2387
F0.5
sg2388
I5
sg2389
I5
sg2390
I1300
sg2391
I0
ssI4
(dp2395
g2387
F0.5
sg2388
I5
sg2389
I5
sg2390
I1300
sg2391
I0
ssI5
(dp2396
g2387
F0.5
sg2388
I5
sg2389
I5
sg2390
I1300
sg2391
I0
ssI6
(dp2397
g2387
F0.5
sg2388
I5
sg2389
I5
sg2390
I1300
sg2391
I0
ssI7
(dp2398
g2387
F0.5
sg2388
I5
sg2389
I5
sg2390
I1300
sg2391
I0
ssI8
(dp2399
g2387
F0.5
sg2388
I5
sg2389
I5
sg2390
I1300
sg2391
I0
ssI9
(dp2400
g2387
F0.5
sg2388
I5
sg2389
I5
sg2390
I1300
sg2391
I0
sssI7
(dp2401
I0
(dp2402
S'Learning Rate'
p2403
F0.5
sS'Num season factors'
p2404
I5
sS'Num home factors'
p2405
I5
sS'Iterations'
p2406
I1300
sS'Lambda'
p2407
I0
ssI1
(dp2408
g2403
F0.5
sg2404
I5
sg2405
I5
sg2406
I1300
sg2407
I0
ssI2
(dp2409
g2403
F0.5
sg2404
I5
sg2405
I5
sg2406
I1300
sg2407
I0
ssI3
(dp2410
g2403
F0.5
sg2404
I5
sg2405
I5
sg2406
I1300
sg2407
I0
ssI4
(dp2411
g2403
F0.5
sg2404
I5
sg2405
I5
sg2406
I1300
sg2407
I0
ssI5
(dp2412
g2403
F0.5
sg2404
I5
sg2405
I5
sg2406
I1300
sg2407
I0
ssI6
(dp2413
g2403
F0.5
sg2404
I5
sg2405
I5
sg2406
I1300
sg2407
I0
ssI7
(dp2414
g2403
F0.5
sg2404
I5
sg2405
I5
sg2406
I1300
sg2407
I0
ssI8
(dp2415
g2403
F0.5
sg2404
I5
sg2405
I5
sg2406
I1300
sg2407
I0
ssI9
(dp2416
g2403
F0.5
sg2404
I5
sg2405
I5
sg2406
I1300
sg2407
I0
sssI8
(dp2417
I0
(dp2418
S'Learning Rate'
p2419
F0.5
sS'Num season factors'
p2420
I5
sS'Num home factors'
p2421
I5
sS'Iterations'
p2422
I1300
sS'Lambda'
p2423
I0
ssI1
(dp2424
g2419
F0.5
sg2420
I5
sg2421
I5
sg2422
I1300
sg2423
I0
ssI2
(dp2425
g2419
F0.5
sg2420
I5
sg2421
I5
sg2422
I1300
sg2423
I0
ssI3
(dp2426
g2419
F0.5
sg2420
I5
sg2421
I5
sg2422
I1300
sg2423
I0
ssI4
(dp2427
g2419
F0.5
sg2420
I5
sg2421
I5
sg2422
I1300
sg2423
I0
ssI5
(dp2428
g2419
F0.5
sg2420
I5
sg2421
I5
sg2422
I1300
sg2423
I0
ssI6
(dp2429
g2419
F0.5
sg2420
I5
sg2421
I5
sg2422
I1300
sg2423
I0
ssI7
(dp2430
g2419
F0.5
sg2420
I5
sg2421
I5
sg2422
I1300
sg2423
I0
ssI8
(dp2431
g2419
F0.5
sg2420
I5
sg2421
I5
sg2422
I1300
sg2423
I0
ssI9
(dp2432
g2419
F0.5
sg2420
I5
sg2421
I5
sg2422
I1300
sg2423
I0
sssI9
(dp2433
I0
(dp2434
S'Learning Rate'
p2435
F0.5
sS'Num season factors'
p2436
I5
sS'Num home factors'
p2437
I5
sS'Iterations'
p2438
I1300
sS'Lambda'
p2439
I0
ssI1
(dp2440
g2435
F0.5
sg2436
I5
sg2437
I5
sg2438
I1300
sg2439
I0
ssI2
(dp2441
g2435
F0.5
sg2436
I5
sg2437
I5
sg2438
I1300
sg2439
I0
ssI3
(dp2442
g2435
F0.5
sg2436
I5
sg2437
I5
sg2438
I1300
sg2439
I0
ssI4
(dp2443
g2435
F0.5
sg2436
I5
sg2437
I5
sg2438
I1300
sg2439
I0
ssI5
(dp2444
g2435
F0.5
sg2436
I5
sg2437
I5
sg2438
I1300
sg2439
I0
ssI6
(dp2445
g2435
F0.5
sg2436
I5
sg2437
I5
sg2438
I1300
sg2439
I0
ssI7
(dp2446
g2435
F0.5
sg2436
I5
sg2437
I5
sg2438
I1300
sg2439
I0
ssI8
(dp2447
g2435
F0.5
sg2436
I5
sg2437
I5
sg2438
I1300
sg2439
I0
ssI9
(dp2448
g2435
F0.5
sg2436
I5
sg2437
I5
sg2438
I1300
sg2439
I0
sssssg168
(dp2449
F0.0
(dp2450
I0
(dp2451
I0
(dp2452
S'Learning Rate'
p2453
F0.5
sS'Num season factors'
p2454
I5
sS'Num home factors'
p2455
I5
sS'Iterations'
p2456
I1300
sS'Lambda'
p2457
I0
ssI1
(dp2458
g2453
F0.5
sg2454
I5
sg2455
I5
sg2456
I1300
sg2457
I0
ssI2
(dp2459
g2453
F0.5
sg2454
I5
sg2455
I5
sg2456
I1300
sg2457
I0
ssI3
(dp2460
g2453
F0.5
sg2454
I5
sg2455
I5
sg2456
I1300
sg2457
I0
ssI4
(dp2461
g2453
F0.5
sg2454
I5
sg2455
I5
sg2456
I1300
sg2457
I0
ssI5
(dp2462
g2453
F0.5
sg2454
I5
sg2455
I5
sg2456
I1300
sg2457
I0
ssI6
(dp2463
g2453
F0.5
sg2454
I5
sg2455
I5
sg2456
I1300
sg2457
I0
ssI7
(dp2464
g2453
F0.5
sg2454
I5
sg2455
I5
sg2456
I1300
sg2457
I0
ssI8
(dp2465
g2453
F0.5
sg2454
I5
sg2455
I5
sg2456
I1300
sg2457
I0
ssI9
(dp2466
g2453
F0.5
sg2454
I5
sg2455
I5
sg2456
I1300
sg2457
I0
sssI1
(dp2467
I0
(dp2468
S'Learning Rate'
p2469
F0.5
sS'Num season factors'
p2470
I5
sS'Num home factors'
p2471
I5
sS'Iterations'
p2472
I1300
sS'Lambda'
p2473
I0
ssI1
(dp2474
g2469
F0.5
sg2470
I5
sg2471
I5
sg2472
I1300
sg2473
I0
ssI2
(dp2475
g2469
F0.5
sg2470
I5
sg2471
I5
sg2472
I1300
sg2473
I0
ssI3
(dp2476
g2469
F0.5
sg2470
I5
sg2471
I5
sg2472
I1300
sg2473
I0
ssI4
(dp2477
g2469
F0.5
sg2470
I5
sg2471
I5
sg2472
I1300
sg2473
I0
ssI5
(dp2478
g2469
F0.5
sg2470
I5
sg2471
I5
sg2472
I1300
sg2473
I0
ssI6
(dp2479
g2469
F0.5
sg2470
I5
sg2471
I5
sg2472
I1300
sg2473
I0
ssI7
(dp2480
g2469
F0.5
sg2470
I5
sg2471
I5
sg2472
I1300
sg2473
I0
ssI8
(dp2481
g2469
F0.5
sg2470
I5
sg2471
I5
sg2472
I1300
sg2473
I0
ssI9
(dp2482
g2469
F0.5
sg2470
I5
sg2471
I5
sg2472
I1300
sg2473
I0
sssI2
(dp2483
I0
(dp2484
S'Learning Rate'
p2485
F0.5
sS'Num season factors'
p2486
I5
sS'Num home factors'
p2487
I5
sS'Iterations'
p2488
I1300
sS'Lambda'
p2489
I0
ssI1
(dp2490
g2485
F0.5
sg2486
I5
sg2487
I5
sg2488
I1300
sg2489
I0
ssI2
(dp2491
g2485
F0.5
sg2486
I5
sg2487
I5
sg2488
I1300
sg2489
I0
ssI3
(dp2492
g2485
F0.5
sg2486
I5
sg2487
I5
sg2488
I1300
sg2489
I0
ssI4
(dp2493
g2485
F0.5
sg2486
I5
sg2487
I5
sg2488
I1300
sg2489
I0
ssI5
(dp2494
g2485
F0.5
sg2486
I5
sg2487
I5
sg2488
I1300
sg2489
I0
ssI6
(dp2495
g2485
F0.5
sg2486
I5
sg2487
I5
sg2488
I1300
sg2489
I0
ssI7
(dp2496
g2485
F0.5
sg2486
I5
sg2487
I5
sg2488
I1300
sg2489
I0
ssI8
(dp2497
g2485
F0.5
sg2486
I5
sg2487
I5
sg2488
I1300
sg2489
I0
ssI9
(dp2498
g2485
F0.5
sg2486
I5
sg2487
I5
sg2488
I1300
sg2489
I0
sssI3
(dp2499
I0
(dp2500
S'Learning Rate'
p2501
F0.5
sS'Num season factors'
p2502
I5
sS'Num home factors'
p2503
I5
sS'Iterations'
p2504
I1300
sS'Lambda'
p2505
I0
ssI1
(dp2506
g2501
F0.5
sg2502
I5
sg2503
I5
sg2504
I1300
sg2505
I0
ssI2
(dp2507
g2501
F0.5
sg2502
I5
sg2503
I5
sg2504
I1300
sg2505
I0
ssI3
(dp2508
g2501
F0.5
sg2502
I5
sg2503
I5
sg2504
I1300
sg2505
I0
ssI4
(dp2509
g2501
F0.5
sg2502
I5
sg2503
I5
sg2504
I1300
sg2505
I0
ssI5
(dp2510
g2501
F0.5
sg2502
I5
sg2503
I5
sg2504
I1300
sg2505
I0
ssI6
(dp2511
g2501
F0.5
sg2502
I5
sg2503
I5
sg2504
I1300
sg2505
I0
ssI7
(dp2512
g2501
F0.5
sg2502
I5
sg2503
I5
sg2504
I1300
sg2505
I0
ssI8
(dp2513
g2501
F0.5
sg2502
I5
sg2503
I5
sg2504
I1300
sg2505
I0
ssI9
(dp2514
g2501
F0.5
sg2502
I5
sg2503
I5
sg2504
I1300
sg2505
I0
sssI4
(dp2515
I0
(dp2516
S'Learning Rate'
p2517
F0.5
sS'Num season factors'
p2518
I5
sS'Num home factors'
p2519
I5
sS'Iterations'
p2520
I1300
sS'Lambda'
p2521
I0
ssI1
(dp2522
g2517
F0.5
sg2518
I5
sg2519
I5
sg2520
I1300
sg2521
I0
ssI2
(dp2523
g2517
F0.5
sg2518
I5
sg2519
I5
sg2520
I1300
sg2521
I0
ssI3
(dp2524
g2517
F0.5
sg2518
I5
sg2519
I5
sg2520
I1300
sg2521
I0
ssI4
(dp2525
g2517
F0.5
sg2518
I5
sg2519
I5
sg2520
I1300
sg2521
I0
ssI5
(dp2526
g2517
F0.5
sg2518
I5
sg2519
I5
sg2520
I1300
sg2521
I0
ssI6
(dp2527
g2517
F0.5
sg2518
I5
sg2519
I5
sg2520
I1300
sg2521
I0
ssI7
(dp2528
g2517
F0.5
sg2518
I5
sg2519
I5
sg2520
I1300
sg2521
I0
ssI8
(dp2529
g2517
F0.5
sg2518
I5
sg2519
I5
sg2520
I1300
sg2521
I0
ssI9
(dp2530
g2517
F0.5
sg2518
I5
sg2519
I5
sg2520
I1300
sg2521
I0
sssI5
(dp2531
I0
(dp2532
S'Learning Rate'
p2533
F0.5
sS'Num season factors'
p2534
I5
sS'Num home factors'
p2535
I5
sS'Iterations'
p2536
I1300
sS'Lambda'
p2537
I0
ssI1
(dp2538
g2533
F0.5
sg2534
I5
sg2535
I5
sg2536
I1300
sg2537
I0
ssI2
(dp2539
g2533
F0.5
sg2534
I5
sg2535
I5
sg2536
I1300
sg2537
I0
ssI3
(dp2540
g2533
F0.5
sg2534
I5
sg2535
I5
sg2536
I1300
sg2537
I0
ssI4
(dp2541
g2533
F0.5
sg2534
I5
sg2535
I5
sg2536
I1300
sg2537
I0
ssI5
(dp2542
g2533
F0.5
sg2534
I5
sg2535
I5
sg2536
I1300
sg2537
I0
ssI6
(dp2543
g2533
F0.5
sg2534
I5
sg2535
I5
sg2536
I1300
sg2537
I0
ssI7
(dp2544
g2533
F0.5
sg2534
I5
sg2535
I5
sg2536
I1300
sg2537
I0
ssI8
(dp2545
g2533
F0.5
sg2534
I5
sg2535
I5
sg2536
I1300
sg2537
I0
ssI9
(dp2546
g2533
F0.5
sg2534
I5
sg2535
I5
sg2536
I1300
sg2537
I0
sssI6
(dp2547
I0
(dp2548
S'Learning Rate'
p2549
F0.5
sS'Num season factors'
p2550
I5
sS'Num home factors'
p2551
I5
sS'Iterations'
p2552
I1300
sS'Lambda'
p2553
I0
ssI1
(dp2554
g2549
F0.5
sg2550
I5
sg2551
I5
sg2552
I1300
sg2553
I0
ssI2
(dp2555
g2549
F0.5
sg2550
I5
sg2551
I5
sg2552
I1300
sg2553
I0
ssI3
(dp2556
g2549
F0.5
sg2550
I5
sg2551
I5
sg2552
I1300
sg2553
I0
ssI4
(dp2557
g2549
F0.5
sg2550
I5
sg2551
I5
sg2552
I1300
sg2553
I0
ssI5
(dp2558
g2549
F0.5
sg2550
I5
sg2551
I5
sg2552
I1300
sg2553
I0
ssI6
(dp2559
g2549
F0.5
sg2550
I5
sg2551
I5
sg2552
I1300
sg2553
I0
ssI7
(dp2560
g2549
F0.5
sg2550
I5
sg2551
I5
sg2552
I1300
sg2553
I0
ssI8
(dp2561
g2549
F0.5
sg2550
I5
sg2551
I5
sg2552
I1300
sg2553
I0
ssI9
(dp2562
g2549
F0.5
sg2550
I5
sg2551
I5
sg2552
I1300
sg2553
I0
sssI7
(dp2563
I0
(dp2564
S'Learning Rate'
p2565
F0.5
sS'Num season factors'
p2566
I5
sS'Num home factors'
p2567
I5
sS'Iterations'
p2568
I1300
sS'Lambda'
p2569
I0
ssI1
(dp2570
g2565
F0.5
sg2566
I5
sg2567
I5
sg2568
I1300
sg2569
I0
ssI2
(dp2571
g2565
F0.5
sg2566
I5
sg2567
I5
sg2568
I1300
sg2569
I0
ssI3
(dp2572
g2565
F0.5
sg2566
I5
sg2567
I5
sg2568
I1300
sg2569
I0
ssI4
(dp2573
g2565
F0.5
sg2566
I5
sg2567
I5
sg2568
I1300
sg2569
I0
ssI5
(dp2574
g2565
F0.5
sg2566
I5
sg2567
I5
sg2568
I1300
sg2569
I0
ssI6
(dp2575
g2565
F0.5
sg2566
I5
sg2567
I5
sg2568
I1300
sg2569
I0
ssI7
(dp2576
g2565
F0.5
sg2566
I5
sg2567
I5
sg2568
I1300
sg2569
I0
ssI8
(dp2577
g2565
F0.5
sg2566
I5
sg2567
I5
sg2568
I1300
sg2569
I0
ssI9
(dp2578
g2565
F0.5
sg2566
I5
sg2567
I5
sg2568
I1300
sg2569
I0
sssI8
(dp2579
I0
(dp2580
S'Learning Rate'
p2581
F0.5
sS'Num season factors'
p2582
I5
sS'Num home factors'
p2583
I5
sS'Iterations'
p2584
I1300
sS'Lambda'
p2585
I0
ssI1
(dp2586
g2581
F0.5
sg2582
I5
sg2583
I5
sg2584
I1300
sg2585
I0
ssI2
(dp2587
g2581
F0.5
sg2582
I5
sg2583
I5
sg2584
I1300
sg2585
I0
ssI3
(dp2588
g2581
F0.5
sg2582
I5
sg2583
I5
sg2584
I1300
sg2585
I0
ssI4
(dp2589
g2581
F0.5
sg2582
I5
sg2583
I5
sg2584
I1300
sg2585
I0
ssI5
(dp2590
g2581
F0.5
sg2582
I5
sg2583
I5
sg2584
I1300
sg2585
I0
ssI6
(dp2591
g2581
F0.5
sg2582
I5
sg2583
I5
sg2584
I1300
sg2585
I0
ssI7
(dp2592
g2581
F0.5
sg2582
I5
sg2583
I5
sg2584
I1300
sg2585
I0
ssI8
(dp2593
g2581
F0.5
sg2582
I5
sg2583
I5
sg2584
I1300
sg2585
I0
ssI9
(dp2594
g2581
F0.5
sg2582
I5
sg2583
I5
sg2584
I1300
sg2585
I0
sssI9
(dp2595
I0
(dp2596
S'Learning Rate'
p2597
F0.5
sS'Num season factors'
p2598
I5
sS'Num home factors'
p2599
I5
sS'Iterations'
p2600
I1300
sS'Lambda'
p2601
I0
ssI1
(dp2602
g2597
F0.5
sg2598
I5
sg2599
I5
sg2600
I1300
sg2601
I0
ssI2
(dp2603
g2597
F0.5
sg2598
I5
sg2599
I5
sg2600
I1300
sg2601
I0
ssI3
(dp2604
g2597
F0.5
sg2598
I5
sg2599
I5
sg2600
I1300
sg2601
I0
ssI4
(dp2605
g2597
F0.5
sg2598
I5
sg2599
I5
sg2600
I1300
sg2601
I0
ssI5
(dp2606
g2597
F0.5
sg2598
I5
sg2599
I5
sg2600
I1300
sg2601
I0
ssI6
(dp2607
g2597
F0.5
sg2598
I5
sg2599
I5
sg2600
I1300
sg2601
I0
ssI7
(dp2608
g2597
F0.5
sg2598
I5
sg2599
I5
sg2600
I1300
sg2601
I0
ssI8
(dp2609
g2597
F0.5
sg2598
I5
sg2599
I5
sg2600
I1300
sg2601
I0
ssI9
(dp2610
g2597
F0.5
sg2598
I5
sg2599
I5
sg2600
I1300
sg2601
I0
ssssssss.