(dp0
I2
(dp1
S'True'
p2
(dp3
g2
(dp4
S'transfer'
p5
(dp6
F0.0
(dp7
I0
(dp8
I0
(dp9
S'Learning Rate'
p10
I2
sS'Num season factors'
p11
I5
sS'Num home factors'
p12
I5
sS'Iterations'
p13
I1300
sS'Lambda'
p14
I0
ssI1
(dp15
g10
I2
sg11
I5
sg12
I5
sg13
I1300
sg14
I0
ssI2
(dp16
g10
I2
sg11
I5
sg12
I5
sg13
I1300
sg14
I0
ssI3
(dp17
g10
I2
sg11
I5
sg12
I5
sg13
I1300
sg14
I0
ssI4
(dp18
g10
I2
sg11
I5
sg12
I5
sg13
I1300
sg14
I0
ssI5
(dp19
g10
I2
sg11
I5
sg12
I5
sg13
I1300
sg14
I0
ssI6
(dp20
g10
I2
sg11
I5
sg12
I5
sg13
I1300
sg14
I0
ssI7
(dp21
g10
I2
sg11
I5
sg12
I5
sg13
I1300
sg14
I0
ssI8
(dp22
g10
I2
sg11
I5
sg12
I5
sg13
I1300
sg14
I0
ssI9
(dp23
g10
I2
sg11
I5
sg12
I5
sg13
I1300
sg14
I0
sssI1
(dp24
I0
(dp25
S'Learning Rate'
p26
I2
sS'Num season factors'
p27
I5
sS'Num home factors'
p28
I5
sS'Iterations'
p29
I1300
sS'Lambda'
p30
I0
ssI1
(dp31
g26
I2
sg27
I5
sg28
I5
sg29
I1300
sg30
I0
ssI2
(dp32
g26
I2
sg27
I5
sg28
I5
sg29
I1300
sg30
I0
ssI3
(dp33
g26
I2
sg27
I5
sg28
I5
sg29
I1300
sg30
I0
ssI4
(dp34
g26
I2
sg27
I5
sg28
I5
sg29
I1300
sg30
I0
ssI5
(dp35
g26
I2
sg27
I5
sg28
I5
sg29
I1300
sg30
I0
ssI6
(dp36
g26
I2
sg27
I5
sg28
I5
sg29
I1300
sg30
I0
ssI7
(dp37
g26
I2
sg27
I5
sg28
I5
sg29
I1300
sg30
I0
ssI8
(dp38
g26
I2
sg27
I5
sg28
I5
sg29
I1300
sg30
I0
ssI9
(dp39
g26
I2
sg27
I5
sg28
I5
sg29
I1300
sg30
I0
sssI2
(dp40
I0
(dp41
S'Learning Rate'
p42
I2
sS'Num season factors'
p43
I5
sS'Num home factors'
p44
I5
sS'Iterations'
p45
I1300
sS'Lambda'
p46
I0
ssI1
(dp47
g42
I2
sg43
I5
sg44
I5
sg45
I1300
sg46
I0
ssI2
(dp48
g42
I2
sg43
I5
sg44
I5
sg45
I1300
sg46
I0
ssI3
(dp49
g42
I2
sg43
I5
sg44
I5
sg45
I1300
sg46
I0
ssI4
(dp50
g42
I2
sg43
I5
sg44
I5
sg45
I1300
sg46
I0
ssI5
(dp51
g42
I2
sg43
I5
sg44
I5
sg45
I1300
sg46
I0
ssI6
(dp52
g42
I2
sg43
I5
sg44
I5
sg45
I1300
sg46
I0
ssI7
(dp53
g42
I2
sg43
I5
sg44
I5
sg45
I1300
sg46
I0
ssI8
(dp54
g42
I2
sg43
I5
sg44
I5
sg45
I1300
sg46
I0
ssI9
(dp55
g42
I2
sg43
I5
sg44
I5
sg45
I1300
sg46
I0
sssI3
(dp56
I0
(dp57
S'Learning Rate'
p58
I2
sS'Num season factors'
p59
I5
sS'Num home factors'
p60
I5
sS'Iterations'
p61
I1300
sS'Lambda'
p62
I0
ssI1
(dp63
g58
I2
sg59
I5
sg60
I5
sg61
I1300
sg62
I0
ssI2
(dp64
g58
I2
sg59
I5
sg60
I5
sg61
I1300
sg62
I0
ssI3
(dp65
g58
I2
sg59
I5
sg60
I5
sg61
I1300
sg62
I0
ssI4
(dp66
g58
I2
sg59
I5
sg60
I5
sg61
I1300
sg62
I0
ssI5
(dp67
g58
I2
sg59
I5
sg60
I5
sg61
I1300
sg62
I0
ssI6
(dp68
g58
I2
sg59
I5
sg60
I5
sg61
I1300
sg62
I0
ssI7
(dp69
g58
I2
sg59
I5
sg60
I5
sg61
I1300
sg62
I0
ssI8
(dp70
g58
I2
sg59
I5
sg60
I5
sg61
I1300
sg62
I0
ssI9
(dp71
g58
I2
sg59
I5
sg60
I5
sg61
I1300
sg62
I0
sssI4
(dp72
I0
(dp73
S'Learning Rate'
p74
I2
sS'Num season factors'
p75
I5
sS'Num home factors'
p76
I5
sS'Iterations'
p77
I1300
sS'Lambda'
p78
I0
ssI1
(dp79
g74
I2
sg75
I5
sg76
I5
sg77
I1300
sg78
I0
ssI2
(dp80
g74
I2
sg75
I5
sg76
I5
sg77
I1300
sg78
I0
ssI3
(dp81
g74
I2
sg75
I5
sg76
I5
sg77
I1300
sg78
I0
ssI4
(dp82
g74
I2
sg75
I5
sg76
I5
sg77
I1300
sg78
I0
ssI5
(dp83
g74
I2
sg75
I5
sg76
I5
sg77
I1300
sg78
I0
ssI6
(dp84
g74
I2
sg75
I5
sg76
I5
sg77
I1300
sg78
I0
ssI7
(dp85
g74
I2
sg75
I5
sg76
I5
sg77
I1300
sg78
I0
ssI8
(dp86
g74
I2
sg75
I5
sg76
I5
sg77
I1300
sg78
I0
ssI9
(dp87
g74
I2
sg75
I5
sg76
I5
sg77
I1300
sg78
I0
sssI5
(dp88
I0
(dp89
S'Learning Rate'
p90
I2
sS'Num season factors'
p91
I5
sS'Num home factors'
p92
I5
sS'Iterations'
p93
I1300
sS'Lambda'
p94
I0
ssI1
(dp95
g90
I2
sg91
I5
sg92
I5
sg93
I1300
sg94
I0
ssI2
(dp96
g90
I2
sg91
I5
sg92
I5
sg93
I1300
sg94
I0
ssI3
(dp97
g90
I2
sg91
I5
sg92
I5
sg93
I1300
sg94
I0
ssI4
(dp98
g90
I2
sg91
I5
sg92
I5
sg93
I1300
sg94
I0
ssI5
(dp99
g90
I2
sg91
I5
sg92
I5
sg93
I1300
sg94
I0
ssI6
(dp100
g90
I2
sg91
I5
sg92
I5
sg93
I1300
sg94
I0
ssI7
(dp101
g90
I2
sg91
I5
sg92
I5
sg93
I1300
sg94
I0
ssI8
(dp102
g90
I2
sg91
I5
sg92
I5
sg93
I1300
sg94
I0
ssI9
(dp103
g90
I2
sg91
I5
sg92
I5
sg93
I1300
sg94
I0
sssI6
(dp104
I0
(dp105
S'Learning Rate'
p106
I2
sS'Num season factors'
p107
I5
sS'Num home factors'
p108
I5
sS'Iterations'
p109
I1300
sS'Lambda'
p110
I0
ssI1
(dp111
g106
I2
sg107
I5
sg108
I5
sg109
I1300
sg110
I0
ssI2
(dp112
g106
I2
sg107
I5
sg108
I5
sg109
I1300
sg110
I0
ssI3
(dp113
g106
I2
sg107
I5
sg108
I5
sg109
I1300
sg110
I0
ssI4
(dp114
g106
I2
sg107
I5
sg108
I5
sg109
I1300
sg110
I0
ssI5
(dp115
g106
I2
sg107
I5
sg108
I5
sg109
I1300
sg110
I0
ssI6
(dp116
g106
I2
sg107
I5
sg108
I5
sg109
I1300
sg110
I0
ssI7
(dp117
g106
I2
sg107
I5
sg108
I5
sg109
I1300
sg110
I0
ssI8
(dp118
g106
I2
sg107
I5
sg108
I5
sg109
I1300
sg110
I0
ssI9
(dp119
g106
I2
sg107
I5
sg108
I5
sg109
I1300
sg110
I0
sssI7
(dp120
I0
(dp121
S'Learning Rate'
p122
I2
sS'Num season factors'
p123
I5
sS'Num home factors'
p124
I5
sS'Iterations'
p125
I1300
sS'Lambda'
p126
I0
ssI1
(dp127
g122
I2
sg123
I5
sg124
I5
sg125
I1300
sg126
I0
ssI2
(dp128
g122
I2
sg123
I5
sg124
I5
sg125
I1300
sg126
I0
ssI3
(dp129
g122
I2
sg123
I5
sg124
I5
sg125
I1300
sg126
I0
ssI4
(dp130
g122
I2
sg123
I5
sg124
I5
sg125
I1300
sg126
I0
ssI5
(dp131
g122
I2
sg123
I5
sg124
I5
sg125
I1300
sg126
I0
ssI6
(dp132
g122
I2
sg123
I5
sg124
I5
sg125
I1300
sg126
I0
ssI7
(dp133
g122
I2
sg123
I5
sg124
I5
sg125
I1300
sg126
I0
ssI8
(dp134
g122
I2
sg123
I5
sg124
I5
sg125
I1300
sg126
I0
ssI9
(dp135
g122
I2
sg123
I5
sg124
I5
sg125
I1300
sg126
I0
sssI8
(dp136
I0
(dp137
S'Learning Rate'
p138
I2
sS'Num season factors'
p139
I5
sS'Num home factors'
p140
I5
sS'Iterations'
p141
I1300
sS'Lambda'
p142
I0
ssI1
(dp143
g138
I2
sg139
I5
sg140
I5
sg141
I1300
sg142
I0
ssI2
(dp144
g138
I2
sg139
I5
sg140
I5
sg141
I1300
sg142
I0
ssI3
(dp145
g138
I2
sg139
I5
sg140
I5
sg141
I1300
sg142
I0
ssI4
(dp146
g138
I2
sg139
I5
sg140
I5
sg141
I1300
sg142
I0
ssI5
(dp147
g138
I2
sg139
I5
sg140
I5
sg141
I1300
sg142
I0
ssI6
(dp148
g138
I2
sg139
I5
sg140
I5
sg141
I1300
sg142
I0
ssI7
(dp149
g138
I2
sg139
I5
sg140
I5
sg141
I1300
sg142
I0
ssI8
(dp150
g138
I2
sg139
I5
sg140
I5
sg141
I1300
sg142
I0
ssI9
(dp151
g138
I2
sg139
I5
sg140
I5
sg141
I1300
sg142
I0
sssI9
(dp152
I0
(dp153
S'Learning Rate'
p154
I2
sS'Num season factors'
p155
I5
sS'Num home factors'
p156
I5
sS'Iterations'
p157
I1300
sS'Lambda'
p158
I0
ssI1
(dp159
g154
I2
sg155
I5
sg156
I5
sg157
I1300
sg158
I0
ssI2
(dp160
g154
I2
sg155
I5
sg156
I5
sg157
I1300
sg158
I0
ssI3
(dp161
g154
I2
sg155
I5
sg156
I5
sg157
I1300
sg158
I0
ssI4
(dp162
g154
I2
sg155
I5
sg156
I5
sg157
I1300
sg158
I0
ssI5
(dp163
g154
I2
sg155
I5
sg156
I5
sg157
I1300
sg158
I0
ssI6
(dp164
g154
I2
sg155
I5
sg156
I5
sg157
I1300
sg158
I0
ssI7
(dp165
g154
I2
sg155
I5
sg156
I5
sg157
I1300
sg158
I0
ssI8
(dp166
g154
I2
sg155
I5
sg156
I5
sg157
I1300
sg158
I0
ssI9
(dp167
g154
I2
sg155
I5
sg156
I5
sg157
I1300
sg158
I0
sssssS'normal'
p168
(dp169
F0.0
(dp170
I0
(dp171
I0
(dp172
S'Learning Rate'
p173
I2
sS'Num season factors'
p174
I5
sS'Num home factors'
p175
I5
sS'Iterations'
p176
I1300
sS'Lambda'
p177
I0
ssI1
(dp178
g173
I2
sg174
I5
sg175
I5
sg176
I1300
sg177
I0
ssI2
(dp179
g173
I2
sg174
I5
sg175
I5
sg176
I1300
sg177
I0
ssI3
(dp180
g173
I2
sg174
I5
sg175
I5
sg176
I1300
sg177
I0
ssI4
(dp181
g173
I2
sg174
I5
sg175
I5
sg176
I1300
sg177
I0
ssI5
(dp182
g173
I2
sg174
I5
sg175
I5
sg176
I1300
sg177
I0
ssI6
(dp183
g173
I2
sg174
I5
sg175
I5
sg176
I1300
sg177
I0
ssI7
(dp184
g173
I2
sg174
I5
sg175
I5
sg176
I1300
sg177
I0
ssI8
(dp185
g173
I2
sg174
I5
sg175
I5
sg176
I1300
sg177
I0
ssI9
(dp186
g173
I2
sg174
I5
sg175
I5
sg176
I1300
sg177
I0
sssI1
(dp187
I0
(dp188
S'Learning Rate'
p189
I2
sS'Num season factors'
p190
I5
sS'Num home factors'
p191
I5
sS'Iterations'
p192
I1300
sS'Lambda'
p193
I0
ssI1
(dp194
g189
I2
sg190
I5
sg191
I5
sg192
I1300
sg193
I0
ssI2
(dp195
g189
I2
sg190
I5
sg191
I5
sg192
I1300
sg193
I0
ssI3
(dp196
g189
I2
sg190
I5
sg191
I5
sg192
I1300
sg193
I0
ssI4
(dp197
g189
I2
sg190
I5
sg191
I5
sg192
I1300
sg193
I0
ssI5
(dp198
g189
I2
sg190
I5
sg191
I5
sg192
I1300
sg193
I0
ssI6
(dp199
g189
I2
sg190
I5
sg191
I5
sg192
I1300
sg193
I0
ssI7
(dp200
g189
I2
sg190
I5
sg191
I5
sg192
I1300
sg193
I0
ssI8
(dp201
g189
I2
sg190
I5
sg191
I5
sg192
I1300
sg193
I0
ssI9
(dp202
g189
I2
sg190
I5
sg191
I5
sg192
I1300
sg193
I0
sssI2
(dp203
I0
(dp204
S'Learning Rate'
p205
I2
sS'Num season factors'
p206
I5
sS'Num home factors'
p207
I5
sS'Iterations'
p208
I1300
sS'Lambda'
p209
I0
ssI1
(dp210
g205
I2
sg206
I5
sg207
I5
sg208
I1300
sg209
I0
ssI2
(dp211
g205
I2
sg206
I5
sg207
I5
sg208
I1300
sg209
I0
ssI3
(dp212
g205
I2
sg206
I5
sg207
I5
sg208
I1300
sg209
I0
ssI4
(dp213
g205
I2
sg206
I5
sg207
I5
sg208
I1300
sg209
I0
ssI5
(dp214
g205
I2
sg206
I5
sg207
I5
sg208
I1300
sg209
I0
ssI6
(dp215
g205
I2
sg206
I5
sg207
I5
sg208
I1300
sg209
I0
ssI7
(dp216
g205
I2
sg206
I5
sg207
I5
sg208
I1300
sg209
I0
ssI8
(dp217
g205
I2
sg206
I5
sg207
I5
sg208
I1300
sg209
I0
ssI9
(dp218
g205
I2
sg206
I5
sg207
I5
sg208
I1300
sg209
I0
sssI3
(dp219
I0
(dp220
S'Learning Rate'
p221
I2
sS'Num season factors'
p222
I5
sS'Num home factors'
p223
I5
sS'Iterations'
p224
I1300
sS'Lambda'
p225
I0
ssI1
(dp226
g221
I2
sg222
I5
sg223
I5
sg224
I1300
sg225
I0
ssI2
(dp227
g221
I2
sg222
I5
sg223
I5
sg224
I1300
sg225
I0
ssI3
(dp228
g221
I2
sg222
I5
sg223
I5
sg224
I1300
sg225
I0
ssI4
(dp229
g221
I2
sg222
I5
sg223
I5
sg224
I1300
sg225
I0
ssI5
(dp230
g221
I2
sg222
I5
sg223
I5
sg224
I1300
sg225
I0
ssI6
(dp231
g221
I2
sg222
I5
sg223
I5
sg224
I1300
sg225
I0
ssI7
(dp232
g221
I2
sg222
I5
sg223
I5
sg224
I1300
sg225
I0
ssI8
(dp233
g221
I2
sg222
I5
sg223
I5
sg224
I1300
sg225
I0
ssI9
(dp234
g221
I2
sg222
I5
sg223
I5
sg224
I1300
sg225
I0
sssI4
(dp235
I0
(dp236
S'Learning Rate'
p237
I2
sS'Num season factors'
p238
I5
sS'Num home factors'
p239
I5
sS'Iterations'
p240
I1300
sS'Lambda'
p241
I0
ssI1
(dp242
g237
I2
sg238
I5
sg239
I5
sg240
I1300
sg241
I0
ssI2
(dp243
g237
I2
sg238
I5
sg239
I5
sg240
I1300
sg241
I0
ssI3
(dp244
g237
I2
sg238
I5
sg239
I5
sg240
I1300
sg241
I0
ssI4
(dp245
g237
I2
sg238
I5
sg239
I5
sg240
I1300
sg241
I0
ssI5
(dp246
g237
I2
sg238
I5
sg239
I5
sg240
I1300
sg241
I0
ssI6
(dp247
g237
I2
sg238
I5
sg239
I5
sg240
I1300
sg241
I0
ssI7
(dp248
g237
I2
sg238
I5
sg239
I5
sg240
I1300
sg241
I0
ssI8
(dp249
g237
I2
sg238
I5
sg239
I5
sg240
I1300
sg241
I0
ssI9
(dp250
g237
I2
sg238
I5
sg239
I5
sg240
I1300
sg241
I0
sssI5
(dp251
I0
(dp252
S'Learning Rate'
p253
I2
sS'Num season factors'
p254
I5
sS'Num home factors'
p255
I5
sS'Iterations'
p256
I1300
sS'Lambda'
p257
I0
ssI1
(dp258
g253
I2
sg254
I5
sg255
I5
sg256
I1300
sg257
I0
ssI2
(dp259
g253
I2
sg254
I5
sg255
I5
sg256
I1300
sg257
I0
ssI3
(dp260
g253
I2
sg254
I5
sg255
I5
sg256
I1300
sg257
I0
ssI4
(dp261
g253
I2
sg254
I5
sg255
I5
sg256
I1300
sg257
I0
ssI5
(dp262
g253
I2
sg254
I5
sg255
I5
sg256
I1300
sg257
I0
ssI6
(dp263
g253
I2
sg254
I5
sg255
I5
sg256
I1300
sg257
I0
ssI7
(dp264
g253
I2
sg254
I5
sg255
I5
sg256
I1300
sg257
I0
ssI8
(dp265
g253
I2
sg254
I5
sg255
I5
sg256
I1300
sg257
I0
ssI9
(dp266
g253
I2
sg254
I5
sg255
I5
sg256
I1300
sg257
I0
sssI6
(dp267
I0
(dp268
S'Learning Rate'
p269
I2
sS'Num season factors'
p270
I5
sS'Num home factors'
p271
I5
sS'Iterations'
p272
I1300
sS'Lambda'
p273
I0
ssI1
(dp274
g269
I2
sg270
I5
sg271
I5
sg272
I1300
sg273
I0
ssI2
(dp275
g269
I2
sg270
I5
sg271
I5
sg272
I1300
sg273
I0
ssI3
(dp276
g269
I2
sg270
I5
sg271
I5
sg272
I1300
sg273
I0
ssI4
(dp277
g269
I2
sg270
I5
sg271
I5
sg272
I1300
sg273
I0
ssI5
(dp278
g269
I2
sg270
I5
sg271
I5
sg272
I1300
sg273
I0
ssI6
(dp279
g269
I2
sg270
I5
sg271
I5
sg272
I1300
sg273
I0
ssI7
(dp280
g269
I2
sg270
I5
sg271
I5
sg272
I1300
sg273
I0
ssI8
(dp281
g269
I2
sg270
I5
sg271
I5
sg272
I1300
sg273
I0
ssI9
(dp282
g269
I2
sg270
I5
sg271
I5
sg272
I1300
sg273
I0
sssI7
(dp283
I0
(dp284
S'Learning Rate'
p285
I2
sS'Num season factors'
p286
I5
sS'Num home factors'
p287
I5
sS'Iterations'
p288
I1300
sS'Lambda'
p289
I0
ssI1
(dp290
g285
I2
sg286
I5
sg287
I5
sg288
I1300
sg289
I0
ssI2
(dp291
g285
I2
sg286
I5
sg287
I5
sg288
I1300
sg289
I0
ssI3
(dp292
g285
I2
sg286
I5
sg287
I5
sg288
I1300
sg289
I0
ssI4
(dp293
g285
I2
sg286
I5
sg287
I5
sg288
I1300
sg289
I0
ssI5
(dp294
g285
I2
sg286
I5
sg287
I5
sg288
I1300
sg289
I0
ssI6
(dp295
g285
I2
sg286
I5
sg287
I5
sg288
I1300
sg289
I0
ssI7
(dp296
g285
I2
sg286
I5
sg287
I5
sg288
I1300
sg289
I0
ssI8
(dp297
g285
I2
sg286
I5
sg287
I5
sg288
I1300
sg289
I0
ssI9
(dp298
g285
I2
sg286
I5
sg287
I5
sg288
I1300
sg289
I0
sssI8
(dp299
I0
(dp300
S'Learning Rate'
p301
I2
sS'Num season factors'
p302
I5
sS'Num home factors'
p303
I5
sS'Iterations'
p304
I1300
sS'Lambda'
p305
I0
ssI1
(dp306
g301
I2
sg302
I5
sg303
I5
sg304
I1300
sg305
I0
ssI2
(dp307
g301
I2
sg302
I5
sg303
I5
sg304
I1300
sg305
I0
ssI3
(dp308
g301
I2
sg302
I5
sg303
I5
sg304
I1300
sg305
I0
ssI4
(dp309
g301
I2
sg302
I5
sg303
I5
sg304
I1300
sg305
I0
ssI5
(dp310
g301
I2
sg302
I5
sg303
I5
sg304
I1300
sg305
I0
ssI6
(dp311
g301
I2
sg302
I5
sg303
I5
sg304
I1300
sg305
I0
ssI7
(dp312
g301
I2
sg302
I5
sg303
I5
sg304
I1300
sg305
I0
ssI8
(dp313
g301
I2
sg302
I5
sg303
I5
sg304
I1300
sg305
I0
ssI9
(dp314
g301
I2
sg302
I5
sg303
I5
sg304
I1300
sg305
I0
sssI9
(dp315
I0
(dp316
S'Learning Rate'
p317
I2
sS'Num season factors'
p318
I5
sS'Num home factors'
p319
I5
sS'Iterations'
p320
I1300
sS'Lambda'
p321
I0
ssI1
(dp322
g317
I2
sg318
I5
sg319
I5
sg320
I1300
sg321
I0
ssI2
(dp323
g317
I2
sg318
I5
sg319
I5
sg320
I1300
sg321
I0
ssI3
(dp324
g317
I2
sg318
I5
sg319
I5
sg320
I1300
sg321
I0
ssI4
(dp325
g317
I2
sg318
I5
sg319
I5
sg320
I1300
sg321
I0
ssI5
(dp326
g317
I2
sg318
I5
sg319
I5
sg320
I1300
sg321
I0
ssI6
(dp327
g317
I2
sg318
I5
sg319
I5
sg320
I1300
sg321
I0
ssI7
(dp328
g317
I2
sg318
I5
sg319
I5
sg320
I1300
sg321
I0
ssI8
(dp329
g317
I2
sg318
I5
sg319
I5
sg320
I1300
sg321
I0
ssI9
(dp330
g317
I2
sg318
I5
sg319
I5
sg320
I1300
sg321
I0
ssssssssI4
(dp331
g2
(dp332
g2
(dp333
g5
(dp334
F0.0
(dp335
I0
(dp336
I0
(dp337
S'Learning Rate'
p338
F0.5
sS'Num season factors'
p339
I5
sS'Num home factors'
p340
I5
sS'Iterations'
p341
I1300
sS'Lambda'
p342
I0
ssI1
(dp343
g338
F0.5
sg339
I5
sg340
I5
sg341
I1300
sg342
I0
ssI2
(dp344
g338
F0.5
sg339
I5
sg340
I5
sg341
I1300
sg342
I0
ssI3
(dp345
g338
F0.5
sg339
I5
sg340
I5
sg341
I1300
sg342
I0
ssI4
(dp346
g338
F0.5
sg339
I5
sg340
I5
sg341
I1300
sg342
I0
ssI5
(dp347
g338
F0.5
sg339
I5
sg340
I5
sg341
I1300
sg342
I0
ssI6
(dp348
g338
F0.5
sg339
I5
sg340
I5
sg341
I1300
sg342
I0
ssI7
(dp349
g338
F0.5
sg339
I5
sg340
I5
sg341
I1300
sg342
I0
ssI8
(dp350
g338
F0.5
sg339
I5
sg340
I5
sg341
I1300
sg342
I0
ssI9
(dp351
g338
F0.5
sg339
I5
sg340
I5
sg341
I1300
sg342
I0
sssI1
(dp352
I0
(dp353
S'Learning Rate'
p354
F0.5
sS'Num season factors'
p355
I5
sS'Num home factors'
p356
I5
sS'Iterations'
p357
I1300
sS'Lambda'
p358
I0
ssI1
(dp359
g354
F0.5
sg355
I5
sg356
I5
sg357
I1300
sg358
I0
ssI2
(dp360
g354
F0.5
sg355
I5
sg356
I5
sg357
I1300
sg358
I0
ssI3
(dp361
g354
F0.5
sg355
I5
sg356
I5
sg357
I1300
sg358
I0
ssI4
(dp362
g354
F0.5
sg355
I5
sg356
I5
sg357
I1300
sg358
I0
ssI5
(dp363
g354
F0.5
sg355
I5
sg356
I5
sg357
I1300
sg358
I0
ssI6
(dp364
g354
F0.5
sg355
I5
sg356
I5
sg357
I1300
sg358
I0
ssI7
(dp365
g354
F0.5
sg355
I5
sg356
I5
sg357
I1300
sg358
I0
ssI8
(dp366
g354
F0.5
sg355
I5
sg356
I5
sg357
I1300
sg358
I0
ssI9
(dp367
g354
F0.5
sg355
I5
sg356
I5
sg357
I1300
sg358
I0
sssI2
(dp368
I0
(dp369
S'Learning Rate'
p370
F0.5
sS'Num season factors'
p371
I5
sS'Num home factors'
p372
I5
sS'Iterations'
p373
I1300
sS'Lambda'
p374
I0
ssI1
(dp375
g370
F0.5
sg371
I5
sg372
I5
sg373
I1300
sg374
I0
ssI2
(dp376
g370
F0.5
sg371
I5
sg372
I5
sg373
I1300
sg374
I0
ssI3
(dp377
g370
F0.5
sg371
I5
sg372
I5
sg373
I1300
sg374
I0
ssI4
(dp378
g370
F0.5
sg371
I5
sg372
I5
sg373
I1300
sg374
I0
ssI5
(dp379
g370
F0.5
sg371
I5
sg372
I5
sg373
I1300
sg374
I0
ssI6
(dp380
g370
F0.5
sg371
I5
sg372
I5
sg373
I1300
sg374
I0
ssI7
(dp381
g370
F0.5
sg371
I5
sg372
I5
sg373
I1300
sg374
I0
ssI8
(dp382
g370
F0.5
sg371
I5
sg372
I5
sg373
I1300
sg374
I0
ssI9
(dp383
g370
F0.5
sg371
I5
sg372
I5
sg373
I1300
sg374
I0
sssI3
(dp384
I0
(dp385
S'Learning Rate'
p386
F0.5
sS'Num season factors'
p387
I5
sS'Num home factors'
p388
I5
sS'Iterations'
p389
I1300
sS'Lambda'
p390
I0
ssI1
(dp391
g386
F0.5
sg387
I5
sg388
I5
sg389
I1300
sg390
I0
ssI2
(dp392
g386
F0.5
sg387
I5
sg388
I5
sg389
I1300
sg390
I0
ssI3
(dp393
g386
F0.5
sg387
I5
sg388
I5
sg389
I1300
sg390
I0
ssI4
(dp394
g386
F0.5
sg387
I5
sg388
I5
sg389
I1300
sg390
I0
ssI5
(dp395
g386
F0.5
sg387
I5
sg388
I5
sg389
I1300
sg390
I0
ssI6
(dp396
g386
F0.5
sg387
I5
sg388
I5
sg389
I1300
sg390
I0
ssI7
(dp397
g386
F0.5
sg387
I5
sg388
I5
sg389
I1300
sg390
I0
ssI8
(dp398
g386
F0.5
sg387
I5
sg388
I5
sg389
I1300
sg390
I0
ssI9
(dp399
g386
F0.5
sg387
I5
sg388
I5
sg389
I1300
sg390
I0
sssI4
(dp400
I0
(dp401
S'Learning Rate'
p402
F0.5
sS'Num season factors'
p403
I5
sS'Num home factors'
p404
I5
sS'Iterations'
p405
I1300
sS'Lambda'
p406
I0
ssI1
(dp407
g402
F0.5
sg403
I5
sg404
I5
sg405
I1300
sg406
I0
ssI2
(dp408
g402
F0.5
sg403
I5
sg404
I5
sg405
I1300
sg406
I0
ssI3
(dp409
g402
F0.5
sg403
I5
sg404
I5
sg405
I1300
sg406
I0
ssI4
(dp410
g402
F0.5
sg403
I5
sg404
I5
sg405
I1300
sg406
I0
ssI5
(dp411
g402
F0.5
sg403
I5
sg404
I5
sg405
I1300
sg406
I0
ssI6
(dp412
g402
F0.5
sg403
I5
sg404
I5
sg405
I1300
sg406
I0
ssI7
(dp413
g402
F0.5
sg403
I5
sg404
I5
sg405
I1300
sg406
I0
ssI8
(dp414
g402
F0.5
sg403
I5
sg404
I5
sg405
I1300
sg406
I0
ssI9
(dp415
g402
F0.5
sg403
I5
sg404
I5
sg405
I1300
sg406
I0
sssI5
(dp416
I0
(dp417
S'Learning Rate'
p418
F0.5
sS'Num season factors'
p419
I5
sS'Num home factors'
p420
I5
sS'Iterations'
p421
I1300
sS'Lambda'
p422
I0
ssI1
(dp423
g418
F0.5
sg419
I5
sg420
I5
sg421
I1300
sg422
I0
ssI2
(dp424
g418
F0.5
sg419
I5
sg420
I5
sg421
I1300
sg422
I0
ssI3
(dp425
g418
F0.5
sg419
I5
sg420
I5
sg421
I1300
sg422
I0
ssI4
(dp426
g418
F0.5
sg419
I5
sg420
I5
sg421
I1300
sg422
I0
ssI5
(dp427
g418
F0.5
sg419
I5
sg420
I5
sg421
I1300
sg422
I0
ssI6
(dp428
g418
F0.5
sg419
I5
sg420
I5
sg421
I1300
sg422
I0
ssI7
(dp429
g418
F0.5
sg419
I5
sg420
I5
sg421
I1300
sg422
I0
ssI8
(dp430
g418
F0.5
sg419
I5
sg420
I5
sg421
I1300
sg422
I0
ssI9
(dp431
g418
F0.5
sg419
I5
sg420
I5
sg421
I1300
sg422
I0
sssI6
(dp432
I0
(dp433
S'Learning Rate'
p434
F0.5
sS'Num season factors'
p435
I5
sS'Num home factors'
p436
I5
sS'Iterations'
p437
I1300
sS'Lambda'
p438
I0
ssI1
(dp439
g434
F0.5
sg435
I5
sg436
I5
sg437
I1300
sg438
I0
ssI2
(dp440
g434
F0.5
sg435
I5
sg436
I5
sg437
I1300
sg438
I0
ssI3
(dp441
g434
F0.5
sg435
I5
sg436
I5
sg437
I1300
sg438
I0
ssI4
(dp442
g434
F0.5
sg435
I5
sg436
I5
sg437
I1300
sg438
I0
ssI5
(dp443
g434
F0.5
sg435
I5
sg436
I5
sg437
I1300
sg438
I0
ssI6
(dp444
g434
F0.5
sg435
I5
sg436
I5
sg437
I1300
sg438
I0
ssI7
(dp445
g434
F0.5
sg435
I5
sg436
I5
sg437
I1300
sg438
I0
ssI8
(dp446
g434
F0.5
sg435
I5
sg436
I5
sg437
I1300
sg438
I0
ssI9
(dp447
g434
F0.5
sg435
I5
sg436
I5
sg437
I1300
sg438
I0
sssI7
(dp448
I0
(dp449
S'Learning Rate'
p450
F0.5
sS'Num season factors'
p451
I5
sS'Num home factors'
p452
I5
sS'Iterations'
p453
I1300
sS'Lambda'
p454
I0
ssI1
(dp455
g450
F0.5
sg451
I5
sg452
I5
sg453
I1300
sg454
I0
ssI2
(dp456
g450
F0.5
sg451
I5
sg452
I5
sg453
I1300
sg454
I0
ssI3
(dp457
g450
F0.5
sg451
I5
sg452
I5
sg453
I1300
sg454
I0
ssI4
(dp458
g450
F0.5
sg451
I5
sg452
I5
sg453
I1300
sg454
I0
ssI5
(dp459
g450
F0.5
sg451
I5
sg452
I5
sg453
I1300
sg454
I0
ssI6
(dp460
g450
F0.5
sg451
I5
sg452
I5
sg453
I1300
sg454
I0
ssI7
(dp461
g450
F0.5
sg451
I5
sg452
I5
sg453
I1300
sg454
I0
ssI8
(dp462
g450
F0.5
sg451
I5
sg452
I5
sg453
I1300
sg454
I0
ssI9
(dp463
g450
F0.5
sg451
I5
sg452
I5
sg453
I1300
sg454
I0
sssI8
(dp464
I0
(dp465
S'Learning Rate'
p466
F0.5
sS'Num season factors'
p467
I5
sS'Num home factors'
p468
I5
sS'Iterations'
p469
I1300
sS'Lambda'
p470
I0
ssI1
(dp471
g466
F0.5
sg467
I5
sg468
I5
sg469
I1300
sg470
I0
ssI2
(dp472
g466
F0.5
sg467
I5
sg468
I5
sg469
I1300
sg470
I0
ssI3
(dp473
g466
F0.5
sg467
I5
sg468
I5
sg469
I1300
sg470
I0
ssI4
(dp474
g466
F0.5
sg467
I5
sg468
I5
sg469
I1300
sg470
I0
ssI5
(dp475
g466
F0.5
sg467
I5
sg468
I5
sg469
I1300
sg470
I0
ssI6
(dp476
g466
F0.5
sg467
I5
sg468
I5
sg469
I1300
sg470
I0
ssI7
(dp477
g466
F0.5
sg467
I5
sg468
I5
sg469
I1300
sg470
I0
ssI8
(dp478
g466
F0.5
sg467
I5
sg468
I5
sg469
I1300
sg470
I0
ssI9
(dp479
g466
F0.5
sg467
I5
sg468
I5
sg469
I1300
sg470
I0
sssI9
(dp480
I0
(dp481
S'Learning Rate'
p482
F0.5
sS'Num season factors'
p483
I5
sS'Num home factors'
p484
I5
sS'Iterations'
p485
I1300
sS'Lambda'
p486
I0
ssI1
(dp487
g482
F0.5
sg483
I5
sg484
I5
sg485
I1300
sg486
I0
ssI2
(dp488
g482
F0.5
sg483
I5
sg484
I5
sg485
I1300
sg486
I0
ssI3
(dp489
g482
F0.5
sg483
I5
sg484
I5
sg485
I1300
sg486
I0
ssI4
(dp490
g482
F0.5
sg483
I5
sg484
I5
sg485
I1300
sg486
I0
ssI5
(dp491
g482
F0.5
sg483
I5
sg484
I5
sg485
I1300
sg486
I0
ssI6
(dp492
g482
F0.5
sg483
I5
sg484
I5
sg485
I1300
sg486
I0
ssI7
(dp493
g482
F0.5
sg483
I5
sg484
I5
sg485
I1300
sg486
I0
ssI8
(dp494
g482
F0.5
sg483
I5
sg484
I5
sg485
I1300
sg486
I0
ssI9
(dp495
g482
F0.5
sg483
I5
sg484
I5
sg485
I1300
sg486
I0
sssssg168
(dp496
F0.0
(dp497
I0
(dp498
I0
(dp499
S'Learning Rate'
p500
F0.5
sS'Num season factors'
p501
I5
sS'Num home factors'
p502
I5
sS'Iterations'
p503
I1300
sS'Lambda'
p504
I0
ssI1
(dp505
g500
F0.5
sg501
I5
sg502
I5
sg503
I1300
sg504
I0
ssI2
(dp506
g500
F0.5
sg501
I5
sg502
I5
sg503
I1300
sg504
I0
ssI3
(dp507
g500
F0.5
sg501
I5
sg502
I5
sg503
I1300
sg504
I0
ssI4
(dp508
g500
F0.5
sg501
I5
sg502
I5
sg503
I1300
sg504
I0
ssI5
(dp509
g500
F0.5
sg501
I5
sg502
I5
sg503
I1300
sg504
I0
ssI6
(dp510
g500
F0.5
sg501
I5
sg502
I5
sg503
I1300
sg504
I0
ssI7
(dp511
g500
F0.5
sg501
I5
sg502
I5
sg503
I1300
sg504
I0
ssI8
(dp512
g500
F0.5
sg501
I5
sg502
I5
sg503
I1300
sg504
I0
ssI9
(dp513
g500
F0.5
sg501
I5
sg502
I5
sg503
I1300
sg504
I0
sssI1
(dp514
I0
(dp515
S'Learning Rate'
p516
F0.5
sS'Num season factors'
p517
I5
sS'Num home factors'
p518
I5
sS'Iterations'
p519
I1300
sS'Lambda'
p520
I0
ssI1
(dp521
g516
F0.5
sg517
I5
sg518
I5
sg519
I1300
sg520
I0
ssI2
(dp522
g516
F0.5
sg517
I5
sg518
I5
sg519
I1300
sg520
I0
ssI3
(dp523
g516
F0.5
sg517
I5
sg518
I5
sg519
I1300
sg520
I0
ssI4
(dp524
g516
F0.5
sg517
I5
sg518
I5
sg519
I1300
sg520
I0
ssI5
(dp525
g516
F0.5
sg517
I5
sg518
I5
sg519
I1300
sg520
I0
ssI6
(dp526
g516
F0.5
sg517
I5
sg518
I5
sg519
I1300
sg520
I0
ssI7
(dp527
g516
F0.5
sg517
I5
sg518
I5
sg519
I1300
sg520
I0
ssI8
(dp528
g516
F0.5
sg517
I5
sg518
I5
sg519
I1300
sg520
I0
ssI9
(dp529
g516
F0.5
sg517
I5
sg518
I5
sg519
I1300
sg520
I0
sssI2
(dp530
I0
(dp531
S'Learning Rate'
p532
F0.5
sS'Num season factors'
p533
I5
sS'Num home factors'
p534
I5
sS'Iterations'
p535
I1300
sS'Lambda'
p536
I0
ssI1
(dp537
g532
F0.5
sg533
I5
sg534
I5
sg535
I1300
sg536
I0
ssI2
(dp538
g532
F0.5
sg533
I5
sg534
I5
sg535
I1300
sg536
I0
ssI3
(dp539
g532
F0.5
sg533
I5
sg534
I5
sg535
I1300
sg536
I0
ssI4
(dp540
g532
F0.5
sg533
I5
sg534
I5
sg535
I1300
sg536
I0
ssI5
(dp541
g532
F0.5
sg533
I5
sg534
I5
sg535
I1300
sg536
I0
ssI6
(dp542
g532
F0.5
sg533
I5
sg534
I5
sg535
I1300
sg536
I0
ssI7
(dp543
g532
F0.5
sg533
I5
sg534
I5
sg535
I1300
sg536
I0
ssI8
(dp544
g532
F0.5
sg533
I5
sg534
I5
sg535
I1300
sg536
I0
ssI9
(dp545
g532
F0.5
sg533
I5
sg534
I5
sg535
I1300
sg536
I0
sssI3
(dp546
I0
(dp547
S'Learning Rate'
p548
F0.5
sS'Num season factors'
p549
I5
sS'Num home factors'
p550
I5
sS'Iterations'
p551
I1300
sS'Lambda'
p552
I0
ssI1
(dp553
g548
F0.5
sg549
I5
sg550
I5
sg551
I1300
sg552
I0
ssI2
(dp554
g548
F0.5
sg549
I5
sg550
I5
sg551
I1300
sg552
I0
ssI3
(dp555
g548
F0.5
sg549
I5
sg550
I5
sg551
I1300
sg552
I0
ssI4
(dp556
g548
F0.5
sg549
I5
sg550
I5
sg551
I1300
sg552
I0
ssI5
(dp557
g548
F0.5
sg549
I5
sg550
I5
sg551
I1300
sg552
I0
ssI6
(dp558
g548
F0.5
sg549
I5
sg550
I5
sg551
I1300
sg552
I0
ssI7
(dp559
g548
F0.5
sg549
I5
sg550
I5
sg551
I1300
sg552
I0
ssI8
(dp560
g548
F0.5
sg549
I5
sg550
I5
sg551
I1300
sg552
I0
ssI9
(dp561
g548
F0.5
sg549
I5
sg550
I5
sg551
I1300
sg552
I0
sssI4
(dp562
I0
(dp563
S'Learning Rate'
p564
F0.5
sS'Num season factors'
p565
I5
sS'Num home factors'
p566
I5
sS'Iterations'
p567
I1300
sS'Lambda'
p568
I0
ssI1
(dp569
g564
F0.5
sg565
I5
sg566
I5
sg567
I1300
sg568
I0
ssI2
(dp570
g564
F0.5
sg565
I5
sg566
I5
sg567
I1300
sg568
I0
ssI3
(dp571
g564
F0.5
sg565
I5
sg566
I5
sg567
I1300
sg568
I0
ssI4
(dp572
g564
F0.5
sg565
I5
sg566
I5
sg567
I1300
sg568
I0
ssI5
(dp573
g564
F0.5
sg565
I5
sg566
I5
sg567
I1300
sg568
I0
ssI6
(dp574
g564
F0.5
sg565
I5
sg566
I5
sg567
I1300
sg568
I0
ssI7
(dp575
g564
F0.5
sg565
I5
sg566
I5
sg567
I1300
sg568
I0
ssI8
(dp576
g564
F0.5
sg565
I5
sg566
I5
sg567
I1300
sg568
I0
ssI9
(dp577
g564
F0.5
sg565
I5
sg566
I5
sg567
I1300
sg568
I0
sssI5
(dp578
I0
(dp579
S'Learning Rate'
p580
F0.5
sS'Num season factors'
p581
I5
sS'Num home factors'
p582
I5
sS'Iterations'
p583
I1300
sS'Lambda'
p584
I0
ssI1
(dp585
g580
F0.5
sg581
I5
sg582
I5
sg583
I1300
sg584
I0
ssI2
(dp586
g580
F0.5
sg581
I5
sg582
I5
sg583
I1300
sg584
I0
ssI3
(dp587
g580
F0.5
sg581
I5
sg582
I5
sg583
I1300
sg584
I0
ssI4
(dp588
g580
F0.5
sg581
I5
sg582
I5
sg583
I1300
sg584
I0
ssI5
(dp589
g580
F0.5
sg581
I5
sg582
I5
sg583
I1300
sg584
I0
ssI6
(dp590
g580
F0.5
sg581
I5
sg582
I5
sg583
I1300
sg584
I0
ssI7
(dp591
g580
F0.5
sg581
I5
sg582
I5
sg583
I1300
sg584
I0
ssI8
(dp592
g580
F0.5
sg581
I5
sg582
I5
sg583
I1300
sg584
I0
ssI9
(dp593
g580
F0.5
sg581
I5
sg582
I5
sg583
I1300
sg584
I0
sssI6
(dp594
I0
(dp595
S'Learning Rate'
p596
F0.5
sS'Num season factors'
p597
I5
sS'Num home factors'
p598
I5
sS'Iterations'
p599
I1300
sS'Lambda'
p600
I0
ssI1
(dp601
g596
F0.5
sg597
I5
sg598
I5
sg599
I1300
sg600
I0
ssI2
(dp602
g596
F0.5
sg597
I5
sg598
I5
sg599
I1300
sg600
I0
ssI3
(dp603
g596
F0.5
sg597
I5
sg598
I5
sg599
I1300
sg600
I0
ssI4
(dp604
g596
F0.5
sg597
I5
sg598
I5
sg599
I1300
sg600
I0
ssI5
(dp605
g596
F0.5
sg597
I5
sg598
I5
sg599
I1300
sg600
I0
ssI6
(dp606
g596
F0.5
sg597
I5
sg598
I5
sg599
I1300
sg600
I0
ssI7
(dp607
g596
F0.5
sg597
I5
sg598
I5
sg599
I1300
sg600
I0
ssI8
(dp608
g596
F0.5
sg597
I5
sg598
I5
sg599
I1300
sg600
I0
ssI9
(dp609
g596
F0.5
sg597
I5
sg598
I5
sg599
I1300
sg600
I0
sssI7
(dp610
I0
(dp611
S'Learning Rate'
p612
F0.5
sS'Num season factors'
p613
I5
sS'Num home factors'
p614
I5
sS'Iterations'
p615
I1300
sS'Lambda'
p616
I0
ssI1
(dp617
g612
F0.5
sg613
I5
sg614
I5
sg615
I1300
sg616
I0
ssI2
(dp618
g612
F0.5
sg613
I5
sg614
I5
sg615
I1300
sg616
I0
ssI3
(dp619
g612
F0.5
sg613
I5
sg614
I5
sg615
I1300
sg616
I0
ssI4
(dp620
g612
F0.5
sg613
I5
sg614
I5
sg615
I1300
sg616
I0
ssI5
(dp621
g612
F0.5
sg613
I5
sg614
I5
sg615
I1300
sg616
I0
ssI6
(dp622
g612
F0.5
sg613
I5
sg614
I5
sg615
I1300
sg616
I0
ssI7
(dp623
g612
F0.5
sg613
I5
sg614
I5
sg615
I1300
sg616
I0
ssI8
(dp624
g612
F0.5
sg613
I5
sg614
I5
sg615
I1300
sg616
I0
ssI9
(dp625
g612
F0.5
sg613
I5
sg614
I5
sg615
I1300
sg616
I0
sssI8
(dp626
I0
(dp627
S'Learning Rate'
p628
F0.5
sS'Num season factors'
p629
I5
sS'Num home factors'
p630
I5
sS'Iterations'
p631
I1300
sS'Lambda'
p632
I0
ssI1
(dp633
g628
F0.5
sg629
I5
sg630
I5
sg631
I1300
sg632
I0
ssI2
(dp634
g628
F0.5
sg629
I5
sg630
I5
sg631
I1300
sg632
I0
ssI3
(dp635
g628
F0.5
sg629
I5
sg630
I5
sg631
I1300
sg632
I0
ssI4
(dp636
g628
F0.5
sg629
I5
sg630
I5
sg631
I1300
sg632
I0
ssI5
(dp637
g628
F0.5
sg629
I5
sg630
I5
sg631
I1300
sg632
I0
ssI6
(dp638
g628
F0.5
sg629
I5
sg630
I5
sg631
I1300
sg632
I0
ssI7
(dp639
g628
F0.5
sg629
I5
sg630
I5
sg631
I1300
sg632
I0
ssI8
(dp640
g628
F0.5
sg629
I5
sg630
I5
sg631
I1300
sg632
I0
ssI9
(dp641
g628
F0.5
sg629
I5
sg630
I5
sg631
I1300
sg632
I0
sssI9
(dp642
I0
(dp643
S'Learning Rate'
p644
F0.5
sS'Num season factors'
p645
I5
sS'Num home factors'
p646
I5
sS'Iterations'
p647
I1300
sS'Lambda'
p648
I0
ssI1
(dp649
g644
F0.5
sg645
I5
sg646
I5
sg647
I1300
sg648
I0
ssI2
(dp650
g644
F0.5
sg645
I5
sg646
I5
sg647
I1300
sg648
I0
ssI3
(dp651
g644
F0.5
sg645
I5
sg646
I5
sg647
I1300
sg648
I0
ssI4
(dp652
g644
F0.5
sg645
I5
sg646
I5
sg647
I1300
sg648
I0
ssI5
(dp653
g644
F0.5
sg645
I5
sg646
I5
sg647
I1300
sg648
I0
ssI6
(dp654
g644
F0.5
sg645
I5
sg646
I5
sg647
I1300
sg648
I0
ssI7
(dp655
g644
F0.5
sg645
I5
sg646
I5
sg647
I1300
sg648
I0
ssI8
(dp656
g644
F0.5
sg645
I5
sg646
I5
sg647
I1300
sg648
I0
ssI9
(dp657
g644
F0.5
sg645
I5
sg646
I5
sg647
I1300
sg648
I0
ssssssss.