(dp0
S'fridge'
p1
(dp2
S'Boulder'
p3
(dp4
g3
F19.63015768116505
sS'Austin'
p5
F30.009435895990457
sS'SanDiego'
p6
F33.99823711865432
ssg6
(dp7
g3
F21.683655588263406
sg5
F18.08551882846566
sg6
F14.657393855934357
ssS'Austin_Boulder'
p8
(dp9
g3
F12.505384229224267
sg5
F8.708100785303076
sg6
F9.697325904988272
ssS'Boulder_SanDiego'
p10
(dp11
g3
F16.606879651543416
sg5
F17.585343616867597
sg6
F14.252642678129162
ssS'Austin_SanDiego'
p12
(dp13
g3
F12.966014611616522
sg5
F8.773886005460808
sg6
F9.914634433986285
ssS'Austin_Boulder_SanDiego'
p14
(dp15
g3
F12.252763972021654
sg5
F8.694694428535804
sg6
F9.697325904988272
ssg5
(dp16
g3
F13.447058003944095
sg5
F8.786390176778877
sg6
F9.914634433986285
sssS'hvac'
p17
(dp18
g3
(dp19
g3
F31.384021757866122
sg5
F60.23492834615053
sg6
F55.41947575738374
ssg6
(dp20
g3
F49.96159883463342
sg5
F39.357677567489155
sg6
F30.72331822708283
ssS'Austin_Boulder'
p21
(dp22
g3
F22.435964579904045
sg5
F12.225330731547066
sg6
F26.376932149766166
ssS'Boulder_SanDiego'
p23
(dp24
g3
F30.564598793400915
sg5
F38.16055876122844
sg6
F30.334526447142974
ssS'Austin_SanDiego'
p25
(dp26
g3
F28.210151619733438
sg5
F12.110953116744948
sg6
F23.436312552060535
ssS'Austin_Boulder_SanDiego'
p27
(dp28
g3
F21.792852978796397
sg5
F12.154360910511556
sg6
F23.436312552060535
ssg5
(dp29
g3
F29.13767869163739
sg5
F12.181922937780456
sg6
F26.376932149766166
sss.