(dp0
S'None'
p1
(dp2
I0
(dp3
I100
ccopy_reg
_reconstructor
p4
(cpandas.core.series
Series
p5
c__builtin__
object
p6
Ntp7
Rp8
(dp9
S'_metadata'
p10
(lp11
S'name'
p12
asS'_data'
p13
g4
(cpandas.core.internals
SingleBlockManager
p14
g6
Ntp15
Rp16
((lp17
cpandas.core.indexes.base
_new_Index
p18
(cpandas.core.indexes.base
Index
p19
(dp20
S'data'
p21
cnumpy.core.multiarray
_reconstruct
p22
(cnumpy
ndarray
p23
(I0
tp24
S'b'
p25
tp26
Rp27
(I1
(I6
tp28
cnumpy
dtype
p29
(S'O8'
p30
I0
I1
tp31
Rp32
(I3
S'|'
p33
NNNI-1
I-1
I63
tp34
bI00
(lp35
S'dw'
p36
aS'fridge'
p37
aS'hvac'
p38
aS'mw'
p39
aS'oven'
p40
aS'wm'
p41
atp42
bsg12
Nstp43
Rp44
a(lp45
g22
(g23
(I0
tp46
g25
tp47
Rp48
(I1
(I6
tp49
g29
(S'f8'
p50
I0
I1
tp51
Rp52
(I3
S'<'
p53
NNNI-1
I-1
I0
tp54
bI00
S'\xa3\xe2\xf5d\xd0r\xf8?V\xf8\xca\xae\x1cu\x16@B\xef\x127\xea\xb0.@\x92\xe0\x87_I!\xfc?\x18\xd0y\x99\x98\x85\x01@a-U\x9d\x8f\x06\xf5?'
p55
tp56
ba(lp57
g18
(g19
(dp58
g21
g22
(g23
(I0
tp59
g25
tp60
Rp61
(I1
(I6
tp62
g32
I00
(lp63
g36
ag37
ag38
ag39
ag40
ag41
atp64
bsg12
Nstp65
Rp66
a(dp67
S'0.14.1'
p68
(dp69
S'axes'
p70
g17
sS'blocks'
p71
(lp72
(dp73
S'mgr_locs'
p74
c__builtin__
slice
p75
(I0
I6
I1
tp76
Rp77
sS'values'
p78
g48
sasstp79
bsS'_typ'
p80
S'series'
p81
sg12
NsbsI70
g4
(g5
g6
Ntp82
Rp83
(dp84
g10
g11
sg13
g4
(g14
g6
Ntp85
Rp86
((lp87
g18
(g19
(dp88
g21
g22
(g23
(I0
tp89
g25
tp90
Rp91
(I1
(I6
tp92
g32
I00
(lp93
g36
ag37
ag38
ag39
ag40
ag41
atp94
bsg12
Nstp95
Rp96
a(lp97
g22
(g23
(I0
tp98
g25
tp99
Rp100
(I1
(I6
tp101
g52
I00
S'7\xdc\x8b\x13\xc2\xfd\xf5?\x88#{\xe9,\xff\x17@\x13;\xfay\x95\xfe/@\xc6\xb13\xcf}\x1f\xfc?\xab\x9fV\xa3\xcd\xf0\xfe?\xf6\x18\xd0oe\xe3\xf3?'
p102
tp103
ba(lp104
g18
(g19
(dp105
g21
g22
(g23
(I0
tp106
g25
tp107
Rp108
(I1
(I6
tp109
g32
I00
(lp110
g36
ag37
ag38
ag39
ag40
ag41
atp111
bsg12
Nstp112
Rp113
a(dp114
g68
(dp115
g70
g87
sg71
(lp116
(dp117
g74
g75
(I0
I6
I1
tp118
Rp119
sg78
g100
sasstp120
bsg80
g81
sg12
NsbsI40
g4
(g5
g6
Ntp121
Rp122
(dp123
g10
g11
sg13
g4
(g14
g6
Ntp124
Rp125
((lp126
g18
(g19
(dp127
g21
g22
(g23
(I0
tp128
g25
tp129
Rp130
(I1
(I6
tp131
g32
I00
(lp132
g36
ag37
ag38
ag39
ag40
ag41
atp133
bsg12
Nstp134
Rp135
a(lp136
g22
(g23
(I0
tp137
g25
tp138
Rp139
(I1
(I6
tp140
g52
I00
S"\x99\xf5\x1f\xa3\xbac\xf7?\xca\x0f\xf3'\\!\x17@\xe5\xff\n\xe5ba.@x\xdc\x14\xf6[\xa2\x04@\xec\x18\x0e-\x8d\x16\x00@\x050\xe4\xa6\xa4\xf4\xf3?"
p141
tp142
ba(lp143
g18
(g19
(dp144
g21
g22
(g23
(I0
tp145
g25
tp146
Rp147
(I1
(I6
tp148
g32
I00
(lp149
g36
ag37
ag38
ag39
ag40
ag41
atp150
bsg12
Nstp151
Rp152
a(dp153
g68
(dp154
g70
g126
sg71
(lp155
(dp156
g74
g75
(I0
I6
I1
tp157
Rp158
sg78
g139
sasstp159
bsg80
g81
sg12
NsbsI10
g4
(g5
g6
Ntp160
Rp161
(dp162
g10
g11
sg13
g4
(g14
g6
Ntp163
Rp164
((lp165
g18
(g19
(dp166
g21
g22
(g23
(I0
tp167
g25
tp168
Rp169
(I1
(I6
tp170
g32
I00
(lp171
g36
ag37
ag38
ag39
ag40
ag41
atp172
bsg12
Nstp173
Rp174
a(lp175
g22
(g23
(I0
tp176
g25
tp177
Rp178
(I1
(I6
tp179
g52
I00
S"\xf3b\x8bT\xd7\xb2\xf9?+\xfa\xfbj\xa2\xd1\x1a@\x0ce\x0f\x92\xdch4@\xc5 \xbd'+,\n@;%\xf4/\xc8\x9b\x1d@C\x86\x9c\x92rR\x0c@"
p180
tp181
ba(lp182
g18
(g19
(dp183
g21
g22
(g23
(I0
tp184
g25
tp185
Rp186
(I1
(I6
tp187
g32
I00
(lp188
g36
ag37
ag38
ag39
ag40
ag41
atp189
bsg12
Nstp190
Rp191
a(dp192
g68
(dp193
g70
g165
sg71
(lp194
(dp195
g74
g75
(I0
I6
I1
tp196
Rp197
sg78
g178
sasstp198
bsg80
g81
sg12
NsbsI80
g4
(g5
g6
Ntp199
Rp200
(dp201
g10
g11
sg13
g4
(g14
g6
Ntp202
Rp203
((lp204
g18
(g19
(dp205
g21
g22
(g23
(I0
tp206
g25
tp207
Rp208
(I1
(I6
tp209
g32
I00
(lp210
g36
ag37
ag38
ag39
ag40
ag41
atp211
bsg12
Nstp212
Rp213
a(lp214
g22
(g23
(I0
tp215
g25
tp216
Rp217
(I1
(I6
tp218
g52
I00
S't\xf2\x95v\xa30\xf8?Y\xe5\x11\xc8\r\xe2\x15@\x0e6\xa9\xe5\x1e50@\xc3\x1f\xc0\xd9K\x1f\xfb?\x85{\xd5j\xfd\xb0\x00@|l\x95\xb6p\x1b\xf3?'
p219
tp220
ba(lp221
g18
(g19
(dp222
g21
g22
(g23
(I0
tp223
g25
tp224
Rp225
(I1
(I6
tp226
g32
I00
(lp227
g36
ag37
ag38
ag39
ag40
ag41
atp228
bsg12
Nstp229
Rp230
a(dp231
g68
(dp232
g70
g204
sg71
(lp233
(dp234
g74
g75
(I0
I6
I1
tp235
Rp236
sg78
g217
sasstp237
bsg80
g81
sg12
NsbsI50
g4
(g5
g6
Ntp238
Rp239
(dp240
g10
g11
sg13
g4
(g14
g6
Ntp241
Rp242
((lp243
g18
(g19
(dp244
g21
g22
(g23
(I0
tp245
g25
tp246
Rp247
(I1
(I6
tp248
g32
I00
(lp249
g36
ag37
ag38
ag39
ag40
ag41
atp250
bsg12
Nstp251
Rp252
a(lp253
g22
(g23
(I0
tp254
g25
tp255
Rp256
(I1
(I6
tp257
g52
I00
S'\xfb\x89\xf9\x17\xd8\xcd\xf6?\x19\xdd\xc7^eg\x17@\x81$\x81^\x81N0@B\xd8\\\xba;\xed\xfb?\x05\x1fXG\x89\x90\xfd?\xd2a\xe2.\xdc&\xf3?'
p258
tp259
ba(lp260
g18
(g19
(dp261
g21
g22
(g23
(I0
tp262
g25
tp263
Rp264
(I1
(I6
tp265
g32
I00
(lp266
g36
ag37
ag38
ag39
ag40
ag41
atp267
bsg12
Nstp268
Rp269
a(dp270
g68
(dp271
g70
g243
sg71
(lp272
(dp273
g74
g75
(I0
I6
I1
tp274
Rp275
sg78
g256
sasstp276
bsg80
g81
sg12
NsbsI20
g4
(g5
g6
Ntp277
Rp278
(dp279
g10
g11
sg13
g4
(g14
g6
Ntp280
Rp281
((lp282
g18
(g19
(dp283
g21
g22
(g23
(I0
tp284
g25
tp285
Rp286
(I1
(I6
tp287
g32
I00
(lp288
g36
ag37
ag38
ag39
ag40
ag41
atp289
bsg12
Nstp290
Rp291
a(lp292
g22
(g23
(I0
tp293
g25
tp294
Rp295
(I1
(I6
tp296
g52
I00
S'\xa5\xb8_\xb6\xbd\x0f\xf7?\xc5]\xcar\xe6\xe1\x16@\xb2D\xb1\xd6A\x911@\xf3x\x8bTc\x88\n@\xab][;@\xd6\x0e@\x106\xac\xb3\x82\x1f\xf4?'
p297
tp298
ba(lp299
g18
(g19
(dp300
g21
g22
(g23
(I0
tp301
g25
tp302
Rp303
(I1
(I6
tp304
g32
I00
(lp305
g36
ag37
ag38
ag39
ag40
ag41
atp306
bsg12
Nstp307
Rp308
a(dp309
g68
(dp310
g70
g282
sg71
(lp311
(dp312
g74
g75
(I0
I6
I1
tp313
Rp314
sg78
g295
sasstp315
bsg80
g81
sg12
NsbsI90
g4
(g5
g6
Ntp316
Rp317
(dp318
g10
g11
sg13
g4
(g14
g6
Ntp319
Rp320
((lp321
g18
(g19
(dp322
g21
g22
(g23
(I0
tp323
g25
tp324
Rp325
(I1
(I6
tp326
g32
I00
(lp327
g36
ag37
ag38
ag39
ag40
ag41
atp328
bsg12
Nstp329
Rp330
a(lp331
g22
(g23
(I0
tp332
g25
tp333
Rp334
(I1
(I6
tp335
g52
I00
S"\xe27l\xcdK\xf5\xf6?\xc4\x86\xa68\x06\x8b\x16@\x03\xc6\xd9\x8c\x07\xee.@><iH\xbf\xca\xfb?x\xdfrm6|\x01@'\xa8m\r\x90\xde\xf3?"
p336
tp337
ba(lp338
g18
(g19
(dp339
g21
g22
(g23
(I0
tp340
g25
tp341
Rp342
(I1
(I6
tp343
g32
I00
(lp344
g36
ag37
ag38
ag39
ag40
ag41
atp345
bsg12
Nstp346
Rp347
a(dp348
g68
(dp349
g70
g321
sg71
(lp350
(dp351
g74
g75
(I0
I6
I1
tp352
Rp353
sg78
g334
sasstp354
bsg80
g81
sg12
NsbsI60
g4
(g5
g6
Ntp355
Rp356
(dp357
g10
g11
sg13
g4
(g14
g6
Ntp358
Rp359
((lp360
g18
(g19
(dp361
g21
g22
(g23
(I0
tp362
g25
tp363
Rp364
(I1
(I6
tp365
g32
I00
(lp366
g36
ag37
ag38
ag39
ag40
ag41
atp367
bsg12
Nstp368
Rp369
a(lp370
g22
(g23
(I0
tp371
g25
tp372
Rp373
(I1
(I6
tp374
g52
I00
S'#\xd9\xa2\xae\x86}\xf7?>\xeb\xbdn\xd9\xf8\x15@\xed\x98\xf3\\\xbf\xbe/@\xc2\x1e\xe7\xb3\x00\xa2\xfb?\xcd\xac\xe3\xdd\xbeZ\x01@\xa3\xa2y>\xf2\xa3\xf3?'
p375
tp376
ba(lp377
g18
(g19
(dp378
g21
g22
(g23
(I0
tp379
g25
tp380
Rp381
(I1
(I6
tp382
g32
I00
(lp383
g36
ag37
ag38
ag39
ag40
ag41
atp384
bsg12
Nstp385
Rp386
a(dp387
g68
(dp388
g70
g360
sg71
(lp389
(dp390
g74
g75
(I0
I6
I1
tp391
Rp392
sg78
g373
sasstp393
bsg80
g81
sg12
NsbsI30
g4
(g5
g6
Ntp394
Rp395
(dp396
g10
g11
sg13
g4
(g14
g6
Ntp397
Rp398
((lp399
g18
(g19
(dp400
g21
g22
(g23
(I0
tp401
g25
tp402
Rp403
(I1
(I6
tp404
g32
I00
(lp405
g36
ag37
ag38
ag39
ag40
ag41
atp406
bsg12
Nstp407
Rp408
a(lp409
g22
(g23
(I0
tp410
g25
tp411
Rp412
(I1
(I6
tp413
g52
I00
S'WcE\xf3\xbf\x92\xf6?\x81\xdb\xbc\xc4\x87\xb5\x17@J_\xe0L\x16$2@\xbb\xc9Z\x04\xea\x18\x02@\xcbt\x92\xbf%\xc0\x00@R\xe9&\r1\xf3\xf4?'
p414
tp415
ba(lp416
g18
(g19
(dp417
g21
g22
(g23
(I0
tp418
g25
tp419
Rp420
(I1
(I6
tp421
g32
I00
(lp422
g36
ag37
ag38
ag39
ag40
ag41
atp423
bsg12
Nstp424
Rp425
a(dp426
g68
(dp427
g70
g399
sg71
(lp428
(dp429
g74
g75
(I0
I6
I1
tp430
Rp431
sg78
g412
sasstp432
bsg80
g81
sg12
NsbsssS'static'
p433
(dp434
I0
(dp435
I100
g4
(g5
g6
Ntp436
Rp437
(dp438
g10
g11
sg13
g4
(g14
g6
Ntp439
Rp440
((lp441
g18
(g19
(dp442
g21
g22
(g23
(I0
tp443
g25
tp444
Rp445
(I1
(I0
tp446
g32
I00
(lp447
tp448
bsg12
Nstp449
Rp450
a(lp451
g22
(g23
(I0
tp452
g25
tp453
Rp454
(I1
(I0
tp455
g52
I00
S''
p456
tp457
ba(lp458
g18
(g19
(dp459
g21
g22
(g23
(I0
tp460
g25
tp461
Rp462
(I1
(I0
tp463
g32
I00
(lp464
tp465
bsg12
Nstp466
Rp467
a(dp468
g68
(dp469
g70
g441
sg71
(lp470
(dp471
g74
g22
(g23
(I0
tp472
g25
tp473
Rp474
(I1
(I0
tp475
g29
(S'i8'
p476
I0
I1
tp477
Rp478
(I3
S'<'
p479
NNNI-1
I-1
I0
tp480
bI00
g456
tp481
bsg78
g454
sasstp482
bsg80
g81
sg12
NsbsI70
g4
(g5
g6
Ntp483
Rp484
(dp485
g10
g11
sg13
g4
(g14
g6
Ntp486
Rp487
((lp488
g18
(g19
(dp489
g21
g22
(g23
(I0
tp490
g25
tp491
Rp492
(I1
(I6
tp493
g32
I00
(lp494
g36
ag37
ag38
ag39
ag40
ag41
atp495
bsg12
Nstp496
Rp497
a(lp498
g22
(g23
(I0
tp499
g25
tp500
Rp501
(I1
(I6
tp502
g52
I00
S'\x18\xa1\xa3b\xe9y\xf5?\x9e)6\r\xcf\x8f\x13@\xf7u\xc7\xe7\t\xea3@\x00K\x12\xd9\xd95\xfc?\xee\x1b\xce\xdf*Y\xfe?\xf2{\x90o1\x87\xf5?'
p503
tp504
ba(lp505
g18
(g19
(dp506
g21
g22
(g23
(I0
tp507
g25
tp508
Rp509
(I1
(I6
tp510
g32
I00
(lp511
g36
ag37
ag38
ag39
ag40
ag41
atp512
bsg12
Nstp513
Rp514
a(dp515
g68
(dp516
g70
g488
sg71
(lp517
(dp518
g74
g75
(I0
I6
I1
tp519
Rp520
sg78
g501
sasstp521
bsg80
g81
sg12
NsbsI40
g4
(g5
g6
Ntp522
Rp523
(dp524
g10
g11
sg13
g4
(g14
g6
Ntp525
Rp526
((lp527
g18
(g19
(dp528
g21
g22
(g23
(I0
tp529
g25
tp530
Rp531
(I1
(I0
tp532
g32
I00
(lp533
tp534
bsg12
Nstp535
Rp536
a(lp537
g22
(g23
(I0
tp538
g25
tp539
Rp540
(I1
(I0
tp541
g52
I00
g456
tp542
ba(lp543
g18
(g19
(dp544
g21
g22
(g23
(I0
tp545
g25
tp546
Rp547
(I1
(I0
tp548
g32
I00
(lp549
tp550
bsg12
Nstp551
Rp552
a(dp553
g68
(dp554
g70
g527
sg71
(lp555
(dp556
g74
g22
(g23
(I0
tp557
g25
tp558
Rp559
(I1
(I0
tp560
g478
I00
g456
tp561
bsg78
g540
sasstp562
bsg80
g81
sg12
NsbsI10
g4
(g5
g6
Ntp563
Rp564
(dp565
g10
g11
sg13
g4
(g14
g6
Ntp566
Rp567
((lp568
g18
(g19
(dp569
g21
g22
(g23
(I0
tp570
g25
tp571
Rp572
(I1
(I6
tp573
g32
I00
(lp574
g36
ag37
ag38
ag39
ag40
ag41
atp575
bsg12
Nstp576
Rp577
a(lp578
g22
(g23
(I0
tp579
g25
tp580
Rp581
(I1
(I6
tp582
g52
I00
S'e\xe4C\x18\xe1k\x02@\xf55\x16\xecy\x03\x1e@\x7f\xb1\x82F\xaaF5@\x93\xc6y"Jf\t@\xca\xb4yg"\xd4\x1a@\xe2\xfd\xcc\xd4\xef\xaa\x04@'
p583
tp584
ba(lp585
g18
(g19
(dp586
g21
g22
(g23
(I0
tp587
g25
tp588
Rp589
(I1
(I6
tp590
g32
I00
(lp591
g36
ag37
ag38
ag39
ag40
ag41
atp592
bsg12
Nstp593
Rp594
a(dp595
g68
(dp596
g70
g568
sg71
(lp597
(dp598
g74
g75
(I0
I6
I1
tp599
Rp600
sg78
g581
sasstp601
bsg80
g81
sg12
NsbsI80
g4
(g5
g6
Ntp602
Rp603
(dp604
g10
g11
sg13
g4
(g14
g6
Ntp605
Rp606
((lp607
g18
(g19
(dp608
g21
g22
(g23
(I0
tp609
g25
tp610
Rp611
(I1
(I0
tp612
g32
I00
(lp613
tp614
bsg12
Nstp615
Rp616
a(lp617
g22
(g23
(I0
tp618
g25
tp619
Rp620
(I1
(I0
tp621
g52
I00
g456
tp622
ba(lp623
g18
(g19
(dp624
g21
g22
(g23
(I0
tp625
g25
tp626
Rp627
(I1
(I0
tp628
g32
I00
(lp629
tp630
bsg12
Nstp631
Rp632
a(dp633
g68
(dp634
g70
g607
sg71
(lp635
(dp636
g74
g22
(g23
(I0
tp637
g25
tp638
Rp639
(I1
(I0
tp640
g478
I00
g456
tp641
bsg78
g620
sasstp642
bsg80
g81
sg12
NsbsI50
g4
(g5
g6
Ntp643
Rp644
(dp645
g10
g11
sg13
g4
(g14
g6
Ntp646
Rp647
((lp648
g18
(g19
(dp649
g21
g22
(g23
(I0
tp650
g25
tp651
Rp652
(I1
(I6
tp653
g32
I00
(lp654
g36
ag37
ag38
ag39
ag40
ag41
atp655
bsg12
Nstp656
Rp657
a(lp658
g22
(g23
(I0
tp659
g25
tp660
Rp661
(I1
(I6
tp662
g52
I00
S'&\x04iw\x06x\xf7?\xac\xdb\xd4\x84\x92-\x14@"<\xff\x17O\x1e4@\xaa`\xb1]\xab\x16\xfe?-\xdb\x12V\xdbt\xfb?\xdd\x9b\x92Z\x1a\x8a\xf9?'
p663
tp664
ba(lp665
g18
(g19
(dp666
g21
g22
(g23
(I0
tp667
g25
tp668
Rp669
(I1
(I6
tp670
g32
I00
(lp671
g36
ag37
ag38
ag39
ag40
ag41
atp672
bsg12
Nstp673
Rp674
a(dp675
g68
(dp676
g70
g648
sg71
(lp677
(dp678
g74
g75
(I0
I6
I1
tp679
Rp680
sg78
g661
sasstp681
bsg80
g81
sg12
NsbsI20
g4
(g5
g6
Ntp682
Rp683
(dp684
g10
g11
sg13
g4
(g14
g6
Ntp685
Rp686
((lp687
g18
(g19
(dp688
g21
g22
(g23
(I0
tp689
g25
tp690
Rp691
(I1
(I0
tp692
g32
I00
(lp693
tp694
bsg12
Nstp695
Rp696
a(lp697
g22
(g23
(I0
tp698
g25
tp699
Rp700
(I1
(I0
tp701
g52
I00
g456
tp702
ba(lp703
g18
(g19
(dp704
g21
g22
(g23
(I0
tp705
g25
tp706
Rp707
(I1
(I0
tp708
g32
I00
(lp709
tp710
bsg12
Nstp711
Rp712
a(dp713
g68
(dp714
g70
g687
sg71
(lp715
(dp716
g74
g22
(g23
(I0
tp717
g25
tp718
Rp719
(I1
(I0
tp720
g478
I00
g456
tp721
bsg78
g700
sasstp722
bsg80
g81
sg12
NsbsI90
g4
(g5
g6
Ntp723
Rp724
(dp725
g10
g11
sg13
g4
(g14
g6
Ntp726
Rp727
((lp728
g18
(g19
(dp729
g21
g22
(g23
(I0
tp730
g25
tp731
Rp732
(I1
(I6
tp733
g32
I00
(lp734
g36
ag37
ag38
ag39
ag40
ag41
atp735
bsg12
Nstp736
Rp737
a(lp738
g22
(g23
(I0
tp739
g25
tp740
Rp741
(I1
(I6
tp742
g52
I00
S'\x1at\x04}\x99\xeb\xf5?\xfa0x\xf2\xc7\x83\x12@b\xff\x9c\xe9a\x0f4@z\xc2\xbe\xe7?\x91\xfc?\x85\xbd\xce\xdd\x03\xfe\xfd?0\xe68\xd6\\\x04\xf3?'
p743
tp744
ba(lp745
g18
(g19
(dp746
g21
g22
(g23
(I0
tp747
g25
tp748
Rp749
(I1
(I6
tp750
g32
I00
(lp751
g36
ag37
ag38
ag39
ag40
ag41
atp752
bsg12
Nstp753
Rp754
a(dp755
g68
(dp756
g70
g728
sg71
(lp757
(dp758
g74
g75
(I0
I6
I1
tp759
Rp760
sg78
g741
sasstp761
bsg80
g81
sg12
NsbsI60
g4
(g5
g6
Ntp762
Rp763
(dp764
g10
g11
sg13
g4
(g14
g6
Ntp765
Rp766
((lp767
g18
(g19
(dp768
g21
g22
(g23
(I0
tp769
g25
tp770
Rp771
(I1
(I0
tp772
g32
I00
(lp773
tp774
bsg12
Nstp775
Rp776
a(lp777
g22
(g23
(I0
tp778
g25
tp779
Rp780
(I1
(I0
tp781
g52
I00
g456
tp782
ba(lp783
g18
(g19
(dp784
g21
g22
(g23
(I0
tp785
g25
tp786
Rp787
(I1
(I0
tp788
g32
I00
(lp789
tp790
bsg12
Nstp791
Rp792
a(dp793
g68
(dp794
g70
g767
sg71
(lp795
(dp796
g74
g22
(g23
(I0
tp797
g25
tp798
Rp799
(I1
(I0
tp800
g478
I00
g456
tp801
bsg78
g780
sasstp802
bsg80
g81
sg12
NsbsI30
g4
(g5
g6
Ntp803
Rp804
(dp805
g10
g11
sg13
g4
(g14
g6
Ntp806
Rp807
((lp808
g18
(g19
(dp809
g21
g22
(g23
(I0
tp810
g25
tp811
Rp812
(I1
(I6
tp813
g32
I00
(lp814
g36
ag37
ag38
ag39
ag40
ag41
atp815
bsg12
Nstp816
Rp817
a(lp818
g22
(g23
(I0
tp819
g25
tp820
Rp821
(I1
(I6
tp822
g52
I00
S'\xae6\x00\x8b\x8a\xda\xf6?\x1az|\x15\xb7*\x16@\x16\xf8\xcc\xd1mA2@\x00\xa59;B\xa8\x03@~\xa4.\xb80\x86\x01@\x87\xf3p8\xb0a\xf6?'
p823
tp824
ba(lp825
g18
(g19
(dp826
g21
g22
(g23
(I0
tp827
g25
tp828
Rp829
(I1
(I6
tp830
g32
I00
(lp831
g36
ag37
ag38
ag39
ag40
ag41
atp832
bsg12
Nstp833
Rp834
a(dp835
g68
(dp836
g70
g808
sg71
(lp837
(dp838
g74
g75
(I0
I6
I1
tp839
Rp840
sg78
g821
sasstp841
bsg80
g81
sg12
Nsbsss.