(dp0
S'energy_static'
p1
(dp2
S'hvac'
p3
(dp4
F100.0
F22.271912230578117
sF70.0
F24.46691899948971
sF40.0
F26.196213897205876
sF10.0
F25.66065567698206
sF80.0
F23.806570196045783
sF50.0
F19.086807701401447
sF20.0
F32.04293566816557
sF90.0
F26.587590946207488
sF60.0
F22.809110323230545
sF30.0
F25.08738346084225
ssS'wm'
p5
(dp6
F100.0
F0.7099563050446015
sF70.0
F0.7810456388490259
sF40.0
F0.9271358417706417
sF10.0
F0.8381603453373412
sF80.0
F0.7613584904792571
sF50.0
F0.8690809639485989
sF20.0
F0.8622335989792911
sF90.0
F0.7372994278471928
sF60.0
F0.9291073620811223
sF30.0
F1.0649938971054358
ssS'fridge'
p7
(dp8
F100.0
F4.619485945726489
sF70.0
F11.36370798000457
sF40.0
F5.4614341554011085
sF10.0
F3.8198556332965548
sF80.0
F7.05475454610899
sF50.0
F11.370181256290786
sF20.0
F4.525273805701461
sF90.0
F3.3384158609937242
sF60.0
F4.976455373490764
sF30.0
F5.964313108150924
ssS'mw'
p9
(dp10
F100.0
F1.8741317894093605
sF70.0
F2.1866666659100855
sF40.0
F4.478363953889322
sF10.0
F2.512309300482021
sF80.0
F1.8753288368279708
sF50.0
F2.1438594774255657
sF20.0
F2.759303580721012
sF90.0
F1.967069074735391
sF60.0
F5.950362632803205
sF30.0
F4.028352911999886
ssS'oven'
p11
(dp12
F100.0
F2.3537045439726207
sF70.0
F3.168744602346853
sF40.0
F19.128333969211837
sF10.0
F3.2900736621439104
sF80.0
F2.583395351164723
sF50.0
F2.4852993368231413
sF20.0
F3.0879802318936704
sF90.0
F2.626257225790182
sF60.0
F2.7130913550493556
sF30.0
F2.8091805423094454
ssS'dw'
p13
(dp14
F100.0
F2.2569419823653867
sF70.0
F2.4929105470043744
sF40.0
F3.4724632970151394
sF10.0
F5.261951681911756
sF80.0
F2.1679982199865475
sF50.0
F3.1953868233431852
sF20.0
F2.7780009847897804
sF90.0
F2.220110705012732
sF60.0
F2.559811584034611
sF30.0
F2.959645941708373
sssS'energy'
p15
(dp16
g3
(dp17
F100.0
F29.16838675741585
sF70.0
F24.11552791255184
sF40.0
F28.987359988363693
sF10.0
F28.92403332449454
sF80.0
F26.16500202907063
sF50.0
F22.395938374719066
sF20.0
F39.105685334711964
sF90.0
F26.115981946730635
sF60.0
F24.320594200169193
sF30.0
F32.384868964184186
ssg5
(dp18
F100.0
F0.7180580839685002
sF70.0
F2.8095490888811803
sF40.0
F1.099175357089315
sF10.0
F0.889627023833565
sF80.0
F0.7186952931101209
sF50.0
F1.4347605770520198
sF20.0
F0.7818844298491942
sF90.0
F0.7120621540561805
sF60.0
F0.8943884095827149
sF30.0
F0.8340055970195466
ssg7
(dp19
F100.0
F5.07606551666033
sF70.0
F5.039738966683804
sF40.0
F8.887351780111903
sF10.0
F10.26753443077081
sF80.0
F7.98182633378461
sF50.0
F4.928229863799234
sF20.0
F5.627968705987543
sF90.0
F8.797182363132807
sF60.0
F5.691884395352376
sF30.0
F5.663528351024911
ssg9
(dp20
F100.0
F2.0237301986229976
sF70.0
F2.0025378106139105
sF40.0
F2.9318185918595874
sF10.0
F3.005395389496661
sF80.0
F2.0486168313815933
sF50.0
F2.143904114817234
sF20.0
F2.2410437498128353
sF90.0
F2.006717171928726
sF60.0
F2.9338702734276665
sF30.0
F2.798308606065683
ssg11
(dp21
F100.0
F2.6694043572236406
sF70.0
F2.6074718328985598
sF40.0
F2.946489834135241
sF10.0
F3.858628875536089
sF80.0
F2.2911406477742458
sF50.0
F2.7251303226636634
sF20.0
F2.531846114643231
sF90.0
F2.581469171268823
sF60.0
F3.161765574090042
sF30.0
F16.508486368447453
ssg13
(dp22
F100.0
F2.146602014519361
sF70.0
F2.362714103511831
sF40.0
F2.3692638170460336
sF10.0
F4.381787588123755
sF80.0
F1.9542840787134848
sF50.0
F4.031735711217141
sF20.0
F2.4418123213820966
sF90.0
F2.134178335659234
sF60.0
F3.493875456022238
sF30.0
F3.1722807215149196
sss.