(dp0
S'None'
p1
(dp2
F100.0
ccopy_reg
_reconstructor
p3
(cpandas.core.series
Series
p4
c__builtin__
object
p5
Ntp6
Rp7
(dp8
S'_metadata'
p9
(lp10
S'name'
p11
asS'_data'
p12
g3
(cpandas.core.internals
SingleBlockManager
p13
g5
Ntp14
Rp15
((lp16
cpandas.core.indexes.base
_new_Index
p17
(cpandas.core.indexes.base
Index
p18
(dp19
S'data'
p20
cnumpy.core.multiarray
_reconstruct
p21
(cnumpy
ndarray
p22
(I0
tp23
S'b'
p24
tp25
Rp26
(I1
(I6
tp27
cnumpy
dtype
p28
(S'O8'
p29
I0
I1
tp30
Rp31
(I3
S'|'
p32
NNNI-1
I-1
I63
tp33
bI00
(lp34
S'dw'
p35
aS'fridge'
p36
aS'hvac'
p37
aS'mw'
p38
aS'oven'
p39
aS'wm'
p40
atp41
bsg11
Nstp42
Rp43
a(lp44
g21
(g22
(I0
tp45
g24
tp46
Rp47
(I1
(I6
tp48
g28
(S'f8'
p49
I0
I1
tp50
Rp51
(I3
S'<'
p52
NNNI-1
I-1
I0
tp53
bI00
S'\xdd\xe1\\\xd7.\xa1\xf7?0\x16r\xaeG\\\x0b@\xe2T\xc2\xafU\xb71@\xd9]_\xeb\xdey\xf2?VVZF\x96N\xf8? \x0coq\xa69\xe3?'
p54
tp55
ba(lp56
g17
(g18
(dp57
g20
g21
(g22
(I0
tp58
g24
tp59
Rp60
(I1
(I6
tp61
g31
I00
(lp62
g35
ag36
ag37
ag38
ag39
ag40
atp63
bsg11
Nstp64
Rp65
a(dp66
S'0.14.1'
p67
(dp68
S'axes'
p69
g16
sS'blocks'
p70
(lp71
(dp72
S'mgr_locs'
p73
c__builtin__
slice
p74
(I0
I6
I1
tp75
Rp76
sS'values'
p77
g47
sasstp78
bsS'_typ'
p79
S'series'
p80
sg11
NsbsF70.0
g3
(g4
g5
Ntp81
Rp82
(dp83
g9
g10
sg12
g3
(g13
g5
Ntp84
Rp85
((lp86
g17
(g18
(dp87
g20
g21
(g22
(I0
tp88
g24
tp89
Rp90
(I1
(I6
tp91
g31
I00
(lp92
g35
ag36
ag37
ag38
ag39
ag40
atp93
bsg11
Nstp94
Rp95
a(lp96
g21
(g22
(I0
tp97
g24
tp98
Rp99
(I1
(I6
tp100
g51
I00
S'\x02kE0\x97`\xf9?\n \xec~z\xb9\r@\xad7\xa0 `\xf2/@@\x04rZ\x87*\xf4?\xc6\xaaa\x13\xc4[\xf8?\x8d\xaf\xbe\xe3\x87\xfa\xdb?'
p101
tp102
ba(lp103
g17
(g18
(dp104
g20
g21
(g22
(I0
tp105
g24
tp106
Rp107
(I1
(I6
tp108
g31
I00
(lp109
g35
ag36
ag37
ag38
ag39
ag40
atp110
bsg11
Nstp111
Rp112
a(dp113
g67
(dp114
g69
g86
sg70
(lp115
(dp116
g73
g74
(I0
I6
I1
tp117
Rp118
sg77
g99
sasstp119
bsg79
g80
sg11
NsbsF40.0
g3
(g4
g5
Ntp120
Rp121
(dp122
g9
g10
sg12
g3
(g13
g5
Ntp123
Rp124
((lp125
g17
(g18
(dp126
g20
g21
(g22
(I0
tp127
g24
tp128
Rp129
(I1
(I6
tp130
g31
I00
(lp131
g35
ag36
ag37
ag38
ag39
ag40
atp132
bsg11
Nstp133
Rp134
a(lp135
g21
(g22
(I0
tp136
g24
tp137
Rp138
(I1
(I6
tp139
g51
I00
S'Vr\n\xb5\xd3\x9b\xfb?Jl}\xe8<\xbc\x13@\x06\xa7\x7f\x08Z\xa61@\xed\x19\xd6^h\xdc\xf6?\x10 \xb6\x98F\xf5\xf9?\xb5H\x0f*A\x1c\xe0?'
p140
tp141
ba(lp142
g17
(g18
(dp143
g20
g21
(g22
(I0
tp144
g24
tp145
Rp146
(I1
(I6
tp147
g31
I00
(lp148
g35
ag36
ag37
ag38
ag39
ag40
atp149
bsg11
Nstp150
Rp151
a(dp152
g67
(dp153
g69
g125
sg70
(lp154
(dp155
g73
g74
(I0
I6
I1
tp156
Rp157
sg77
g138
sasstp158
bsg79
g80
sg11
NsbsF10.0
g3
(g4
g5
Ntp159
Rp160
(dp161
g9
g10
sg12
g3
(g13
g5
Ntp162
Rp163
((lp164
g17
(g18
(dp165
g20
g21
(g22
(I0
tp166
g24
tp167
Rp168
(I1
(I6
tp169
g31
I00
(lp170
g35
ag36
ag37
ag38
ag39
ag40
atp171
bsg11
Nstp172
Rp173
a(lp174
g21
(g22
(I0
tp175
g24
tp176
Rp177
(I1
(I6
tp178
g51
I00
S'\xf6!\xa9\x8enT\x02@\xb4\xe4\xb1\x18l\xc8\x12@GQ-)\xe5\x8f8@D\x17"Xt\xec\xf2?Z\xb3\xbc\xd1+]\x01@\rI\x87\xf3\x08=\xfa?'
p179
tp180
ba(lp181
g17
(g18
(dp182
g20
g21
(g22
(I0
tp183
g24
tp184
Rp185
(I1
(I6
tp186
g31
I00
(lp187
g35
ag36
ag37
ag38
ag39
ag40
atp188
bsg11
Nstp189
Rp190
a(dp191
g67
(dp192
g69
g164
sg70
(lp193
(dp194
g73
g74
(I0
I6
I1
tp195
Rp196
sg77
g177
sasstp197
bsg79
g80
sg11
NsbsF80.0
g3
(g4
g5
Ntp198
Rp199
(dp200
g9
g10
sg12
g3
(g13
g5
Ntp201
Rp202
((lp203
g17
(g18
(dp204
g20
g21
(g22
(I0
tp205
g24
tp206
Rp207
(I1
(I6
tp208
g31
I00
(lp209
g35
ag36
ag37
ag38
ag39
ag40
atp210
bsg11
Nstp211
Rp212
a(lp213
g21
(g22
(I0
tp214
g24
tp215
Rp216
(I1
(I6
tp217
g51
I00
S"3u\x16\xdd\x8b\xa5\xf5?\x9d\xa40e\x12t\x0e@\x8e\xc2E\x92\xbc`/@\t\x98`\xc1+d\xf1?k\xc2a\x9c\xa5\x9a\xf9?_C\xc8B'_\xd5?"
p218
tp219
ba(lp220
g17
(g18
(dp221
g20
g21
(g22
(I0
tp222
g24
tp223
Rp224
(I1
(I6
tp225
g31
I00
(lp226
g35
ag36
ag37
ag38
ag39
ag40
atp227
bsg11
Nstp228
Rp229
a(dp230
g67
(dp231
g69
g203
sg70
(lp232
(dp233
g73
g74
(I0
I6
I1
tp234
Rp235
sg77
g216
sasstp236
bsg79
g80
sg11
NsbsF50.0
g3
(g4
g5
Ntp237
Rp238
(dp239
g9
g10
sg12
g3
(g13
g5
Ntp240
Rp241
((lp242
g17
(g18
(dp243
g20
g21
(g22
(I0
tp244
g24
tp245
Rp246
(I1
(I6
tp247
g31
I00
(lp248
g35
ag36
ag37
ag38
ag39
ag40
atp249
bsg11
Nstp250
Rp251
a(lp252
g21
(g22
(I0
tp253
g24
tp254
Rp255
(I1
(I6
tp256
g51
I00
S'6CPDd\xe7\xf9?y\xf7\xffI\x0b\xbd\x10@\xe6\xd1\x85,\xdf\xe01@\xe5$\xcc\xc3LY\xf0?=\x1e\xda\xbb\x0eP\xfa?+\xef0\xb8\xb4\xb1\xe1?'
p257
tp258
ba(lp259
g17
(g18
(dp260
g20
g21
(g22
(I0
tp261
g24
tp262
Rp263
(I1
(I6
tp264
g31
I00
(lp265
g35
ag36
ag37
ag38
ag39
ag40
atp266
bsg11
Nstp267
Rp268
a(dp269
g67
(dp270
g69
g242
sg70
(lp271
(dp272
g73
g74
(I0
I6
I1
tp273
Rp274
sg77
g255
sasstp275
bsg79
g80
sg11
NsbsF20.0
g3
(g4
g5
Ntp276
Rp277
(dp278
g9
g10
sg12
g3
(g13
g5
Ntp279
Rp280
((lp281
g17
(g18
(dp282
g20
g21
(g22
(I0
tp283
g24
tp284
Rp285
(I1
(I6
tp286
g31
I00
(lp287
g35
ag36
ag37
ag38
ag39
ag40
atp288
bsg11
Nstp289
Rp290
a(lp291
g21
(g22
(I0
tp292
g24
tp293
Rp294
(I1
(I6
tp295
g51
I00
S'\xd6\x8aw\xa8IF\xff?\x16\x9cs\xd5\xa4\xa1\x13@\xfb\xa4\x82j\xb2\xc61@\x82\xf8\x02\xc9\x952\xf4?\xd5\r\xb9\xfb\xe5\xb7\xfa?\xd2\xb9\xf9\r\x7fL\xfe?'
p296
tp297
ba(lp298
g17
(g18
(dp299
g20
g21
(g22
(I0
tp300
g24
tp301
Rp302
(I1
(I6
tp303
g31
I00
(lp304
g35
ag36
ag37
ag38
ag39
ag40
atp305
bsg11
Nstp306
Rp307
a(dp308
g67
(dp309
g69
g281
sg70
(lp310
(dp311
g73
g74
(I0
I6
I1
tp312
Rp313
sg77
g294
sasstp314
bsg79
g80
sg11
NsbsF90.0
g3
(g4
g5
Ntp315
Rp316
(dp317
g9
g10
sg12
g3
(g13
g5
Ntp318
Rp319
((lp320
g17
(g18
(dp321
g20
g21
(g22
(I0
tp322
g24
tp323
Rp324
(I1
(I6
tp325
g31
I00
(lp326
g35
ag36
ag37
ag38
ag39
ag40
atp327
bsg11
Nstp328
Rp329
a(lp330
g21
(g22
(I0
tp331
g24
tp332
Rp333
(I1
(I6
tp334
g51
I00
S'\x1d>\xa3\xd0\x81\x0b\xf6?~@\xbbL\xfc\x82\x0b@\xa2\xb6\xdca!10@\x8d\x9506R\xe6\xf2?K~\xb3i\xe8\x03\xf9?\x03\xb9\xfaq7&\xe3?'
p335
tp336
ba(lp337
g17
(g18
(dp338
g20
g21
(g22
(I0
tp339
g24
tp340
Rp341
(I1
(I6
tp342
g31
I00
(lp343
g35
ag36
ag37
ag38
ag39
ag40
atp344
bsg11
Nstp345
Rp346
a(dp347
g67
(dp348
g69
g320
sg70
(lp349
(dp350
g73
g74
(I0
I6
I1
tp351
Rp352
sg77
g333
sasstp353
bsg79
g80
sg11
NsbsF60.0
g3
(g4
g5
Ntp354
Rp355
(dp356
g9
g10
sg12
g3
(g13
g5
Ntp357
Rp358
((lp359
g17
(g18
(dp360
g20
g21
(g22
(I0
tp361
g24
tp362
Rp363
(I1
(I6
tp364
g31
I00
(lp365
g35
ag36
ag37
ag38
ag39
ag40
atp366
bsg11
Nstp367
Rp368
a(lp369
g21
(g22
(I0
tp370
g24
tp371
Rp372
(I1
(I6
tp373
g51
I00
S'&\x17\xc4[55\xfa?\xa5\xf5\xce\n\xf2\x8a\x10@\x0bt\x83+\x83\x94/@v\xc0E\xdb\xb4\x8e\xf4?\x1ad!\xec\xc2\xcb\xf7?\xa6\xb8\x08#\x10\xf6\xe1?'
p374
tp375
ba(lp376
g17
(g18
(dp377
g20
g21
(g22
(I0
tp378
g24
tp379
Rp380
(I1
(I6
tp381
g31
I00
(lp382
g35
ag36
ag37
ag38
ag39
ag40
atp383
bsg11
Nstp384
Rp385
a(dp386
g67
(dp387
g69
g359
sg70
(lp388
(dp389
g73
g74
(I0
I6
I1
tp390
Rp391
sg77
g372
sasstp392
bsg79
g80
sg11
NsbsF30.0
g3
(g4
g5
Ntp393
Rp394
(dp395
g9
g10
sg12
g3
(g13
g5
Ntp396
Rp397
((lp398
g17
(g18
(dp399
g20
g21
(g22
(I0
tp400
g24
tp401
Rp402
(I1
(I6
tp403
g31
I00
(lp404
g35
ag36
ag37
ag38
ag39
ag40
atp405
bsg11
Nstp406
Rp407
a(lp408
g21
(g22
(I0
tp409
g24
tp410
Rp411
(I1
(I6
tp412
g51
I00
S'ni\xb6.X;\xff?h\xfb\xf9\x93\xc8|\x0c@\x97\x10\xe5\xf3\xd0\x0e2@.\x82\x93\xf8\x0c|\xf5?.p\xed\x17\x1e2\xfc?\x9d\x1b\x9d\xd9`\xe8\xe5?'
p413
tp414
ba(lp415
g17
(g18
(dp416
g20
g21
(g22
(I0
tp417
g24
tp418
Rp419
(I1
(I6
tp420
g31
I00
(lp421
g35
ag36
ag37
ag38
ag39
ag40
atp422
bsg11
Nstp423
Rp424
a(dp425
g67
(dp426
g69
g398
sg70
(lp427
(dp428
g73
g74
(I0
I6
I1
tp429
Rp430
sg77
g411
sasstp431
bsg79
g80
sg11
Nsbss.