(dp0
I80
ccopy_reg
_reconstructor
p1
(cpandas.core.series
Series
p2
c__builtin__
object
p3
Ntp4
Rp5
(dp6
S'_metadata'
p7
(lp8
S'name'
p9
asS'_data'
p10
g1
(cpandas.core.internals
SingleBlockManager
p11
g3
Ntp12
Rp13
((lp14
cpandas.core.indexes.base
_new_Index
p15
(cpandas.core.indexes.base
Index
p16
(dp17
S'data'
p18
cnumpy.core.multiarray
_reconstruct
p19
(cnumpy
ndarray
p20
(I0
tp21
S'b'
p22
tp23
Rp24
(I1
(I6
tp25
cnumpy
dtype
p26
(S'O8'
p27
I0
I1
tp28
Rp29
(I3
S'|'
p30
NNNI-1
I-1
I63
tp31
bI00
(lp32
S'dw'
p33
aS'fridge'
p34
aS'hvac'
p35
aS'mw'
p36
aS'oven'
p37
aS'wm'
p38
atp39
bsg9
Nstp40
Rp41
a(lp42
g19
(g20
(I0
tp43
g22
tp44
Rp45
(I1
(I6
tp46
g26
(S'f8'
p47
I0
I1
tp48
Rp49
(I3
S'<'
p50
NNNI-1
I-1
I0
tp51
bI00
S'\xe8\xb9\xcc\x03\x9f}\xfe?C\xd2\xd7W\x8d\xbd\x1f@S{\xb3?-\x8d3@\xd0\xa7\xcaJ\xd0O\xfe?\xc0dY\xca;\x08\x02@\x06\xe4.\xd6\xce\x99\xea?'
p52
tp53
ba(lp54
g15
(g16
(dp55
g18
g19
(g20
(I0
tp56
g22
tp57
Rp58
(I1
(I6
tp59
g29
I00
(lp60
g33
ag34
ag35
ag36
ag37
ag38
atp61
bsg9
Nstp62
Rp63
a(dp64
S'0.14.1'
p65
(dp66
S'axes'
p67
g14
sS'blocks'
p68
(lp69
(dp70
S'mgr_locs'
p71
c__builtin__
slice
p72
(I0
I6
I1
tp73
Rp74
sS'values'
p75
g45
sasstp76
bsS'_typ'
p77
S'series'
p78
sg9
NsbsI100
g1
(g2
g3
Ntp79
Rp80
(dp81
g7
g8
sg10
g1
(g11
g3
Ntp82
Rp83
((lp84
g15
(g16
(dp85
g18
g19
(g20
(I0
tp86
g22
tp87
Rp88
(I1
(I6
tp89
g29
I00
(lp90
g33
ag34
ag35
ag36
ag37
ag38
atp91
bsg9
Nstp92
Rp93
a(lp94
g19
(g20
(I0
tp95
g22
tp96
Rp97
(I1
(I6
tp98
g49
I00
S"\x08+\xa1\x1fZ\xa1\xfe?B\x8e\xa4\xe1\xa7\x8d\x1c@Em\xddn\xa5\x1d3@\xc5\xf2\xa5'\xd9$\xfc?\xd4j\x81\xef\x19\xe6\x01@&\x95m\xc8\xb6\x90\xe7?"
p99
tp100
ba(lp101
g15
(g16
(dp102
g18
g19
(g20
(I0
tp103
g22
tp104
Rp105
(I1
(I6
tp106
g29
I00
(lp107
g33
ag34
ag35
ag36
ag37
ag38
atp108
bsg9
Nstp109
Rp110
a(dp111
g65
(dp112
g67
g84
sg68
(lp113
(dp114
g71
g72
(I0
I6
I1
tp115
Rp116
sg75
g97
sasstp117
bsg77
g78
sg9
NsbsI70
g1
(g2
g3
Ntp118
Rp119
(dp120
g7
g8
sg10
g1
(g11
g3
Ntp121
Rp122
((lp123
g15
(g16
(dp124
g18
g19
(g20
(I0
tp125
g22
tp126
Rp127
(I1
(I6
tp128
g29
I00
(lp129
g33
ag34
ag35
ag36
ag37
ag38
atp130
bsg9
Nstp131
Rp132
a(lp133
g19
(g20
(I0
tp134
g22
tp135
Rp136
(I1
(I6
tp137
g49
I00
S'}\xd81\xf2\xe8\x9b\xff?\xbdX\x18\xfe\x13\xe9\x1b@\x9aK5\x8a3V2@\xe6\xb5\xa9A\xce\xca\xfc?u\xf2\xe7\xce0S\x01@\x83\xf8\t\xb0gm\xe9?'
p138
tp139
ba(lp140
g15
(g16
(dp141
g18
g19
(g20
(I0
tp142
g22
tp143
Rp144
(I1
(I6
tp145
g29
I00
(lp146
g33
ag34
ag35
ag36
ag37
ag38
atp147
bsg9
Nstp148
Rp149
a(dp150
g65
(dp151
g67
g123
sg68
(lp152
(dp153
g71
g72
(I0
I6
I1
tp154
Rp155
sg75
g136
sasstp156
bsg77
g78
sg9
NsbsI6
g1
(g2
g3
Ntp157
Rp158
(dp159
g7
g8
sg10
g1
(g11
g3
Ntp160
Rp161
((lp162
g15
(g16
(dp163
g18
g19
(g20
(I0
tp164
g22
tp165
Rp166
(I1
(I6
tp167
g29
I00
(lp168
g33
ag34
ag35
ag36
ag37
ag38
atp169
bsg9
Nstp170
Rp171
a(lp172
g19
(g20
(I0
tp173
g22
tp174
Rp175
(I1
(I6
tp176
g49
I00
S'\x18^1\x12u!\x02@{\x8e\x0fF\x89A$@\xb2\xf2\x8c\xa4\x9a\x048@\xfe\xcf\xb0\xbb\xd0J\x04@\xc9e\xfbFv\x05\x12@\xa4\xedg\x83\xa1\xd4 @'
p177
tp178
ba(lp179
g15
(g16
(dp180
g18
g19
(g20
(I0
tp181
g22
tp182
Rp183
(I1
(I6
tp184
g29
I00
(lp185
g33
ag34
ag35
ag36
ag37
ag38
atp186
bsg9
Nstp187
Rp188
a(dp189
g65
(dp190
g67
g162
sg68
(lp191
(dp192
g71
g72
(I0
I6
I1
tp193
Rp194
sg75
g175
sasstp195
bsg77
g78
sg9
NsbsI8
g1
(g2
g3
Ntp196
Rp197
(dp198
g7
g8
sg10
g1
(g11
g3
Ntp199
Rp200
((lp201
g15
(g16
(dp202
g18
g19
(g20
(I0
tp203
g22
tp204
Rp205
(I1
(I6
tp206
g29
I00
(lp207
g33
ag34
ag35
ag36
ag37
ag38
atp208
bsg9
Nstp209
Rp210
a(lp211
g19
(g20
(I0
tp212
g22
tp213
Rp214
(I1
(I6
tp215
g49
I00
S'\x18^1\x12u!\x02@{\x8e\x0fF\x89A$@\xb2\xf2\x8c\xa4\x9a\x048@\xfe\xcf\xb0\xbb\xd0J\x04@\xc8e\xfbFv\x05\x12@\xa4\xedg\x83\xa1\xd4 @'
p216
tp217
ba(lp218
g15
(g16
(dp219
g18
g19
(g20
(I0
tp220
g22
tp221
Rp222
(I1
(I6
tp223
g29
I00
(lp224
g33
ag34
ag35
ag36
ag37
ag38
atp225
bsg9
Nstp226
Rp227
a(dp228
g65
(dp229
g67
g201
sg68
(lp230
(dp231
g71
g72
(I0
I6
I1
tp232
Rp233
sg75
g214
sasstp234
bsg77
g78
sg9
NsbsI10
g1
(g2
g3
Ntp235
Rp236
(dp237
g7
g8
sg10
g1
(g11
g3
Ntp238
Rp239
((lp240
g15
(g16
(dp241
g18
g19
(g20
(I0
tp242
g22
tp243
Rp244
(I1
(I6
tp245
g29
I00
(lp246
g33
ag34
ag35
ag36
ag37
ag38
atp247
bsg9
Nstp248
Rp249
a(lp250
g19
(g20
(I0
tp251
g22
tp252
Rp253
(I1
(I6
tp254
g49
I00
S"\xf3\x0b\xc1\x18\xd4\x04\x05@>\x99\x04\xf8\xf5|'@\r\xc5\x87V\xd0\x855@\xfeR%h\xa2\x19\x03@`\x0f$\x88\x84\x1d\t@R&\xd9\x0b\xea\x13\x16@"
p255
tp256
ba(lp257
g15
(g16
(dp258
g18
g19
(g20
(I0
tp259
g22
tp260
Rp261
(I1
(I6
tp262
g29
I00
(lp263
g33
ag34
ag35
ag36
ag37
ag38
atp264
bsg9
Nstp265
Rp266
a(dp267
g65
(dp268
g67
g240
sg68
(lp269
(dp270
g71
g72
(I0
I6
I1
tp271
Rp272
sg75
g253
sasstp273
bsg77
g78
sg9
NsbsI12
g1
(g2
g3
Ntp274
Rp275
(dp276
g7
g8
sg10
g1
(g11
g3
Ntp277
Rp278
((lp279
g15
(g16
(dp280
g18
g19
(g20
(I0
tp281
g22
tp282
Rp283
(I1
(I6
tp284
g29
I00
(lp285
g33
ag34
ag35
ag36
ag37
ag38
atp286
bsg9
Nstp287
Rp288
a(lp289
g19
(g20
(I0
tp290
g22
tp291
Rp292
(I1
(I6
tp293
g49
I00
S'\xce\xea%p\x8b{\x03@\xdd(K\x16\x14"!@Cb\xc1\xbb\xf035@\xe2\t"\xf44\x1d\x00@2\x94a\xee!\xad\x03@\xd6\xf5/\xd1\xecX\n@'
p294
tp295
ba(lp296
g15
(g16
(dp297
g18
g19
(g20
(I0
tp298
g22
tp299
Rp300
(I1
(I6
tp301
g29
I00
(lp302
g33
ag34
ag35
ag36
ag37
ag38
atp303
bsg9
Nstp304
Rp305
a(dp306
g65
(dp307
g67
g279
sg68
(lp308
(dp309
g71
g72
(I0
I6
I1
tp310
Rp311
sg75
g292
sasstp312
bsg77
g78
sg9
NsbsI50
g1
(g2
g3
Ntp313
Rp314
(dp315
g7
g8
sg10
g1
(g11
g3
Ntp316
Rp317
((lp318
g15
(g16
(dp319
g18
g19
(g20
(I0
tp320
g22
tp321
Rp322
(I1
(I6
tp323
g29
I00
(lp324
g33
ag34
ag35
ag36
ag37
ag38
atp325
bsg9
Nstp326
Rp327
a(lp328
g19
(g20
(I0
tp329
g22
tp330
Rp331
(I1
(I6
tp332
g49
I00
S'\xc5\xc7\x064\xccn\xff?\x8aj=d\xe4\x07\x1e@^\xfb\xd9\xc9\x92m5@\xa5\x14[v\x88y\xff?\x9f\x8f\xf8\x92\xe8\x13\x02@u\x16(<\xa9\x0b\xed?'
p333
tp334
ba(lp335
g15
(g16
(dp336
g18
g19
(g20
(I0
tp337
g22
tp338
Rp339
(I1
(I6
tp340
g29
I00
(lp341
g33
ag34
ag35
ag36
ag37
ag38
atp342
bsg9
Nstp343
Rp344
a(dp345
g65
(dp346
g67
g318
sg68
(lp347
(dp348
g71
g72
(I0
I6
I1
tp349
Rp350
sg75
g331
sasstp351
bsg77
g78
sg9
NsbsI14
g1
(g2
g3
Ntp352
Rp353
(dp354
g7
g8
sg10
g1
(g11
g3
Ntp355
Rp356
((lp357
g15
(g16
(dp358
g18
g19
(g20
(I0
tp359
g22
tp360
Rp361
(I1
(I6
tp362
g29
I00
(lp363
g33
ag34
ag35
ag36
ag37
ag38
atp364
bsg9
Nstp365
Rp366
a(lp367
g19
(g20
(I0
tp368
g22
tp369
Rp370
(I1
(I6
tp371
g49
I00
S'\x12\xe9\xb8\x16%x\x03@Bh\xe0>\xec8!@\xaeQ\x9f\xe9\xa6\x175@\x04\x96\x9bs/\x1a\x00@\x8e\xce\x16\x84\xa6\xac\x03@=N\x04\xa8\xf5\xcf\x04@'
p372
tp373
ba(lp374
g15
(g16
(dp375
g18
g19
(g20
(I0
tp376
g22
tp377
Rp378
(I1
(I6
tp379
g29
I00
(lp380
g33
ag34
ag35
ag36
ag37
ag38
atp381
bsg9
Nstp382
Rp383
a(dp384
g65
(dp385
g67
g357
sg68
(lp386
(dp387
g71
g72
(I0
I6
I1
tp388
Rp389
sg75
g370
sasstp390
bsg77
g78
sg9
NsbsI16
g1
(g2
g3
Ntp391
Rp392
(dp393
g7
g8
sg10
g1
(g11
g3
Ntp394
Rp395
((lp396
g15
(g16
(dp397
g18
g19
(g20
(I0
tp398
g22
tp399
Rp400
(I1
(I6
tp401
g29
I00
(lp402
g33
ag34
ag35
ag36
ag37
ag38
atp403
bsg9
Nstp404
Rp405
a(lp406
g19
(g20
(I0
tp407
g22
tp408
Rp409
(I1
(I6
tp410
g49
I00
S'\xaa\xdd#\x11\xf5\x95\x01@\x12x\xd9\x009d!@\x82\xce\x18\x04[T3@\xbe\n\x004\x97\xd6\xff?\xfb\x87\x7f\x9e\x1e\xcb\x03@(\xa4\xf5M\x1b\xb2\xfb?'
p411
tp412
ba(lp413
g15
(g16
(dp414
g18
g19
(g20
(I0
tp415
g22
tp416
Rp417
(I1
(I6
tp418
g29
I00
(lp419
g33
ag34
ag35
ag36
ag37
ag38
atp420
bsg9
Nstp421
Rp422
a(dp423
g65
(dp424
g67
g396
sg68
(lp425
(dp426
g71
g72
(I0
I6
I1
tp427
Rp428
sg75
g409
sasstp429
bsg77
g78
sg9
NsbsI40
g1
(g2
g3
Ntp430
Rp431
(dp432
g7
g8
sg10
g1
(g11
g3
Ntp433
Rp434
((lp435
g15
(g16
(dp436
g18
g19
(g20
(I0
tp437
g22
tp438
Rp439
(I1
(I6
tp440
g29
I00
(lp441
g33
ag34
ag35
ag36
ag37
ag38
atp442
bsg9
Nstp443
Rp444
a(lp445
g19
(g20
(I0
tp446
g22
tp447
Rp448
(I1
(I6
tp449
g49
I00
S"\x13N\xf67w\x9f\xff?z)NG6o @\xbb\xbet\r\xc7\xaa2@:\xcf\x81\xc0\xfb'\xff?\xb2\x11\xd2\xad\xc2n\x01@#\xbc\x99=\x11x\xec?"
p450
tp451
ba(lp452
g15
(g16
(dp453
g18
g19
(g20
(I0
tp454
g22
tp455
Rp456
(I1
(I6
tp457
g29
I00
(lp458
g33
ag34
ag35
ag36
ag37
ag38
atp459
bsg9
Nstp460
Rp461
a(dp462
g65
(dp463
g67
g435
sg68
(lp464
(dp465
g71
g72
(I0
I6
I1
tp466
Rp467
sg75
g448
sasstp468
bsg77
g78
sg9
NsbsI18
g1
(g2
g3
Ntp469
Rp470
(dp471
g7
g8
sg10
g1
(g11
g3
Ntp472
Rp473
((lp474
g15
(g16
(dp475
g18
g19
(g20
(I0
tp476
g22
tp477
Rp478
(I1
(I6
tp479
g29
I00
(lp480
g33
ag34
ag35
ag36
ag37
ag38
atp481
bsg9
Nstp482
Rp483
a(lp484
g19
(g20
(I0
tp485
g22
tp486
Rp487
(I1
(I6
tp488
g49
I00
S'\x8c\xf0\xd3\xcc\xc5r\x03@(\t\x14j\xa3,!@K{\xf9b\x1e\xec6@&y\x95&\x08\x18\x01@\xd5\x10\xfa\x9c\x88\xd6\x03@2jZ6\x8c\x00\xf7?'
p489
tp490
ba(lp491
g15
(g16
(dp492
g18
g19
(g20
(I0
tp493
g22
tp494
Rp495
(I1
(I6
tp496
g29
I00
(lp497
g33
ag34
ag35
ag36
ag37
ag38
atp498
bsg9
Nstp499
Rp500
a(dp501
g65
(dp502
g67
g474
sg68
(lp503
(dp504
g71
g72
(I0
I6
I1
tp505
Rp506
sg75
g487
sasstp507
bsg77
g78
sg9
NsbsI20
g1
(g2
g3
Ntp508
Rp509
(dp510
g7
g8
sg10
g1
(g11
g3
Ntp511
Rp512
((lp513
g15
(g16
(dp514
g18
g19
(g20
(I0
tp515
g22
tp516
Rp517
(I1
(I6
tp518
g29
I00
(lp519
g33
ag34
ag35
ag36
ag37
ag38
atp520
bsg9
Nstp521
Rp522
a(lp523
g19
(g20
(I0
tp524
g22
tp525
Rp526
(I1
(I6
tp527
g49
I00
S'\xee%H0;h\x03@\x0e\xd4\xfc\x90R\x93!@\xc3\x88b\xa3\xd1\xb07@\xeaf6c\x88\xab\x01@\xa1\x8d\x120f\xb4\x03@`G\xc7\xdd\xb4\xc6\xf4?'
p528
tp529
ba(lp530
g15
(g16
(dp531
g18
g19
(g20
(I0
tp532
g22
tp533
Rp534
(I1
(I6
tp535
g29
I00
(lp536
g33
ag34
ag35
ag36
ag37
ag38
atp537
bsg9
Nstp538
Rp539
a(dp540
g65
(dp541
g67
g513
sg68
(lp542
(dp543
g71
g72
(I0
I6
I1
tp544
Rp545
sg75
g526
sasstp546
bsg77
g78
sg9
NsbsI90
g1
(g2
g3
Ntp547
Rp548
(dp549
g7
g8
sg10
g1
(g11
g3
Ntp550
Rp551
((lp552
g15
(g16
(dp553
g18
g19
(g20
(I0
tp554
g22
tp555
Rp556
(I1
(I6
tp557
g29
I00
(lp558
g33
ag34
ag35
ag36
ag37
ag38
atp559
bsg9
Nstp560
Rp561
a(lp562
g19
(g20
(I0
tp563
g22
tp564
Rp565
(I1
(I6
tp566
g49
I00
S'\x00G\x08\xef\xf2J\xff?8\x91X\x99\n\x85\x1d@\x1a\xeeOa\xb8\xfc1@v\x89\xd9\xb0z\xdb\xfc?kt,\x0b\xc5\xe1\x00@\x02\xdd8@\x1d\xed\xe7?'
p567
tp568
ba(lp569
g15
(g16
(dp570
g18
g19
(g20
(I0
tp571
g22
tp572
Rp573
(I1
(I6
tp574
g29
I00
(lp575
g33
ag34
ag35
ag36
ag37
ag38
atp576
bsg9
Nstp577
Rp578
a(dp579
g65
(dp580
g67
g552
sg68
(lp581
(dp582
g71
g72
(I0
I6
I1
tp583
Rp584
sg75
g565
sasstp585
bsg77
g78
sg9
NsbsI60
g1
(g2
g3
Ntp586
Rp587
(dp588
g7
g8
sg10
g1
(g11
g3
Ntp589
Rp590
((lp591
g15
(g16
(dp592
g18
g19
(g20
(I0
tp593
g22
tp594
Rp595
(I1
(I6
tp596
g29
I00
(lp597
g33
ag34
ag35
ag36
ag37
ag38
atp598
bsg9
Nstp599
Rp600
a(lp601
g19
(g20
(I0
tp602
g22
tp603
Rp604
(I1
(I6
tp605
g49
I00
S'\x95\n\xe9\x82\x0ef\xff?\x96<\x92\x7f\x0e\xaa\x1b@\xa8\x1c\x89\xb5\xc0V3@\x8e#\xcaW;\xdd\xfc?3\xbe\xce|"\xe2\x01@M\x1f\xa5\'3\xad\xec?'
p606
tp607
ba(lp608
g15
(g16
(dp609
g18
g19
(g20
(I0
tp610
g22
tp611
Rp612
(I1
(I6
tp613
g29
I00
(lp614
g33
ag34
ag35
ag36
ag37
ag38
atp615
bsg9
Nstp616
Rp617
a(dp618
g65
(dp619
g67
g591
sg68
(lp620
(dp621
g71
g72
(I0
I6
I1
tp622
Rp623
sg75
g604
sasstp624
bsg77
g78
sg9
NsbsI30
g1
(g2
g3
Ntp625
Rp626
(dp627
g7
g8
sg10
g1
(g11
g3
Ntp628
Rp629
((lp630
g15
(g16
(dp631
g18
g19
(g20
(I0
tp632
g22
tp633
Rp634
(I1
(I6
tp635
g29
I00
(lp636
g33
ag34
ag35
ag36
ag37
ag38
atp637
bsg9
Nstp638
Rp639
a(lp640
g19
(g20
(I0
tp641
g22
tp642
Rp643
(I1
(I6
tp644
g49
I00
S'\x14\x82\xfb\x94\xed\xa4\x00@:\x98MPmS\x1e@\x88\xa0\xa7\xd4\xd3\r7@-F\xc4\x1d\x0e{\xfe?\x83g\xcf\x90\xf2\x98\x04@\xb5\x0f\xa7f\xb4\xd0\xed?'
p645
tp646
ba(lp647
g15
(g16
(dp648
g18
g19
(g20
(I0
tp649
g22
tp650
Rp651
(I1
(I6
tp652
g29
I00
(lp653
g33
ag34
ag35
ag36
ag37
ag38
atp654
bsg9
Nstp655
Rp656
a(dp657
g65
(dp658
g67
g630
sg68
(lp659
(dp660
g71
g72
(I0
I6
I1
tp661
Rp662
sg75
g643
sasstp663
bsg77
g78
sg9
Nsbs.