(dp0
S'None'
p1
(dp2
I0
(dp3
I100
ccopy_reg
_reconstructor
p4
(cpandas.core.series
Series
p5
c__builtin__
object
p6
Ntp7
Rp8
(dp9
S'_metadata'
p10
(lp11
S'name'
p12
asS'_data'
p13
g4
(cpandas.core.internals
SingleBlockManager
p14
g6
Ntp15
Rp16
((lp17
cpandas.core.indexes.base
_new_Index
p18
(cpandas.core.indexes.base
Index
p19
(dp20
S'data'
p21
cnumpy.core.multiarray
_reconstruct
p22
(cnumpy
ndarray
p23
(I0
tp24
S'b'
p25
tp26
Rp27
(I1
(I6
tp28
cnumpy
dtype
p29
(S'O8'
p30
I0
I1
tp31
Rp32
(I3
S'|'
p33
NNNI-1
I-1
I63
tp34
bI00
(lp35
S'dw'
p36
aS'fridge'
p37
aS'hvac'
p38
aS'mw'
p39
aS'oven'
p40
aS'wm'
p41
atp42
bsg12
Nstp43
Rp44
a(lp45
g22
(g23
(I0
tp46
g25
tp47
Rp48
(I1
(I6
tp49
g29
(S'f8'
p50
I0
I1
tp51
Rp52
(I3
S'<'
p53
NNNI-1
I-1
I0
tp54
bI00
S']\xc1xs\xcf\x81\xff?#\xa6=k\xdd\xf0\x1d@\xda\x1e\xe9\xc0B\xb81@\x8a\xb9\x06z4\x92\xfd?\xb7\xa0\x9b\xc4\xe6@\x01@\x1b\xecI\xd1(\x04\xeb?'
p55
tp56
ba(lp57
g18
(g19
(dp58
g21
g22
(g23
(I0
tp59
g25
tp60
Rp61
(I1
(I6
tp62
g32
I00
(lp63
g36
ag37
ag38
ag39
ag40
ag41
atp64
bsg12
Nstp65
Rp66
a(dp67
S'0.14.1'
p68
(dp69
S'axes'
p70
g17
sS'blocks'
p71
(lp72
(dp73
S'mgr_locs'
p74
c__builtin__
slice
p75
(I0
I6
I1
tp76
Rp77
sS'values'
p78
g48
sasstp79
bsS'_typ'
p80
S'series'
p81
sg12
NsbsI70
g4
(g5
g6
Ntp82
Rp83
(dp84
g10
g11
sg13
g4
(g14
g6
Ntp85
Rp86
((lp87
g18
(g19
(dp88
g21
g22
(g23
(I0
tp89
g25
tp90
Rp91
(I1
(I6
tp92
g32
I00
(lp93
g36
ag37
ag38
ag39
ag40
ag41
atp94
bsg12
Nstp95
Rp96
a(lp97
g22
(g23
(I0
tp98
g25
tp99
Rp100
(I1
(I6
tp101
g52
I00
S'\xdb\t)\x99\xe7U\xff?\x82\x0b\xcfX]\t\x1c@\xfd\x84\xe8\x96\nT2@jT\xa8\x14\xe0\xf9\xfc?\xd5\xda~\xce\x10\x80\x01@\x15K7V,\x11\xe9?'
p102
tp103
ba(lp104
g18
(g19
(dp105
g21
g22
(g23
(I0
tp106
g25
tp107
Rp108
(I1
(I6
tp109
g32
I00
(lp110
g36
ag37
ag38
ag39
ag40
ag41
atp111
bsg12
Nstp112
Rp113
a(dp114
g68
(dp115
g70
g87
sg71
(lp116
(dp117
g74
g75
(I0
I6
I1
tp118
Rp119
sg78
g100
sasstp120
bsg80
g81
sg12
NsbsI40
g4
(g5
g6
Ntp121
Rp122
(dp123
g10
g11
sg13
g4
(g14
g6
Ntp124
Rp125
((lp126
g18
(g19
(dp127
g21
g22
(g23
(I0
tp128
g25
tp129
Rp130
(I1
(I6
tp131
g32
I00
(lp132
g36
ag37
ag38
ag39
ag40
ag41
atp133
bsg12
Nstp134
Rp135
a(lp136
g22
(g23
(I0
tp137
g25
tp138
Rp139
(I1
(I6
tp140
g52
I00
S'n\xc8\xbc\x03:\n\x00@\x88\xb2\x0fS\xbaE @H\xb15\xeeD\xdb2@\xa3K\xf8$@\r\xff?\xa5\x07g\xae\xd7\xdd\x01@h\xe6\xfa,8\xea\xec?'
p141
tp142
ba(lp143
g18
(g19
(dp144
g21
g22
(g23
(I0
tp145
g25
tp146
Rp147
(I1
(I6
tp148
g32
I00
(lp149
g36
ag37
ag38
ag39
ag40
ag41
atp150
bsg12
Nstp151
Rp152
a(dp153
g68
(dp154
g70
g126
sg71
(lp155
(dp156
g74
g75
(I0
I6
I1
tp157
Rp158
sg78
g139
sasstp159
bsg80
g81
sg12
NsbsI10
g4
(g5
g6
Ntp160
Rp161
(dp162
g10
g11
sg13
g4
(g14
g6
Ntp163
Rp164
((lp165
g18
(g19
(dp166
g21
g22
(g23
(I0
tp167
g25
tp168
Rp169
(I1
(I6
tp170
g32
I00
(lp171
g36
ag37
ag38
ag39
ag40
ag41
atp172
bsg12
Nstp173
Rp174
a(lp175
g22
(g23
(I0
tp176
g25
tp177
Rp178
(I1
(I6
tp179
g52
I00
S'\x12r\xd8\xd1w\xca\x07@\xd9EE\xe7\x8d\x1f(@c3\xae"\xf2^6@\x81\xb9\x1f\xf9\x9d6\x03@\xdf\xe3\xc4\xe2[a\t@\xa0\xec\xbd\n{\xb1\x16@'
p180
tp181
ba(lp182
g18
(g19
(dp183
g21
g22
(g23
(I0
tp184
g25
tp185
Rp186
(I1
(I6
tp187
g32
I00
(lp188
g36
ag37
ag38
ag39
ag40
ag41
atp189
bsg12
Nstp190
Rp191
a(dp192
g68
(dp193
g70
g165
sg71
(lp194
(dp195
g74
g75
(I0
I6
I1
tp196
Rp197
sg78
g178
sasstp198
bsg80
g81
sg12
NsbsI80
g4
(g5
g6
Ntp199
Rp200
(dp201
g10
g11
sg13
g4
(g14
g6
Ntp202
Rp203
((lp204
g18
(g19
(dp205
g21
g22
(g23
(I0
tp206
g25
tp207
Rp208
(I1
(I6
tp209
g32
I00
(lp210
g36
ag37
ag38
ag39
ag40
ag41
atp211
bsg12
Nstp212
Rp213
a(lp214
g22
(g23
(I0
tp215
g25
tp216
Rp217
(I1
(I6
tp218
g52
I00
S"\xf0(\x10\x0bR\x1d\x00@\x0e_'eN\xd8\x1d@\x01LsF^\x9d1@\xf8\x1d\xc0\x1b\x92\xb4\xfc?6\xe1\xda\xfb\x07A\x01@r\xf8b\xc5N\xd1\xf1?"
p219
tp220
ba(lp221
g18
(g19
(dp222
g21
g22
(g23
(I0
tp223
g25
tp224
Rp225
(I1
(I6
tp226
g32
I00
(lp227
g36
ag37
ag38
ag39
ag40
ag41
atp228
bsg12
Nstp229
Rp230
a(dp231
g68
(dp232
g70
g204
sg71
(lp233
(dp234
g74
g75
(I0
I6
I1
tp235
Rp236
sg78
g217
sasstp237
bsg80
g81
sg12
NsbsI50
g4
(g5
g6
Ntp238
Rp239
(dp240
g10
g11
sg13
g4
(g14
g6
Ntp241
Rp242
((lp243
g18
(g19
(dp244
g21
g22
(g23
(I0
tp245
g25
tp246
Rp247
(I1
(I6
tp248
g32
I00
(lp249
g36
ag37
ag38
ag39
ag40
ag41
atp250
bsg12
Nstp251
Rp252
a(lp253
g22
(g23
(I0
tp254
g25
tp255
Rp256
(I1
(I6
tp257
g52
I00
S'\x00\xfe\x9a\x1d\x15Z\x00@m=}l\x88\xf8\x1d@cEu]\x12\xf33@\x96/n\xc8+\xab\xfe?A\xe7K\x1bRq\x02@\xc5yZ\xc6\x9c,\xef?'
p258
tp259
ba(lp260
g18
(g19
(dp261
g21
g22
(g23
(I0
tp262
g25
tp263
Rp264
(I1
(I6
tp265
g32
I00
(lp266
g36
ag37
ag38
ag39
ag40
ag41
atp267
bsg12
Nstp268
Rp269
a(dp270
g68
(dp271
g70
g243
sg71
(lp272
(dp273
g74
g75
(I0
I6
I1
tp274
Rp275
sg78
g256
sasstp276
bsg80
g81
sg12
NsbsI20
g4
(g5
g6
Ntp277
Rp278
(dp279
g10
g11
sg13
g4
(g14
g6
Ntp280
Rp281
((lp282
g18
(g19
(dp283
g21
g22
(g23
(I0
tp284
g25
tp285
Rp286
(I1
(I6
tp287
g32
I00
(lp288
g36
ag37
ag38
ag39
ag40
ag41
atp289
bsg12
Nstp290
Rp291
a(lp292
g22
(g23
(I0
tp293
g25
tp294
Rp295
(I1
(I6
tp296
g52
I00
S'-\xd3\xb3\xea\x99\x87\x03@\xe1\n\x14\x1fr\x16"@\x8ei$k\xc4\xbb5@[nfhA\xa4\xfe?\xedL\x19\x04\x84\xff\x02@\x98\x84\xf7=9\xfc\xfb?'
p297
tp298
ba(lp299
g18
(g19
(dp300
g21
g22
(g23
(I0
tp301
g25
tp302
Rp303
(I1
(I6
tp304
g32
I00
(lp305
g36
ag37
ag38
ag39
ag40
ag41
atp306
bsg12
Nstp307
Rp308
a(dp309
g68
(dp310
g70
g282
sg71
(lp311
(dp312
g74
g75
(I0
I6
I1
tp313
Rp314
sg78
g295
sasstp315
bsg80
g81
sg12
NsbsI90
g4
(g5
g6
Ntp316
Rp317
(dp318
g10
g11
sg13
g4
(g14
g6
Ntp319
Rp320
((lp321
g18
(g19
(dp322
g21
g22
(g23
(I0
tp323
g25
tp324
Rp325
(I1
(I6
tp326
g32
I00
(lp327
g36
ag37
ag38
ag39
ag40
ag41
atp328
bsg12
Nstp329
Rp330
a(lp331
g22
(g23
(I0
tp332
g25
tp333
Rp334
(I1
(I6
tp335
g52
I00
S'\xd6\x0fx\x1bTB\xff?\xc5\xb3}\rU\xac\x1e@\xf2\x83\xf4\x06\x82\xa80@\x10H\xf0\xafJ\x00\xfd?\xcad=G8\xcf\x00@z\xb1\xe2\xa1\xa8\x8f\xe9?'
p336
tp337
ba(lp338
g18
(g19
(dp339
g21
g22
(g23
(I0
tp340
g25
tp341
Rp342
(I1
(I6
tp343
g32
I00
(lp344
g36
ag37
ag38
ag39
ag40
ag41
atp345
bsg12
Nstp346
Rp347
a(dp348
g68
(dp349
g70
g321
sg71
(lp350
(dp351
g74
g75
(I0
I6
I1
tp352
Rp353
sg78
g334
sasstp354
bsg80
g81
sg12
NsbsI60
g4
(g5
g6
Ntp355
Rp356
(dp357
g10
g11
sg13
g4
(g14
g6
Ntp358
Rp359
((lp360
g18
(g19
(dp361
g21
g22
(g23
(I0
tp362
g25
tp363
Rp364
(I1
(I6
tp365
g32
I00
(lp366
g36
ag37
ag38
ag39
ag40
ag41
atp367
bsg12
Nstp368
Rp369
a(lp370
g22
(g23
(I0
tp371
g25
tp372
Rp373
(I1
(I6
tp374
g52
I00
S'P<\x88\x1b~\xfe\xff?\x1bQcPS\x98\x1b@\x19H#\x1b\xd5\xd02@\xb8\x0f\xa7\x1f\xeb\x03\xfd?F\x1b\x8f0l{\x01@]\x8a5Iq\xaf\xee?'
p375
tp376
ba(lp377
g18
(g19
(dp378
g21
g22
(g23
(I0
tp379
g25
tp380
Rp381
(I1
(I6
tp382
g32
I00
(lp383
g36
ag37
ag38
ag39
ag40
ag41
atp384
bsg12
Nstp385
Rp386
a(dp387
g68
(dp388
g70
g360
sg71
(lp389
(dp390
g74
g75
(I0
I6
I1
tp391
Rp392
sg78
g373
sasstp393
bsg80
g81
sg12
NsbsI30
g4
(g5
g6
Ntp394
Rp395
(dp396
g10
g11
sg13
g4
(g14
g6
Ntp397
Rp398
((lp399
g18
(g19
(dp400
g21
g22
(g23
(I0
tp401
g25
tp402
Rp403
(I1
(I6
tp404
g32
I00
(lp405
g36
ag37
ag38
ag39
ag40
ag41
atp406
bsg12
Nstp407
Rp408
a(lp409
g22
(g23
(I0
tp410
g25
tp411
Rp412
(I1
(I6
tp413
g52
I00
S'\xc6\xac\xfb\x1a\x0c{\x01@Ar\xd7:\xc18 @\xb70e\xbc%&5@\x86{\xb9(\x7f\xee\xfe?7*\x9f\x10\xf0\xbe\x05@\xb6y$\x86\xee\x10\xf1?'
p414
tp415
ba(lp416
g18
(g19
(dp417
g21
g22
(g23
(I0
tp418
g25
tp419
Rp420
(I1
(I6
tp421
g32
I00
(lp422
g36
ag37
ag38
ag39
ag40
ag41
atp423
bsg12
Nstp424
Rp425
a(dp426
g68
(dp427
g70
g399
sg71
(lp428
(dp429
g74
g75
(I0
I6
I1
tp430
Rp431
sg78
g412
sasstp432
bsg80
g81
sg12
Nsbsss.