(dp0
I10
ccopy_reg
_reconstructor
p1
(cpandas.core.series
Series
p2
c__builtin__
object
p3
Ntp4
Rp5
(dp6
S'_metadata'
p7
(lp8
S'name'
p9
asS'_data'
p10
g1
(cpandas.core.internals
SingleBlockManager
p11
g3
Ntp12
Rp13
((lp14
cpandas.core.indexes.base
_new_Index
p15
(cpandas.core.indexes.base
Index
p16
(dp17
S'data'
p18
cnumpy.core.multiarray
_reconstruct
p19
(cnumpy
ndarray
p20
(I0
tp21
S'b'
p22
tp23
Rp24
(I1
(I6
tp25
cnumpy
dtype
p26
(S'O8'
p27
I0
I1
tp28
Rp29
(I3
S'|'
p30
NNNI-1
I-1
I63
tp31
bI00
(lp32
S'dw'
p33
aS'fridge'
p34
aS'hvac'
p35
aS'mw'
p36
aS'oven'
p37
aS'wm'
p38
atp39
bsg9
Nstp40
Rp41
a(lp42
g19
(g20
(I0
tp43
g22
tp44
Rp45
(I1
(I6
tp46
g26
(S'f8'
p47
I0
I1
tp48
Rp49
(I3
S'<'
p50
NNNI-1
I-1
I0
tp51
bI00
S'\xb6\x08\xb4\x86l\xe6\x04@\x9a\xfd\x85\xedH\x1c"@`\xbd\x1fsGu;@\x18\x8a\xa6\x08\xf4{\x07@z\x06I\xbe\xaf\xa4\x05@}\x18\xaf\xbb\x1a\xf3\xf1?'
p52
tp53
ba(lp54
g15
(g16
(dp55
g18
g19
(g20
(I0
tp56
g22
tp57
Rp58
(I1
(I6
tp59
g29
I00
(lp60
g33
ag34
ag35
ag36
ag37
ag38
atp61
bsg9
Nstp62
Rp63
a(dp64
S'0.14.1'
p65
(dp66
S'axes'
p67
g14
sS'blocks'
p68
(lp69
(dp70
S'mgr_locs'
p71
c__builtin__
slice
p72
(I0
I6
I1
tp73
Rp74
sS'values'
p75
g45
sasstp76
bsS'_typ'
p77
S'series'
p78
sg9
NsbsI90
g1
(g2
g3
Ntp79
Rp80
(dp81
g7
g8
sg10
g1
(g11
g3
Ntp82
Rp83
((lp84
g15
(g16
(dp85
g18
g19
(g20
(I0
tp86
g22
tp87
Rp88
(I1
(I6
tp89
g29
I00
(lp90
g33
ag34
ag35
ag36
ag37
ag38
atp91
bsg9
Nstp92
Rp93
a(lp94
g19
(g20
(I0
tp95
g22
tp96
Rp97
(I1
(I6
tp98
g49
I00
S'\xaeiM2M\xdb\xfe?\x9a\x9d\xda\xdf\t|\x1a@9:\xa2\xbdP(1@\x06\xef\xac}S\xac\xfc?\x057\x04/2E\x01@\xbbM\x8dm\xc6\n\xe8?'
p99
tp100
ba(lp101
g15
(g16
(dp102
g18
g19
(g20
(I0
tp103
g22
tp104
Rp105
(I1
(I6
tp106
g29
I00
(lp107
g33
ag34
ag35
ag36
ag37
ag38
atp108
bsg9
Nstp109
Rp110
a(dp111
g65
(dp112
g67
g84
sg68
(lp113
(dp114
g71
g72
(I0
I6
I1
tp115
Rp116
sg75
g97
sasstp117
bsg77
g78
sg9
NsbsI70
g1
(g2
g3
Ntp118
Rp119
(dp120
g7
g8
sg10
g1
(g11
g3
Ntp121
Rp122
((lp123
g15
(g16
(dp124
g18
g19
(g20
(I0
tp125
g22
tp126
Rp127
(I1
(I6
tp128
g29
I00
(lp129
g33
ag34
ag35
ag36
ag37
ag38
atp130
bsg9
Nstp131
Rp132
a(lp133
g19
(g20
(I0
tp134
g22
tp135
Rp136
(I1
(I6
tp137
g49
I00
S'X\x14\xcf\xa8\xaa\xde\xff?e\x0c,n\xd7(\x1d@\tm\xb2\xac\xf0\xf22@\xae\xe2\x07\xbe9\x80\xfd?\x87\xa8\x8f\x9d\xdf\x8a\x01@uY\x9c\xa71u\xe9?'
p138
tp139
ba(lp140
g15
(g16
(dp141
g18
g19
(g20
(I0
tp142
g22
tp143
Rp144
(I1
(I6
tp145
g29
I00
(lp146
g33
ag34
ag35
ag36
ag37
ag38
atp147
bsg9
Nstp148
Rp149
a(dp150
g65
(dp151
g67
g123
sg68
(lp152
(dp153
g71
g72
(I0
I6
I1
tp154
Rp155
sg75
g136
sasstp156
bsg77
g78
sg9
NsbsI50
g1
(g2
g3
Ntp157
Rp158
(dp159
g7
g8
sg10
g1
(g11
g3
Ntp160
Rp161
((lp162
g15
(g16
(dp163
g18
g19
(g20
(I0
tp164
g22
tp165
Rp166
(I1
(I6
tp167
g29
I00
(lp168
g33
ag34
ag35
ag36
ag37
ag38
atp169
bsg9
Nstp170
Rp171
a(lp172
g19
(g20
(I0
tp173
g22
tp174
Rp175
(I1
(I6
tp176
g49
I00
S'j\x1e\x99\x98Hx\xff?\n@x\xbc\x90\xe3\x1f@R\x91\x14\xa3B\xaf3@ \xc1\xcc\xcb\x15\x9e\xfe?\xf1\xe3\xcc2p%\x02@\xed+o\xa2\xba"\xed?'
p177
tp178
ba(lp179
g15
(g16
(dp180
g18
g19
(g20
(I0
tp181
g22
tp182
Rp183
(I1
(I6
tp184
g29
I00
(lp185
g33
ag34
ag35
ag36
ag37
ag38
atp186
bsg9
Nstp187
Rp188
a(dp189
g65
(dp190
g67
g162
sg68
(lp191
(dp192
g71
g72
(I0
I6
I1
tp193
Rp194
sg75
g175
sasstp195
bsg77
g78
sg9
NsbsI30
g1
(g2
g3
Ntp196
Rp197
(dp198
g7
g8
sg10
g1
(g11
g3
Ntp199
Rp200
((lp201
g15
(g16
(dp202
g18
g19
(g20
(I0
tp203
g22
tp204
Rp205
(I1
(I6
tp206
g29
I00
(lp207
g33
ag34
ag35
ag36
ag37
ag38
atp208
bsg9
Nstp209
Rp210
a(lp211
g19
(g20
(I0
tp212
g22
tp213
Rp214
(I1
(I6
tp215
g49
I00
S'\xe6\xed\xd2\x11sl\x00@\xb5mE\x014F\x1f@\xfc%.\xb4$\xe92@\x93$\x9f=\xa4\xe0\xfe?\xa0\xc0\x0c\x9fG\xfd\x01@\xbc\xfe\x9fq>5\xf0?'
p216
tp217
ba(lp218
g15
(g16
(dp219
g18
g19
(g20
(I0
tp220
g22
tp221
Rp222
(I1
(I6
tp223
g29
I00
(lp224
g33
ag34
ag35
ag36
ag37
ag38
atp225
bsg9
Nstp226
Rp227
a(dp228
g65
(dp229
g67
g201
sg68
(lp230
(dp231
g71
g72
(I0
I6
I1
tp232
Rp233
sg75
g214
sasstp234
bsg77
g78
sg9
Nsbs.