(dp0
S'None'
p1
(dp2
I0
(dp3
I10
ccopy_reg
_reconstructor
p4
(cpandas.core.series
Series
p5
c__builtin__
object
p6
Ntp7
Rp8
(dp9
S'_metadata'
p10
(lp11
S'name'
p12
asS'_data'
p13
g4
(cpandas.core.internals
SingleBlockManager
p14
g6
Ntp15
Rp16
((lp17
cpandas.core.indexes.base
_new_Index
p18
(cpandas.core.indexes.base
Index
p19
(dp20
S'data'
p21
cnumpy.core.multiarray
_reconstruct
p22
(cnumpy
ndarray
p23
(I0
tp24
S'b'
p25
tp26
Rp27
(I1
(I6
tp28
cnumpy
dtype
p29
(S'O8'
p30
I0
I1
tp31
Rp32
(I3
S'|'
p33
NNNI-1
I-1
I63
tp34
bI00
(lp35
S'dw'
p36
aS'fridge'
p37
aS'hvac'
p38
aS'mw'
p39
aS'oven'
p40
aS'wm'
p41
atp42
bsg12
Nstp43
Rp44
a(lp45
g22
(g23
(I0
tp46
g25
tp47
Rp48
(I1
(I6
tp49
g29
(S'f8'
p50
I0
I1
tp51
Rp52
(I3
S'<'
p53
NNNI-1
I-1
I0
tp54
bI00
S'\x12r\xd8\xd1w\xca\x07@\xd9EE\xe7\x8d\x1f(@c3\xae"\xf2^6@\x81\xb9\x1f\xf9\x9d6\x03@\xdf\xe3\xc4\xe2[a\t@\xa0\xec\xbd\n{\xb1\x16@'
p55
tp56
ba(lp57
g18
(g19
(dp58
g21
g22
(g23
(I0
tp59
g25
tp60
Rp61
(I1
(I6
tp62
g32
I00
(lp63
g36
ag37
ag38
ag39
ag40
ag41
atp64
bsg12
Nstp65
Rp66
a(dp67
S'0.14.1'
p68
(dp69
S'axes'
p70
g17
sS'blocks'
p71
(lp72
(dp73
S'mgr_locs'
p74
c__builtin__
slice
p75
(I0
I6
I1
tp76
Rp77
sS'values'
p78
g48
sasstp79
bsS'_typ'
p80
S'series'
p81
sg12
NsbsI90
g4
(g5
g6
Ntp82
Rp83
(dp84
g10
g11
sg13
g4
(g14
g6
Ntp85
Rp86
((lp87
g18
(g19
(dp88
g21
g22
(g23
(I0
tp89
g25
tp90
Rp91
(I1
(I6
tp92
g32
I00
(lp93
g36
ag37
ag38
ag39
ag40
ag41
atp94
bsg12
Nstp95
Rp96
a(lp97
g22
(g23
(I0
tp98
g25
tp99
Rp100
(I1
(I6
tp101
g52
I00
S'\xd6\x0fx\x1bTB\xff?\xc5\xb3}\rU\xac\x1e@\xf2\x83\xf4\x06\x82\xa80@\x10H\xf0\xafJ\x00\xfd?\xcad=G8\xcf\x00@z\xb1\xe2\xa1\xa8\x8f\xe9?'
p102
tp103
ba(lp104
g18
(g19
(dp105
g21
g22
(g23
(I0
tp106
g25
tp107
Rp108
(I1
(I6
tp109
g32
I00
(lp110
g36
ag37
ag38
ag39
ag40
ag41
atp111
bsg12
Nstp112
Rp113
a(dp114
g68
(dp115
g70
g87
sg71
(lp116
(dp117
g74
g75
(I0
I6
I1
tp118
Rp119
sg78
g100
sasstp120
bsg80
g81
sg12
NsbsI70
g4
(g5
g6
Ntp121
Rp122
(dp123
g10
g11
sg13
g4
(g14
g6
Ntp124
Rp125
((lp126
g18
(g19
(dp127
g21
g22
(g23
(I0
tp128
g25
tp129
Rp130
(I1
(I6
tp131
g32
I00
(lp132
g36
ag37
ag38
ag39
ag40
ag41
atp133
bsg12
Nstp134
Rp135
a(lp136
g22
(g23
(I0
tp137
g25
tp138
Rp139
(I1
(I6
tp140
g52
I00
S'\xdb\t)\x99\xe7U\xff?\x82\x0b\xcfX]\t\x1c@\xfd\x84\xe8\x96\nT2@jT\xa8\x14\xe0\xf9\xfc?\xd5\xda~\xce\x10\x80\x01@\x15K7V,\x11\xe9?'
p141
tp142
ba(lp143
g18
(g19
(dp144
g21
g22
(g23
(I0
tp145
g25
tp146
Rp147
(I1
(I6
tp148
g32
I00
(lp149
g36
ag37
ag38
ag39
ag40
ag41
atp150
bsg12
Nstp151
Rp152
a(dp153
g68
(dp154
g70
g126
sg71
(lp155
(dp156
g74
g75
(I0
I6
I1
tp157
Rp158
sg78
g139
sasstp159
bsg80
g81
sg12
NsbsI50
g4
(g5
g6
Ntp160
Rp161
(dp162
g10
g11
sg13
g4
(g14
g6
Ntp163
Rp164
((lp165
g18
(g19
(dp166
g21
g22
(g23
(I0
tp167
g25
tp168
Rp169
(I1
(I6
tp170
g32
I00
(lp171
g36
ag37
ag38
ag39
ag40
ag41
atp172
bsg12
Nstp173
Rp174
a(lp175
g22
(g23
(I0
tp176
g25
tp177
Rp178
(I1
(I6
tp179
g52
I00
S'\x00\xfe\x9a\x1d\x15Z\x00@m=}l\x88\xf8\x1d@cEu]\x12\xf33@\x96/n\xc8+\xab\xfe?A\xe7K\x1bRq\x02@\xc5yZ\xc6\x9c,\xef?'
p180
tp181
ba(lp182
g18
(g19
(dp183
g21
g22
(g23
(I0
tp184
g25
tp185
Rp186
(I1
(I6
tp187
g32
I00
(lp188
g36
ag37
ag38
ag39
ag40
ag41
atp189
bsg12
Nstp190
Rp191
a(dp192
g68
(dp193
g70
g165
sg71
(lp194
(dp195
g74
g75
(I0
I6
I1
tp196
Rp197
sg78
g178
sasstp198
bsg80
g81
sg12
NsbsI30
g4
(g5
g6
Ntp199
Rp200
(dp201
g10
g11
sg13
g4
(g14
g6
Ntp202
Rp203
((lp204
g18
(g19
(dp205
g21
g22
(g23
(I0
tp206
g25
tp207
Rp208
(I1
(I6
tp209
g32
I00
(lp210
g36
ag37
ag38
ag39
ag40
ag41
atp211
bsg12
Nstp212
Rp213
a(lp214
g22
(g23
(I0
tp215
g25
tp216
Rp217
(I1
(I6
tp218
g52
I00
S'\xc6\xac\xfb\x1a\x0c{\x01@Ar\xd7:\xc18 @\xb70e\xbc%&5@\x86{\xb9(\x7f\xee\xfe?7*\x9f\x10\xf0\xbe\x05@\xb6y$\x86\xee\x10\xf1?'
p219
tp220
ba(lp221
g18
(g19
(dp222
g21
g22
(g23
(I0
tp223
g25
tp224
Rp225
(I1
(I6
tp226
g32
I00
(lp227
g36
ag37
ag38
ag39
ag40
ag41
atp228
bsg12
Nstp229
Rp230
a(dp231
g68
(dp232
g70
g204
sg71
(lp233
(dp234
g74
g75
(I0
I6
I1
tp235
Rp236
sg78
g217
sasstp237
bsg80
g81
sg12
NsbsssS'static'
p238
(dp239
I0
(dp240
I10
g4
(g5
g6
Ntp241
Rp242
(dp243
g10
g11
sg13
g4
(g14
g6
Ntp244
Rp245
((lp246
g18
(g19
(dp247
g21
g22
(g23
(I0
tp248
g25
tp249
Rp250
(I1
(I6
tp251
g32
I00
(lp252
g36
ag37
ag38
ag39
ag40
ag41
atp253
bsg12
Nstp254
Rp255
a(lp256
g22
(g23
(I0
tp257
g25
tp258
Rp259
(I1
(I6
tp260
g52
I00
S"\x00\xb1\xd6'9x\x08@R\x0e\xe5K}F'@\xfe?H\x9ek\x9e9@C\x1c9\xcd\xfaw\x06@\xbd\xa9L*\x86L\x0e@E\x84\xd9\xdc\x93\xf1\x10@"
p261
tp262
ba(lp263
g18
(g19
(dp264
g21
g22
(g23
(I0
tp265
g25
tp266
Rp267
(I1
(I6
tp268
g32
I00
(lp269
g36
ag37
ag38
ag39
ag40
ag41
atp270
bsg12
Nstp271
Rp272
a(dp273
g68
(dp274
g70
g246
sg71
(lp275
(dp276
g74
g75
(I0
I6
I1
tp277
Rp278
sg78
g259
sasstp279
bsg80
g81
sg12
NsbsI90
g4
(g5
g6
Ntp280
Rp281
(dp282
g10
g11
sg13
g4
(g14
g6
Ntp283
Rp284
((lp285
g18
(g19
(dp286
g21
g22
(g23
(I0
tp287
g25
tp288
Rp289
(I1
(I6
tp290
g32
I00
(lp291
g36
ag37
ag38
ag39
ag40
ag41
atp292
bsg12
Nstp293
Rp294
a(lp295
g22
(g23
(I0
tp296
g25
tp297
Rp298
(I1
(I6
tp299
g52
I00
S'\xb0Q\xf3S\xabx\xfe?\xe3\x19^4\xe7\x81\x1d@x{\xebE\xa5\x063@Jo^nyH\xfc?r\xd3\x8d\xf4\xcd\xac\x01@:\xb8\xc6"X\x10\xeb?'
p300
tp301
ba(lp302
g18
(g19
(dp303
g21
g22
(g23
(I0
tp304
g25
tp305
Rp306
(I1
(I6
tp307
g32
I00
(lp308
g36
ag37
ag38
ag39
ag40
ag41
atp309
bsg12
Nstp310
Rp311
a(dp312
g68
(dp313
g70
g285
sg71
(lp314
(dp315
g74
g75
(I0
I6
I1
tp316
Rp317
sg78
g298
sasstp318
bsg80
g81
sg12
NsbsI70
g4
(g5
g6
Ntp319
Rp320
(dp321
g10
g11
sg13
g4
(g14
g6
Ntp322
Rp323
((lp324
g18
(g19
(dp325
g21
g22
(g23
(I0
tp326
g25
tp327
Rp328
(I1
(I6
tp329
g32
I00
(lp330
g36
ag37
ag38
ag39
ag40
ag41
atp331
bsg12
Nstp332
Rp333
a(lp334
g22
(g23
(I0
tp335
g25
tp336
Rp337
(I1
(I6
tp338
g52
I00
S'\xe5>\xcb\xeaz\x15\x00@v\xab\xc8\xd6\x86\x99$@=-\x8b\xbf\x9734@h\xdfz\xe9#E\x01@\xe6_\xbb\x0e\x114\x02@j95\xc1q\xce\xee?'
p339
tp340
ba(lp341
g18
(g19
(dp342
g21
g22
(g23
(I0
tp343
g25
tp344
Rp345
(I1
(I6
tp346
g32
I00
(lp347
g36
ag37
ag38
ag39
ag40
ag41
atp348
bsg12
Nstp349
Rp350
a(dp351
g68
(dp352
g70
g324
sg71
(lp353
(dp354
g74
g75
(I0
I6
I1
tp355
Rp356
sg78
g337
sasstp357
bsg80
g81
sg12
NsbsI50
g4
(g5
g6
Ntp358
Rp359
(dp360
g10
g11
sg13
g4
(g14
g6
Ntp361
Rp362
((lp363
g18
(g19
(dp364
g21
g22
(g23
(I0
tp365
g25
tp366
Rp367
(I1
(I6
tp368
g32
I00
(lp369
g36
ag37
ag38
ag39
ag40
ag41
atp370
bsg12
Nstp371
Rp372
a(lp373
g22
(g23
(I0
tp374
g25
tp375
Rp376
(I1
(I6
tp377
g52
I00
S'\xef\xe30\x9e\xa1\xde\x00@\x95-y6\xe6\x8b\x1d@\x89\x90z\xcb\xbb\t6@e\xe6\xd6\x8b\xe6S\xfd?\x92\xa7\x9f\x89!\xe2\x02@\xf3\x03\xb1\xe6\xaa\x16\xed?'
p378
tp379
ba(lp380
g18
(g19
(dp381
g21
g22
(g23
(I0
tp382
g25
tp383
Rp384
(I1
(I6
tp385
g32
I00
(lp386
g36
ag37
ag38
ag39
ag40
ag41
atp387
bsg12
Nstp388
Rp389
a(dp390
g68
(dp391
g70
g363
sg71
(lp392
(dp393
g74
g75
(I0
I6
I1
tp394
Rp395
sg78
g376
sasstp396
bsg80
g81
sg12
NsbsI30
g4
(g5
g6
Ntp397
Rp398
(dp399
g10
g11
sg13
g4
(g14
g6
Ntp400
Rp401
((lp402
g18
(g19
(dp403
g21
g22
(g23
(I0
tp404
g25
tp405
Rp406
(I1
(I6
tp407
g32
I00
(lp408
g36
ag37
ag38
ag39
ag40
ag41
atp409
bsg12
Nstp410
Rp411
a(lp412
g22
(g23
(I0
tp413
g25
tp414
Rp415
(I1
(I6
tp416
g52
I00
S'F)\x84\xda\x89\x97\x02@v$\xa1\x11\x8d\xe3$@@\xfbz0\xf9\xba3@\xa5ess\xeb\x90\xff?\xd0\x0c\x81\xfev\x13\x04@6\x0f\xea\x87\x1f7\xf3?'
p417
tp418
ba(lp419
g18
(g19
(dp420
g21
g22
(g23
(I0
tp421
g25
tp422
Rp423
(I1
(I6
tp424
g32
I00
(lp425
g36
ag37
ag38
ag39
ag40
ag41
atp426
bsg12
Nstp427
Rp428
a(dp429
g68
(dp430
g70
g402
sg71
(lp431
(dp432
g74
g75
(I0
I6
I1
tp433
Rp434
sg78
g415
sasstp435
bsg80
g81
sg12
Nsbsss.