(dp0
I100
ccopy_reg
_reconstructor
p1
(cpandas.core.series
Series
p2
c__builtin__
object
p3
Ntp4
Rp5
(dp6
S'_metadata'
p7
(lp8
S'name'
p9
asS'_data'
p10
g1
(cpandas.core.internals
SingleBlockManager
p11
g3
Ntp12
Rp13
((lp14
cpandas.core.indexes.base
_new_Index
p15
(cpandas.core.indexes.base
Index
p16
(dp17
S'data'
p18
cnumpy.core.multiarray
_reconstruct
p19
(cnumpy
ndarray
p20
(I0
tp21
S'b'
p22
tp23
Rp24
(I1
(I6
tp25
cnumpy
dtype
p26
(S'O8'
p27
I0
I1
tp28
Rp29
(I3
S'|'
p30
NNNI-1
I-1
I63
tp31
bI00
(lp32
S'dw'
p33
aS'fridge'
p34
aS'hvac'
p35
aS'mw'
p36
aS'oven'
p37
aS'wm'
p38
atp39
bsg9
Nstp40
Rp41
a(lp42
g19
(g20
(I0
tp43
g22
tp44
Rp45
(I1
(I6
tp46
g26
(S'f8'
p47
I0
I1
tp48
Rp49
(I3
S'<'
p50
NNNI-1
I-1
I0
tp51
bI00
S'\xf5\x91\xadm\x12\x0f\xf5?\x8ec\x03T:\x9b\x17@88|\x95Bs.@%\xf9\x1as\x05T\x01@\xe8\xbd\x029\x16G\xff?\xd6\x92\xfd\x83\x93\x97\xf2?'
p52
tp53
ba(lp54
g15
(g16
(dp55
g18
g19
(g20
(I0
tp56
g22
tp57
Rp58
(I1
(I6
tp59
g29
I00
(lp60
g33
ag34
ag35
ag36
ag37
ag38
atp61
bsg9
Nstp62
Rp63
a(dp64
S'0.14.1'
p65
(dp66
S'axes'
p67
g14
sS'blocks'
p68
(lp69
(dp70
S'mgr_locs'
p71
c__builtin__
slice
p72
(I0
I6
I1
tp73
Rp74
sS'values'
p75
g45
sasstp76
bsS'_typ'
p77
S'series'
p78
sg9
NsbsI70
g1
(g2
g3
Ntp79
Rp80
(dp81
g7
g8
sg10
g1
(g11
g3
Ntp82
Rp83
((lp84
g15
(g16
(dp85
g18
g19
(g20
(I0
tp86
g22
tp87
Rp88
(I1
(I6
tp89
g29
I00
(lp90
g33
ag34
ag35
ag36
ag37
ag38
atp91
bsg9
Nstp92
Rp93
a(lp94
g19
(g20
(I0
tp95
g22
tp96
Rp97
(I1
(I6
tp98
g49
I00
S'\x10\xec\xafQ\xdae\xf4?\xc3\xd6>\x95i\xa5\x17@\x98\xcf\x1eGg]/@\x0be\x1b\xef&5\xff?\xfa\xbe\xaa\x04]\xc6\xfd?\xb2o\xabm\xde\xaa\xf1?'
p99
tp100
ba(lp101
g15
(g16
(dp102
g18
g19
(g20
(I0
tp103
g22
tp104
Rp105
(I1
(I6
tp106
g29
I00
(lp107
g33
ag34
ag35
ag36
ag37
ag38
atp108
bsg9
Nstp109
Rp110
a(dp111
g65
(dp112
g67
g84
sg68
(lp113
(dp114
g71
g72
(I0
I6
I1
tp115
Rp116
sg75
g97
sasstp117
bsg77
g78
sg9
NsbsI40
g1
(g2
g3
Ntp118
Rp119
(dp120
g7
g8
sg10
g1
(g11
g3
Ntp121
Rp122
((lp123
g15
(g16
(dp124
g18
g19
(g20
(I0
tp125
g22
tp126
Rp127
(I1
(I6
tp128
g29
I00
(lp129
g33
ag34
ag35
ag36
ag37
ag38
atp130
bsg9
Nstp131
Rp132
a(lp133
g19
(g20
(I0
tp134
g22
tp135
Rp136
(I1
(I6
tp137
g49
I00
S'\x19\xa8\x8a\x1b\x15\xeb\xf6?\x85\xbfR[\xedh\x1a@\x99{?\xf7\xb1>0@\x15\xba\x10\xb4)R\x00@\x8fvJx\xb94\x00@\x05\xcf\x9bo\xed\xe4\xf2?'
p138
tp139
ba(lp140
g15
(g16
(dp141
g18
g19
(g20
(I0
tp142
g22
tp143
Rp144
(I1
(I6
tp145
g29
I00
(lp146
g33
ag34
ag35
ag36
ag37
ag38
atp147
bsg9
Nstp148
Rp149
a(dp150
g65
(dp151
g67
g123
sg68
(lp152
(dp153
g71
g72
(I0
I6
I1
tp154
Rp155
sg75
g136
sasstp156
bsg77
g78
sg9
NsbsI10
g1
(g2
g3
Ntp157
Rp158
(dp159
g7
g8
sg10
g1
(g11
g3
Ntp160
Rp161
((lp162
g15
(g16
(dp163
g18
g19
(g20
(I0
tp164
g22
tp165
Rp166
(I1
(I6
tp167
g29
I00
(lp168
g33
ag34
ag35
ag36
ag37
ag38
atp169
bsg9
Nstp170
Rp171
a(lp172
g19
(g20
(I0
tp173
g22
tp174
Rp175
(I1
(I6
tp176
g49
I00
S"\xec\xbf\x90\xee\x7f+\xf8?\x06'ee\xe2\xd6\x1b@h%~\xde?Z2@\xd3\x1f\xf3\xfa\xda\xaa\xfe?.\xb8\xac2Z\xc1\xff?\x969 \xca\xec\xc4\xf5?"
p177
tp178
ba(lp179
g15
(g16
(dp180
g18
g19
(g20
(I0
tp181
g22
tp182
Rp183
(I1
(I6
tp184
g29
I00
(lp185
g33
ag34
ag35
ag36
ag37
ag38
atp186
bsg9
Nstp187
Rp188
a(dp189
g65
(dp190
g67
g162
sg68
(lp191
(dp192
g71
g72
(I0
I6
I1
tp193
Rp194
sg75
g175
sasstp195
bsg77
g78
sg9
NsbsI80
g1
(g2
g3
Ntp196
Rp197
(dp198
g7
g8
sg10
g1
(g11
g3
Ntp199
Rp200
((lp201
g15
(g16
(dp202
g18
g19
(g20
(I0
tp203
g22
tp204
Rp205
(I1
(I6
tp206
g29
I00
(lp207
g33
ag34
ag35
ag36
ag37
ag38
atp208
bsg9
Nstp209
Rp210
a(lp211
g19
(g20
(I0
tp212
g22
tp213
Rp214
(I1
(I6
tp215
g49
I00
S'\xbc\xba\x0c\x9e\x85\x8e\xf5?\xb3\xd4c\xda%\xb8\x17@\xf0`W\xd03\xe5.@\xd2}\xcaj\x14\x8f\xff?\xc2?\xf1\xc0\xa2\x1d\xfe?\xb9\xff\xae\xae\xf7\xab\xf1?'
p216
tp217
ba(lp218
g15
(g16
(dp219
g18
g19
(g20
(I0
tp220
g22
tp221
Rp222
(I1
(I6
tp223
g29
I00
(lp224
g33
ag34
ag35
ag36
ag37
ag38
atp225
bsg9
Nstp226
Rp227
a(dp228
g65
(dp229
g67
g201
sg68
(lp230
(dp231
g71
g72
(I0
I6
I1
tp232
Rp233
sg75
g214
sasstp234
bsg77
g78
sg9
NsbsI50
g1
(g2
g3
Ntp235
Rp236
(dp237
g7
g8
sg10
g1
(g11
g3
Ntp238
Rp239
((lp240
g15
(g16
(dp241
g18
g19
(g20
(I0
tp242
g22
tp243
Rp244
(I1
(I6
tp245
g29
I00
(lp246
g33
ag34
ag35
ag36
ag37
ag38
atp247
bsg9
Nstp248
Rp249
a(lp250
g19
(g20
(I0
tp251
g22
tp252
Rp253
(I1
(I6
tp254
g49
I00
S'{\xac\xd0r\xfe\xad\xf5?"\x95\xdb#"*\x1a@\x0e\xfafH\xab\x99.@\xe6\xadMn~\xd1\xff?\x9e\\\xb2|\xf65\x00@\x0f\xb5\xd3\xe1\xc1y\xf2?'
p255
tp256
ba(lp257
g15
(g16
(dp258
g18
g19
(g20
(I0
tp259
g22
tp260
Rp261
(I1
(I6
tp262
g29
I00
(lp263
g33
ag34
ag35
ag36
ag37
ag38
atp264
bsg9
Nstp265
Rp266
a(dp267
g65
(dp268
g67
g240
sg68
(lp269
(dp270
g71
g72
(I0
I6
I1
tp271
Rp272
sg75
g253
sasstp273
bsg77
g78
sg9
NsbsI20
g1
(g2
g3
Ntp274
Rp275
(dp276
g7
g8
sg10
g1
(g11
g3
Ntp277
Rp278
((lp279
g15
(g16
(dp280
g18
g19
(g20
(I0
tp281
g22
tp282
Rp283
(I1
(I6
tp284
g29
I00
(lp285
g33
ag34
ag35
ag36
ag37
ag38
atp286
bsg9
Nstp287
Rp288
a(lp289
g19
(g20
(I0
tp290
g22
tp291
Rp292
(I1
(I6
tp293
g49
I00
S">\x91\x1b\x81\xcfm\xf7?\x92\x1c\xfd\xbegc\x1b@\x93\x9al^\x8c\x800@\x99\x99\xe7'd\x0b\x00@\xfe\xde/\xa1\xe6K\xff?\n\xd7\xfba>\xfe\xf2?"
p294
tp295
ba(lp296
g15
(g16
(dp297
g18
g19
(g20
(I0
tp298
g22
tp299
Rp300
(I1
(I6
tp301
g29
I00
(lp302
g33
ag34
ag35
ag36
ag37
ag38
atp303
bsg9
Nstp304
Rp305
a(dp306
g65
(dp307
g67
g279
sg68
(lp308
(dp309
g71
g72
(I0
I6
I1
tp310
Rp311
sg75
g292
sasstp312
bsg77
g78
sg9
NsbsI90
g1
(g2
g3
Ntp313
Rp314
(dp315
g7
g8
sg10
g1
(g11
g3
Ntp316
Rp317
((lp318
g15
(g16
(dp319
g18
g19
(g20
(I0
tp320
g22
tp321
Rp322
(I1
(I6
tp323
g29
I00
(lp324
g33
ag34
ag35
ag36
ag37
ag38
atp325
bsg9
Nstp326
Rp327
a(lp328
g19
(g20
(I0
tp329
g22
tp330
Rp331
(I1
(I6
tp332
g49
I00
S'\xc9\x8b\x08\x93\xd6\xef\xf3?{\t\x8d\x03\xc1 \x16@\xee7V0\xa2f.@~%\x820\x82\xea\x00@\xd8\xb9i\xb1f\x1a\xff?\x8bxQ\xe9G\x16\xf1?'
p333
tp334
ba(lp335
g15
(g16
(dp336
g18
g19
(g20
(I0
tp337
g22
tp338
Rp339
(I1
(I6
tp340
g29
I00
(lp341
g33
ag34
ag35
ag36
ag37
ag38
atp342
bsg9
Nstp343
Rp344
a(dp345
g65
(dp346
g67
g318
sg68
(lp347
(dp348
g71
g72
(I0
I6
I1
tp349
Rp350
sg75
g331
sasstp351
bsg77
g78
sg9
NsbsI60
g1
(g2
g3
Ntp352
Rp353
(dp354
g7
g8
sg10
g1
(g11
g3
Ntp355
Rp356
((lp357
g15
(g16
(dp358
g18
g19
(g20
(I0
tp359
g22
tp360
Rp361
(I1
(I6
tp362
g29
I00
(lp363
g33
ag34
ag35
ag36
ag37
ag38
atp364
bsg9
Nstp365
Rp366
a(lp367
g19
(g20
(I0
tp368
g22
tp369
Rp370
(I1
(I6
tp371
g49
I00
S'FA\x94\xfc}\xb8\xf5?4\xd5\xdd\xd1C\x8a\x18@\x0en\xf8\x14\xbbY/@\xd8\x8ckkO5\xff?\xc3%\x1fH@\xf2\xfe?x\xda;oA\xf3\xf1?'
p372
tp373
ba(lp374
g15
(g16
(dp375
g18
g19
(g20
(I0
tp376
g22
tp377
Rp378
(I1
(I6
tp379
g29
I00
(lp380
g33
ag34
ag35
ag36
ag37
ag38
atp381
bsg9
Nstp382
Rp383
a(dp384
g65
(dp385
g67
g357
sg68
(lp386
(dp387
g71
g72
(I0
I6
I1
tp388
Rp389
sg75
g370
sasstp390
bsg77
g78
sg9
NsbsI30
g1
(g2
g3
Ntp391
Rp392
(dp393
g7
g8
sg10
g1
(g11
g3
Ntp394
Rp395
((lp396
g15
(g16
(dp397
g18
g19
(g20
(I0
tp398
g22
tp399
Rp400
(I1
(I6
tp401
g29
I00
(lp402
g33
ag34
ag35
ag36
ag37
ag38
atp403
bsg9
Nstp404
Rp405
a(lp406
g19
(g20
(I0
tp407
g22
tp408
Rp409
(I1
(I6
tp410
g49
I00
S'\xc8I}K`\x88\xf5?\x03\x94f\xf2\xb8\x01\x1b@\xb6\x9c\xe3\x03\x11\x1f/@\xb6\xd0g\x12\xb0\xd6\xfe?\xc2\xda\x94\x9b\x9c\x9b\xfc?z\xb9\xff\xe6\xbb\xc9\xf2?'
p411
tp412
ba(lp413
g15
(g16
(dp414
g18
g19
(g20
(I0
tp415
g22
tp416
Rp417
(I1
(I6
tp418
g29
I00
(lp419
g33
ag34
ag35
ag36
ag37
ag38
atp420
bsg9
Nstp421
Rp422
a(dp423
g65
(dp424
g67
g396
sg68
(lp425
(dp426
g71
g72
(I0
I6
I1
tp427
Rp428
sg75
g409
sasstp429
bsg77
g78
sg9
Nsbs.