(dp0
F0.5
(dp1
I2
(dp2
I2
(dp3
I0
(dp4
I900
F9.627667831234097
sI1300
F9.118168904956608
sI300
F10.955496184522747
sI1100
F9.34032683376946
sI500
F10.417963535946386
sI100
F12.446010983115128
sI700
F9.992996647456753
ssI1
(dp5
I900
F15.180148776028352
sI1300
F16.461275150596972
sI300
F17.531450967963973
sI1100
F16.30186340021462
sI500
F15.969916165682298
sI100
F18.96302875044689
sI700
F14.047057807941567
ssF0.001
(dp6
I900
F12.553134931006891
sI1300
F11.123861519111728
sI300
F14.809147368055743
sI1100
F11.758573707503349
sI500
F14.164019607178535
sI100
F16.308749789209372
sI700
F13.418699925652989
ssF0.1
(dp7
I900
F16.445995815062314
sI1300
F16.464299317136216
sI300
F14.689551369365615
sI1100
F16.451089762601217
sI500
F16.448254467295566
sI100
F17.92479328211052
sI700
F16.453054034360132
ssF0.01
(dp8
I900
F16.26275822399388
sI1300
F16.250704873181732
sI300
F16.4849251491856
sI1100
F16.25598143484753
sI500
F16.335928677122144
sI100
F15.458237383140798
sI700
F16.282429988171092
ssssI3
(dp9
I3
(dp10
I0
(dp11
I900
F6.487776752113542
sI1300
F6.222994144582504
sI300
F6.5740859088312975
sI1100
F6.4834910402772685
sI500
F6.473684114138318
sI100
F8.32283209862051
sI700
F6.450497424536552
ssI1
(dp12
I900
F13.302370337573532
sI1300
F13.123699875808176
sI300
F14.966676081325511
sI1100
F13.16941605115643
sI500
F12.131635911024025
sI100
F17.939975618077263
sI700
F13.273022288816765
ssF0.001
(dp13
I900
F7.2689533043495835
sI1300
F6.652180322001114
sI300
F11.291060183584126
sI1100
F6.85781429848739
sI500
F9.758131812710365
sI100
F14.049211437488605
sI700
F8.163604273119672
ssF0.1
(dp14
I900
F13.032409091686082
sI1300
F12.968516099258135
sI300
F12.524971377242792
sI1100
F12.998510865117446
sI500
F13.127109131372544
sI100
F16.772178190272914
sI700
F13.073823119372129
ssF0.01
(dp15
I900
F12.784550132315637
sI1300
F12.65326083880836
sI300
F13.243524535206198
sI1100
F12.716978039663456
sI500
F13.031458263898763
sI100
F14.711936226624363
sI700
F12.867188051320143
ssssI4
(dp16
I4
(dp17
I0
(dp18
I900
F5.740949137082255
sI1300
F5.704924603400168
sI300
F5.969004926090811
sI1100
F5.719476537531328
sI500
F5.813468046811146
sI100
F7.480712368044692
sI700
F5.771311505331452
ssI1
(dp19
I900
F13.165558507627459
sI1300
F12.682363314689
sI300
F14.333143942792788
sI1100
F12.798233077049781
sI500
F12.314160703776537
sI100
F17.39698253991683
sI700
F13.99795659735117
ssF0.001
(dp20
I900
F6.194880928609203
sI1300
F6.063805800893755
sI300
F10.578461488577814
sI1100
F6.101319345529972
sI500
F7.808667485614499
sI100
F12.973480648958569
sI700
F6.511936733777861
ssF0.1
(dp21
I900
F12.515222459677437
sI1300
F12.385973989321993
sI300
F13.325231246707135
sI1100
F12.423973056107476
sI500
F13.025229442196025
sI100
F16.186388553405823
sI700
F12.695713933234162
ssF0.01
(dp22
I900
F12.510925997887542
sI1300
F12.37896240103883
sI300
F12.770448135381233
sI1100
F12.440986616987086
sI500
F12.679548067116977
sI100
F14.075515601615823
sI700
F12.594822115081344
ssssI5
(dp23
I5
(dp24
I0
(dp25
I900
F5.038930901168331
sI1300
F4.9957093069088945
sI300
F5.176567229598968
sI1100
F5.021907719964916
sI500
F5.11440608768623
sI100
F7.002991880664079
sI700
F5.080985608135163
ssI1
(dp26
I900
F12.87639012892648
sI1300
F12.585271596560599
sI300
F12.479780186695415
sI1100
F12.678851324440947
sI500
F14.320791932826266
sI100
F16.649502136819365
sI700
F13.312680363782244
ssF0.001
(dp27
I900
F6.052352232054306
sI1300
F5.885369687561554
sI300
F10.258811515988357
sI1100
F5.93692364218068
sI500
F7.472376383449743
sI100
F12.573667459385192
sI700
F6.374231968738766
ssF0.1
(dp28
I900
F12.411343034964464
sI1300
F12.404374949878097
sI300
F13.17230854333606
sI1100
F12.415357997902035
sI500
F12.423295821916286
sI100
F15.361618264257476
sI700
F12.390718884557499
ssF0.01
(dp29
I900
F11.92680186242174
sI1300
F11.842028228131037
sI300
F12.380395387004711
sI1100
F11.9031961652193
sI500
F12.040922317552186
sI100
F14.037578722539315
sI700
F11.942824465662225
sssssI1
(dp30
I2
(dp31
I2
(dp32
I0
(dp33
I900
F7.7579395622812894
sI1300
F7.490254432626438
sI300
F9.312052869811076
sI1100
F7.562989919092866
sI500
F8.638938933811998
sI100
F10.982472780613202
sI700
F8.146354659706983
ssI1
(dp34
I900
F16.645113870265735
sI1300
F16.709968335935773
sI300
F14.329092115429695
sI1100
F16.684557947870548
sI500
F16.48551264767154
sI100
F17.639871445039535
sI700
F16.57907634272114
ssF0.001
(dp35
I900
F9.805325909999986
sI1300
F9.683601134903729
sI300
F11.743144326282144
sI1100
F9.712079825577126
sI500
F10.634115452370066
sI100
F14.530638463069515
sI700
F10.068362060207656
ssF0.1
(dp36
I900
F16.617023675224342
sI1300
F16.65378451088439
sI300
F16.41658766926423
sI1100
F16.642808697650548
sI500
F16.477688335702933
sI100
F14.944430854071538
sI700
F16.564530423629993
ssF0.01
(dp37
I900
F15.831583083579762
sI1300
F13.346446870280918
sI300
F16.201906111889226
sI1100
F15.021372543420341
sI500
F16.19621522261815
sI100
F16.495688349997874
sI700
F16.11580216792872
ssssI3
(dp38
I3
(dp39
I0
(dp40
I900
F5.526306099159496
sI1300
F5.5448511131384866
sI300
F6.551457717681068
sI1100
F5.539153681119059
sI500
F5.717453120515093
sI100
F7.277490385392414
sI700
F5.516153650550261
ssI1
(dp41
I900
F12.707686279046099
sI1300
F12.42621690678102
sI300
F13.318201052380598
sI1100
F12.518557646136973
sI500
F13.147643890166693
sI100
F14.591886657039334
sI700
F12.980438598423978
ssF0.001
(dp42
I900
F6.444089384659055
sI1300
F6.363171692505302
sI300
F7.614161153347412
sI1100
F6.3803387607829665
sI500
F6.814969939761527
sI100
F10.732420894828099
sI700
F6.554760204502553
ssF0.1
(dp43
I900
F12.31371575658486
sI1300
F12.211886293047522
sI300
F13.037594593760337
sI1100
F12.238095222676597
sI500
F12.864819661981448
sI100
F11.716031745018554
sI700
F12.531785741349818
ssF0.01
(dp44
I900
F10.189635145893178
sI1300
F7.963305884254116
sI300
F12.56722121110686
sI1100
F8.810684622755034
sI500
F12.072520438280087
sI100
F13.240204008689506
sI700
F11.34736265214151
ssssI4
(dp45
I4
(dp46
I0
(dp47
I900
F5.638901269145921
sI1300
F5.654956500104874
sI300
F5.71415978213665
sI1100
F5.644690328789696
sI500
F5.642567761997543
sI100
F6.385677755718594
sI700
F5.638615195475574
ssI1
(dp48
I900
F12.575361079991008
sI1300
F12.508081904009183
sI300
F13.55590796817827
sI1100
F12.544228739705302
sI500
F12.764792802557352
sI100
F13.343251321601459
sI700
F12.594413124257708
ssF0.001
(dp49
I900
F5.702656669143448
sI1300
F5.559003669431519
sI300
F7.022826741956717
sI1100
F5.642446683002728
sI500
F6.132102277734387
sI100
F10.499421232565222
sI700
F5.826537150194222
ssF0.1
(dp50
I900
F12.434489449638445
sI1300
F12.345816390392303
sI300
F12.639464221393549
sI1100
F12.393277893365989
sI500
F12.497555364153747
sI100
F12.663478989531365
sI700
F12.4708869009074
ssF0.01
(dp51
I900
F9.022119643655614
sI1300
F7.312263143587498
sI300
F12.136338563822145
sI1100
F8.062419284495615
sI500
F11.68063171657829
sI100
F13.140007483634431
sI700
F10.574797855962126
ssssI5
(dp52
I5
(dp53
I0
(dp54
I900
F4.117735065877009
sI1300
F4.04396109082912
sI300
F4.39714137424951
sI1100
F4.070329971632546
sI500
F4.303752423791732
sI100
F6.5130230475631254
sI700
F4.19825611796356
ssI1
(dp55
I900
F12.587304092745331
sI1300
F12.493433367256301
sI300
F13.670694503757947
sI1100
F12.533748815736915
sI500
F12.894362135920654
sI100
F13.069204697253651
sI700
F12.671001148356321
ssF0.001
(dp56
I900
F5.154753668656762
sI1300
F4.767684924459471
sI300
F6.981933517306019
sI1100
F4.9613470691935175
sI500
F5.8983152230316485
sI100
F11.260538148741682
sI700
F5.411761528374066
ssF0.1
(dp57
I900
F12.27158602473642
sI1300
F12.184384847620116
sI300
F12.662696811881723
sI1100
F12.292197454313492
sI500
F12.400409080419221
sI100
F14.143358371363124
sI700
F12.32146236830538
ssF0.01
(dp58
I900
F9.34223148329347
sI1300
F7.8142432491589355
sI300
F11.884291068847439
sI1100
F8.478257129493533
sI500
F11.5182889033534
sI100
F13.371993311619468
sI700
F10.655478000776775
sssssI2
(dp59
I2
(dp60
I2
(dp61
I0
(dp62
I900
F7.460684110766951
sI1300
F7.463189528014689
sI300
F8.138575046247963
sI1100
F7.46231618399985
sI500
F7.530403982283535
sI100
F10.228510964940176
sI700
F7.462810970310774
ssI1
(dp63
I900
F16.043787472910545
sI1300
F16.180391146440606
sI300
F15.881652440077293
sI1100
F16.103935987608946
sI500
F15.957612317269316
sI100
F14.855476021863407
sI700
F16.017579862327402
ssF0.001
(dp64
I900
F9.838400179210625
sI1300
F9.788111236878494
sI300
F10.78891900951857
sI1100
F9.801352417213442
sI500
F10.187228650841698
sI100
F12.634779657040784
sI700
F9.934905463714776
ssF0.1
(dp65
I900
F15.929541507194063
sI1300
F16.022931452656703
sI300
F15.663295970285265
sI1100
F15.96477516225061
sI500
F15.7792854529182
sI100
F15.676759004315008
sI700
F15.881610724936584
ssF0.01
(dp66
I900
F12.971379390096775
sI1300
F13.020125827800037
sI300
F14.752398612729516
sI1100
F12.977867824856663
sI500
F13.727426623736214
sI100
F16.332675092630396
sI700
F13.100858974572185
ssssI3
(dp67
I3
(dp68
I0
(dp69
I900
F5.521527217322512
sI1300
F5.557521522657438
sI300
F6.287755938054222
sI1100
F5.5428913375514615
sI500
F5.571343283995063
sI100
F7.136391676315939
sI700
F5.5175359695612824
ssI1
(dp70
I900
F12.422331483351018
sI1300
F12.380989783620075
sI300
F12.990824086758263
sI1100
F12.397775217454436
sI500
F12.614371369153954
sI100
F15.138837500426828
sI700
F12.47156822554401
ssF0.001
(dp71
I900
F6.817525998402377
sI1300
F6.683923549357158
sI300
F8.111999470195403
sI1100
F7.146807805789894
sI500
F7.301058898437141
sI100
F10.730148028009936
sI700
F7.0749847505483165
ssF0.1
(dp72
I900
F12.265278691921042
sI1300
F12.253001950982743
sI300
F12.731077684907353
sI1100
F12.250327925834881
sI500
F12.38902759861874
sI100
F14.098296155141675
sI700
F12.300250458743086
ssF0.01
(dp73
I900
F9.600714285940477
sI1300
F8.509357967387853
sI300
F12.302592615794703
sI1100
F9.004625299732737
sI500
F11.50414496078201
sI100
F13.212399104322458
sI700
F10.836884988593852
ssssI4
(dp74
I4
(dp75
I0
(dp76
I900
F5.685429617041798
sI1300
F5.682779604624277
sI300
F5.721752269559727
sI1100
F5.681333288074481
sI500
F5.74683571458471
sI100
F6.529461232676829
sI700
F5.695181861178979
ssI1
(dp77
I900
F12.424513179310225
sI1300
F12.317982623343088
sI300
F12.868250193461265
sI1100
F12.368870885892198
sI500
F12.57614678543165
sI100
F14.12693567963357
sI700
F12.494404220967448
ssF0.001
(dp78
I900
F6.286176048773204
sI1300
F6.0570093462847625
sI300
F7.319225687111005
sI1100
F6.153200281337298
sI500
F6.614579890533682
sI100
F9.669071605451714
sI700
F6.391523795891968
ssF0.1
(dp79
I900
F12.282225067326635
sI1300
F12.173581005289543
sI300
F12.528885329687675
sI1100
F12.230755867434784
sI500
F12.436082904491084
sI100
F13.67826744432881
sI700
F12.355244649839548
ssF0.01
(dp80
I900
F8.966991634260735
sI1300
F8.018377184191523
sI300
F11.762388576568416
sI1100
F8.393316528700408
sI500
F11.032972471961768
sI100
F12.896220173534179
sI700
F9.952031775418407
ssssI5
(dp81
I5
(dp82
I0
(dp83
I900
F4.470744816768262
sI1300
F4.413723188654616
sI300
F4.983514714881702
sI1100
F4.445762332431919
sI500
F4.561037688015374
sI100
F6.709674938099058
sI700
F4.480618576032153
ssI1
(dp84
I900
F12.195517889301673
sI1300
F12.155585542588002
sI300
F12.725806246236324
sI1100
F12.1731901790236
sI500
F12.277360899247526
sI100
F14.817631933663666
sI700
F12.229144284112797
ssF0.001
(dp85
I900
F5.458000159902224
sI1300
F5.289783019643158
sI300
F6.712869036524647
sI1100
F5.343440619719997
sI500
F5.897142662540353
sI100
F10.232389044864123
sI700
F5.576701231524004
ssF0.1
(dp86
I900
F12.056678153011648
sI1300
F12.019084947350239
sI300
F12.313883537763203
sI1100
F12.041003702900197
sI500
F12.130483894318596
sI100
F14.47612680431425
sI700
F12.082830840628157
ssF0.01
(dp87
I900
F9.88773839328803
sI1300
F8.946384363215335
sI300
F11.520551929887112
sI1100
F9.31447669662734
sI500
F11.175339241902114
sI100
F13.397556915763575
sI700
F10.582066303028594
sssssF0.1
(dp88
I2
(dp89
I2
(dp90
I0
(dp91
I900
F19.835011958912883
sI1300
F14.862651875596734
sI300
F20.58383801447249
sI1100
F16.8623086761234
sI500
F22.06833051874129
sI100
F27.13113125924175
sI700
F22.48917645975848
ssI1
(dp92
I900
F23.597606198638136
sI1300
F20.886326945332133
sI300
F23.875642200502817
sI1100
F22.125690921249202
sI500
F24.211553704494474
sI100
F28.370176281841818
sI700
F24.60102515308303
ssF0.001
(dp93
I900
F22.26646698824128
sI1300
F18.73708874191785
sI300
F21.419656350417807
sI1100
F20.181130757896252
sI500
F21.976956717951552
sI100
F28.050223740105917
sI700
F23.662121144992668
ssF0.1
(dp94
I900
F22.883237747997132
sI1300
F19.33203247365813
sI300
F23.813891191842234
sI1100
F21.021061287412056
sI500
F24.000488925600493
sI100
F28.366923191585258
sI700
F24.178658005397907
ssF0.01
(dp95
I900
F21.47560499081529
sI1300
F18.319262955276603
sI300
F23.241225774633076
sI1100
F19.713516125765047
sI500
F22.567491615756555
sI100
F28.334483838566864
sI700
F22.58264299009005
ssssI3
(dp96
I3
(dp97
I0
(dp98
I900
F14.05105645974852
sI1300
F11.930166480223612
sI300
F22.54948760221518
sI1100
F12.686055379686989
sI500
F22.18477719856425
sI100
F23.943875006771016
sI700
F17.142369062079272
ssI1
(dp99
I900
F20.30424902517113
sI1300
F18.668910838042567
sI300
F24.319632461469933
sI1100
F19.250888944029573
sI500
F24.620568789714888
sI100
F26.047564965350748
sI700
F22.22833973440505
ssF0.001
(dp100
I900
F18.17894732684136
sI1300
F16.679379411236262
sI300
F22.168454575765573
sI1100
F17.221059905648985
sI500
F23.776674639320657
sI100
F25.4497500515634
sI700
F20.442973469271113
ssF0.1
(dp101
I900
F19.286403429947097
sI1300
F16.673149863197658
sI300
F24.223157278872247
sI1100
F17.746473595686236
sI500
F24.3460790617403
sI100
F26.041354313828162
sI700
F21.63922362271407
ssF0.01
(dp102
I900
F17.391977294034863
sI1300
F16.4574001914079
sI300
F23.400959279582633
sI1100
F16.56556599777086
sI500
F22.923826273163474
sI100
F25.979549195135245
sI700
F19.737467562455592
ssssI4
(dp103
I4
(dp104
I0
(dp105
I900
F12.504860759159317
sI1300
F10.713674760828372
sI300
F23.239575412226237
sI1100
F11.687428802293642
sI500
F18.19133981249963
sI100
F22.864971884640926
sI700
F13.984544043742563
ssI1
(dp106
I900
F18.96127216194997
sI1300
F18.069139545211893
sI300
F24.64719881760713
sI1100
F18.402639534091985
sI500
F22.68266873083671
sI100
F25.335150897660945
sI700
F20.14065984740297
ssF0.001
(dp107
I900
F17.015738809509138
sI1300
F16.00985903336157
sI300
F23.082974942381046
sI1100
F16.49645114640245
sI500
F21.06106069458169
sI100
F24.71919867358776
sI700
F17.997882088073865
ssF0.1
(dp108
I900
F17.91447328385998
sI1300
F16.152628229979687
sI300
F24.555047488719076
sI1100
F16.926108429156965
sI500
F22.390736197595885
sI100
F25.32890655239339
sI700
F19.50800221052619
ssF0.01
(dp109
I900
F15.956182646229479
sI1300
F16.146814504072363
sI300
F23.783595111637965
sI1100
F16.002891897686165
sI500
F20.696082237729026
sI100
F25.26675510514637
sI700
F17.078959817819797
ssssI5
(dp110
I5
(dp111
I0
(dp112
I900
F11.70601373444431
sI1300
F9.100274960131673
sI300
F23.146246530152933
sI1100
F10.473892829430346
sI500
F15.767001742676598
sI100
F21.488081120535107
sI700
F12.86651623628573
ssI1
(dp113
I900
F18.393162087552966
sI1300
F17.616889123060773
sI300
F24.92165560988616
sI1100
F17.95106944819026
sI500
F21.269420492585148
sI100
F24.25131958193331
sI700
F19.19458319542385
ssF0.001
(dp114
I900
F16.604517989904345
sI1300
F15.325053579465507
sI300
F23.992342713784705
sI1100
F16.02208547125938
sI500
F19.33617525801321
sI100
F23.400873622429717
sI700
F17.29146026102794
ssF0.1
(dp115
I900
F17.258162635051647
sI1300
F15.584142518898258
sI300
F24.8176906517096
sI1100
F16.37114470148184
sI500
F20.923541737312448
sI100
F24.24235292047558
sI700
F18.48347259137436
ssF0.01
(dp116
I900
F15.691849900691814
sI1300
F15.779839069431944
sI300
F24.006792211750103
sI1100
F15.868883438897912
sI500
F18.97327934736037
sI100
F24.153397639455015
sI700
F16.07277943261492
sssss.