(dp0
F0.5
(dp1
I2
(dp2
I2
(dp3
I0
(dp4
I900
F8.349070231492156
sI1300
F8.340628735236491
sI300
F8.382723887970116
sI1100
F8.344121089164013
sI500
F8.366600881599027
sI100
F8.4411800396674
sI700
F8.356108244193488
ssI1
(dp5
I900
F13.148405653733706
sI1300
F12.917703553021761
sI300
F13.440763164491727
sI1100
F13.04896675369072
sI500
F13.308969189668547
sI100
F14.184465691859765
sI700
F13.230028796604108
ssF0.001
(dp6
I900
F8.34249842053399
sI1300
F8.333863868370901
sI300
F8.380286737023958
sI1100
F8.337573895245862
sI500
F8.36307643863219
sI100
F8.437870566296324
sI700
F8.351178928037866
ssF0.1
(dp7
I900
F8.229859805261924
sI1300
F8.198603769439657
sI300
F9.73209924729464
sI1100
F8.206381092441616
sI500
F8.61653916370754
sI100
F11.375231731581533
sI700
F8.302037709929525
ssF0.01
(dp8
I900
F8.285888624866082
sI1300
F8.273772044438847
sI300
F8.430610183263648
sI1100
F8.277176436983956
sI500
F8.351350601782555
sI100
F8.614537997170416
sI700
F8.308319635082537
ssssI3
(dp9
I3
(dp10
I0
(dp11
I900
F6.6466205408517975
sI1300
F6.647350577148653
sI300
F7.237950658334818
sI1100
F6.624471997530575
sI500
F7.088966634447496
sI100
F7.25234127103627
sI700
F6.7994204882421005
ssI1
(dp12
I900
F12.896162815164352
sI1300
F11.39010913045399
sI300
F13.346468044441389
sI1100
F12.227206572215092
sI500
F13.386774934359511
sI100
F13.270222750677132
sI700
F13.295224569029125
ssF0.001
(dp13
I900
F6.812414676008261
sI1300
F6.85161118501942
sI300
F6.76081072754697
sI1100
F6.83476104924832
sI500
F6.763929245076764
sI100
F7.222457815008976
sI700
F6.7823568903461435
ssF0.1
(dp14
I900
F7.522922313627584
sI1300
F7.164242290005341
sI300
F8.915964669059848
sI1100
F7.3608672933239445
sI500
F8.165480607591645
sI100
F10.946996804683046
sI700
F7.729962564919625
ssF0.01
(dp15
I900
F6.769318645345533
sI1300
F6.629911348070766
sI300
F8.077367032666588
sI1100
F6.656259316658532
sI500
F7.635647220727405
sI100
F8.404718488717222
sI700
F7.146487575202577
ssssI4
(dp16
I4
(dp17
I0
(dp18
I900
F6.6499537697614866
sI1300
F6.6277466761595045
sI300
F7.3936514539062035
sI1100
F6.6357387907976175
sI500
F6.834191563869904
sI100
F8.0920818053312
sI700
F6.6864504702036855
ssI1
(dp19
I900
F11.186581734784076
sI1300
F8.437161537323599
sI300
F12.417657534671193
sI1100
F10.321432135862858
sI500
F11.858720885146512
sI100
F13.36641995015507
sI700
F11.566884025288125
ssF0.001
(dp20
I900
F6.657485837381665
sI1300
F6.613905142673016
sI300
F6.789648166659017
sI1100
F6.630251805900471
sI500
F6.726496293982939
sI100
F7.8232801751860075
sI700
F6.696226671699943
ssF0.1
(dp21
I900
F6.730700729383236
sI1300
F6.76332270862803
sI300
F7.252737576662254
sI1100
F6.725976042506192
sI500
F6.852226197659409
sI100
F10.993491859540796
sI700
F6.756022365644411
ssF0.01
(dp22
I900
F6.905377749037613
sI1300
F6.846672454113683
sI300
F7.018923173483593
sI1100
F6.875416561249032
sI500
F6.9590600706827255
sI100
F8.217773947884245
sI700
F6.933575419223821
ssssI5
(dp23
I5
(dp24
I0
(dp25
I900
F5.907557930344433
sI1300
F5.884858422622432
sI300
F5.011034050664642
sI1100
F5.900868941910577
sI500
F5.835569450240595
sI100
F5.476506324703034
sI700
F5.908726311139943
ssI1
(dp26
I900
F10.825606050334258
sI1300
F8.759683486099226
sI300
F11.728117401749575
sI1100
F10.162872805962987
sI500
F11.591782924477135
sI100
F12.42141758035605
sI700
F11.213024423553088
ssF0.001
(dp27
I900
F5.914845730753671
sI1300
F5.872108394660652
sI300
F6.151175844257863
sI1100
F5.884872843136921
sI500
F6.010741803075995
sI100
F6.270008848388915
sI700
F5.96654727003573
ssF0.1
(dp28
I900
F6.078140584062394
sI1300
F6.061761195772471
sI300
F6.493426644172418
sI1100
F6.095346336771811
sI500
F6.343646129579055
sI100
F9.625058381388186
sI700
F6.283069205788408
ssF0.01
(dp29
I900
F6.00609721063687
sI1300
F5.940640077106353
sI300
F5.684022686684796
sI1100
F5.977274297135139
sI500
F5.891631550569582
sI100
F6.424630650190483
sI700
F5.933583372168823
sssssI1
(dp30
I2
(dp31
I2
(dp32
I0
(dp33
I900
F8.33470838318798
sI1300
F8.331896964222764
sI300
F8.368951878920685
sI1100
F8.333040044641104
sI500
F8.346997062789226
sI100
F8.484492615798153
sI700
F8.338464479828467
ssI1
(dp34
I900
F9.175657951921607
sI1300
F8.419415283205536
sI300
F13.136883668165872
sI1100
F8.59056425903787
sI500
F12.3437802404968
sI100
F13.572626640807284
sI700
F10.77547438231967
ssF0.001
(dp35
I900
F8.441935731090968
sI1300
F8.325856522098812
sI300
F8.368736486327036
sI1100
F8.327316908385072
sI500
F8.344329725554081
sI100
F8.483488411231887
sI700
F8.334421816958935
ssF0.1
(dp36
I900
F8.189222474471363
sI1300
F8.18948525664814
sI300
F8.458623243580654
sI1100
F8.193995491499132
sI500
F8.237177727106355
sI100
F10.13433614724747
sI700
F8.19442887359226
ssF0.01
(dp37
I900
F8.301201907497052
sI1300
F8.303160267059907
sI300
F8.399638487746866
sI1100
F8.301547366910913
sI500
F8.316520772170938
sI100
F8.636123305334712
sI700
F8.302952424362138
ssssI3
(dp38
I3
(dp39
I0
(dp40
I900
F6.891914658377829
sI1300
F6.872796470303641
sI300
F7.8684964117481995
sI1100
F6.880683321760293
sI500
F6.993966679283569
sI100
F8.296807702347927
sI700
F6.930538605714711
ssI1
(dp41
I900
F8.436201535819507
sI1300
F7.506850004807385
sI300
F12.96907228727824
sI1100
F7.814838197147671
sI500
F11.530089757311417
sI100
F13.490289425032872
sI700
F9.882894729548697
ssF0.001
(dp42
I900
F6.899232698777105
sI1300
F6.891796779224917
sI300
F6.97370306975165
sI1100
F6.892043495413253
sI500
F6.927025520531427
sI100
F7.66324698694756
sI700
F6.907146096624761
ssF0.1
(dp43
I900
F6.977166520796317
sI1300
F6.833682622003313
sI300
F8.082161343374553
sI1100
F6.883379173871344
sI500
F7.27276616070872
sI100
F10.547468704576524
sI700
F7.050270903837022
ssF0.01
(dp44
I900
F6.694906415764698
sI1300
F6.657261428578493
sI300
F8.153070354192705
sI1100
F6.6409524213962134
sI500
F7.528732814183249
sI100
F8.648833811256187
sI700
F6.91437934296878
ssssI4
(dp45
I4
(dp46
I0
(dp47
I900
F6.602844241322775
sI1300
F6.593614396165084
sI300
F7.007976616021811
sI1100
F6.601629201654624
sI500
F6.76276258405683
sI100
F8.279558506166346
sI700
F6.658963044377012
ssI1
(dp48
I900
F7.746628236814154
sI1300
F6.854083879797128
sI300
F11.660274732441403
sI1100
F7.128683535816591
sI500
F10.507646376663518
sI100
F13.12767997141488
sI700
F8.636192892786504
ssF0.001
(dp49
I900
F6.626661815202578
sI1300
F6.597258332930394
sI300
F6.822198389834223
sI1100
F6.606897620682486
sI500
F6.731353942351554
sI100
F7.477583989699156
sI700
F6.667602537152104
ssF0.1
(dp50
I900
F6.935167579615656
sI1300
F6.940309381002394
sI300
F7.385744518471456
sI1100
F6.916446346064855
sI500
F7.059956414762405
sI100
F10.066691074413052
sI700
F6.979576216584425
ssF0.01
(dp51
I900
F6.8626561679053735
sI1300
F6.804404527240677
sI300
F7.061827320723326
sI1100
F6.855828429973675
sI500
F6.956526596293377
sI100
F8.119156784578909
sI700
F6.927161578363596
ssssI5
(dp52
I5
(dp53
I0
(dp54
I900
F5.876328107468762
sI1300
F5.846619095268377
sI300
F6.114173083303956
sI1100
F5.858869350616466
sI500
F5.912355525411656
sI100
F5.99104912000969
sI700
F5.892593079565187
ssI1
(dp55
I900
F7.947239999330056
sI1300
F6.926895274636619
sI300
F11.377759688152542
sI1100
F7.16177508230043
sI500
F10.359239461990388
sI100
F12.23756180405131
sI700
F9.088210593709597
ssF0.001
(dp56
I900
F6.096956197989597
sI1300
F5.974818792707972
sI300
F6.215658371389405
sI1100
F6.015034106532351
sI500
F6.1183982308373155
sI100
F6.5205228894939715
sI700
F6.130653600321763
ssF0.1
(dp57
I900
F6.359364912644173
sI1300
F6.070659149864678
sI300
F6.7493028018085175
sI1100
F6.069600165681106
sI500
F6.464197685255738
sI100
F9.172452171990948
sI700
F6.2434538706925125
ssF0.01
(dp58
I900
F5.99727704307756
sI1300
F6.017303892231609
sI300
F5.734467902165602
sI1100
F6.021907831520095
sI500
F5.920107522273413
sI100
F6.830345587794291
sI700
F5.959484674761151
sssssI2
(dp59
I2
(dp60
I2
(dp61
I0
(dp62
I900
F8.333356663729209
sI1300
F8.331458605735985
sI300
F8.358944974699194
sI1100
F8.332122253000195
sI500
F8.34219459445722
sI100
F8.600679592094542
sI700
F8.336077031827077
ssI1
(dp63
I900
F10.086667543608442
sI1300
F9.414298377245505
sI300
F13.237828562505308
sI1100
F9.61414251623816
sI500
F12.40320769060884
sI100
F13.615660158141331
sI700
F10.991042636280195
ssF0.001
(dp64
I900
F8.339297443862666
sI1300
F8.325659823799754
sI300
F8.386914589380256
sI1100
F8.327204975870199
sI500
F8.351503915986267
sI100
F8.649718677553102
sI700
F8.335634650967426
ssF0.1
(dp65
I900
F8.818716440982326
sI1300
F8.728473740183098
sI300
F9.216545247834963
sI1100
F8.776657131363216
sI500
F9.001167557166841
sI100
F10.723871918004395
sI700
F8.91830957713025
ssF0.01
(dp66
I900
F8.481658634127283
sI1300
F8.466152217309713
sI300
F8.612896148785238
sI1100
F8.472696724384077
sI500
F8.524341821704715
sI100
F9.268302580872383
sI700
F8.495693804207397
ssssI3
(dp67
I3
(dp68
I0
(dp69
I900
F6.779936657869273
sI1300
F6.827752758928543
sI300
F6.630784646830566
sI1100
F6.809171339082767
sI500
F6.642274463815557
sI100
F8.103893651208432
sI700
F6.7275316897531425
ssI1
(dp70
I900
F9.777841645020507
sI1300
F8.432275741269036
sI300
F12.921799091898155
sI1100
F9.291810665836964
sI500
F11.7143533502159
sI100
F13.597965451492483
sI700
F10.684143805709956
ssF0.001
(dp71
I900
F6.968375763169726
sI1300
F6.935748578871489
sI300
F7.496135832688281
sI1100
F6.9440582510227475
sI500
F7.095228649646972
sI100
F8.515411855284285
sI700
F7.002410213220877
ssF0.1
(dp72
I900
F6.809510390511172
sI1300
F6.773254359176841
sI300
F7.909936544810226
sI1100
F6.808803216209393
sI500
F7.084703660505648
sI100
F10.343861412662026
sI700
F6.860225041678426
ssF0.01
(dp73
I900
F7.188994854679017
sI1300
F7.037924546048676
sI300
F8.249733317506552
sI1100
F7.086625474836112
sI500
F7.83500305137478
sI100
F8.54103903013573
sI700
F7.4776325595574535
ssssI4
(dp74
I4
(dp75
I0
(dp76
I900
F6.5919251076742755
sI1300
F6.5822031824882385
sI300
F6.795337483434959
sI1100
F6.586569501198693
sI500
F6.700446283929373
sI100
F7.622370649816362
sI700
F6.617283461351103
ssI1
(dp77
I900
F8.855756754724307
sI1300
F7.565840684342442
sI300
F11.697336717596858
sI1100
F7.9479692753358915
sI500
F10.977251065099944
sI100
F12.606057933143811
sI700
F9.954673135773634
ssF0.001
(dp78
I900
F6.618214246269938
sI1300
F6.60135130587346
sI300
F6.748817939851733
sI1100
F6.60637057023204
sI500
F6.682082571243239
sI100
F7.212916892786657
sI700
F6.638827502718851
ssF0.1
(dp79
I900
F6.698304406496708
sI1300
F6.667574170972353
sI300
F7.1426501801540265
sI1100
F6.774643453862514
sI500
F6.797653687767959
sI100
F8.873288383311708
sI700
F6.703530692015017
ssF0.01
(dp80
I900
F6.817161729324503
sI1300
F6.758854038448042
sI300
F6.83657108213341
sI1100
F6.786320955469066
sI500
F6.857810014763455
sI100
F7.460110124900801
sI700
F6.844016377730599
ssssI5
(dp81
I5
(dp82
I0
(dp83
I900
F5.843268209039481
sI1300
F5.65037927954718
sI300
F6.221115632859388
sI1100
F5.710230513279292
sI500
F6.054271867774517
sI100
F6.176271624764038
sI700
F5.965466685454021
ssI1
(dp84
I900
F9.644888732781016
sI1300
F8.612395173465984
sI300
F11.424741341750035
sI1100
F9.100180725726036
sI500
F10.948767201028524
sI100
F12.332577456292878
sI700
F10.412421725187372
ssF0.001
(dp85
I900
F5.895444124177436
sI1300
F5.903484213119479
sI300
F6.12255916327352
sI1100
F5.94742524420695
sI500
F5.957604642979
sI100
F6.730976343009215
sI700
F5.895525192155607
ssF0.1
(dp86
I900
F6.49160520690765
sI1300
F7.269942280072283
sI300
F6.96712265527657
sI1100
F6.450289876394275
sI500
F6.640042800689519
sI100
F9.09077881747418
sI700
F6.883755496215345
ssF0.01
(dp87
I900
F6.175423315845591
sI1300
F6.28669764613529
sI300
F6.499618404242393
sI1100
F6.129971525439635
sI500
F6.327057425114285
sI100
F7.508731809567722
sI700
F6.242019415843402
sssssF0.1
(dp88
I2
(dp89
I2
(dp90
I0
(dp91
I900
F11.386085096720967
sI1300
F8.836711145215412
sI300
F20.776005045382448
sI1100
F9.399243609576951
sI500
F16.05485487164921
sI100
F15.994311097551044
sI700
F14.073541410731762
ssI1
(dp92
I900
F16.51174224873659
sI1300
F14.753617192788399
sI300
F21.538846173027647
sI1100
F15.453783249623088
sI500
F18.04971895418379
sI100
F16.500481150975094
sI700
F17.448581869641114
ssF0.001
(dp93
I900
F11.58945310335689
sI1300
F8.854297694566597
sI300
F20.98577402587125
sI1100
F9.443806384624914
sI500
F16.144684913813517
sI100
F15.822289727086435
sI700
F14.238989724472914
ssF0.1
(dp94
I900
F15.367099852872323
sI1300
F12.409326682280875
sI300
F22.452027377404804
sI1100
F13.678831738688107
sI500
F18.931204949453704
sI100
F15.962617964117078
sI700
F17.250899936021167
ssF0.01
(dp95
I900
F12.119435509747285
sI1300
F9.017996671681345
sI300
F22.068979153555023
sI1100
F9.686993792858198
sI500
F16.97249315554779
sI100
F15.754857399144507
sI700
F14.738933045510013
ssssI3
(dp96
I3
(dp97
I0
(dp98
I900
F9.006780773440704
sI1300
F7.799276224889626
sI300
F17.99627002645226
sI1100
F8.23288045711606
sI500
F14.167331424015345
sI100
F18.35555390646868
sI700
F11.958746793943952
ssI1
(dp99
I900
F17.352665334638562
sI1300
F15.454128219671462
sI300
F19.706123263664963
sI1100
F17.11457003682649
sI500
F17.14932933381398
sI100
F18.201657086132517
sI700
F17.201888235290824
ssF0.001
(dp100
I900
F8.626764803242255
sI1300
F7.45854078834715
sI300
F18.146943750108772
sI1100
F7.835061828428709
sI500
F14.370959807808227
sI100
F18.392060532972994
sI700
F11.176562160670006
ssF0.1
(dp101
I900
F15.864605497241469
sI1300
F12.56145313953855
sI300
F20.704793295011797
sI1100
F13.807437636817278
sI500
F17.38420403342418
sI100
F17.936236926909995
sI700
F16.67634371332693
ssF0.01
(dp102
I900
F9.84275724465127
sI1300
F8.616286097108375
sI300
F19.217223195343497
sI1100
F9.068915757525616
sI500
F15.007928787410641
sI100
F18.364022947248134
sI700
F13.333264198177643
ssssI4
(dp103
I4
(dp104
I0
(dp105
I900
F7.611746162894503
sI1300
F6.775094170020372
sI300
F15.8212214617631
sI1100
F7.181917603935321
sI500
F10.765767689847191
sI100
F20.22697632396425
sI700
F8.43049387893231
ssI1
(dp106
I900
F14.270270168387677
sI1300
F13.249154082649579
sI300
F17.842672386077027
sI1100
F13.679542999175478
sI500
F15.951435184749476
sI100
F19.78074115757841
sI700
F14.914467358510908
ssF0.001
(dp107
I900
F7.799087676561195
sI1300
F7.207485911284755
sI300
F16.010831410478094
sI1100
F7.41894876580317
sI500
F10.89852481334848
sI100
F20.280301527102626
sI700
F8.577687140936778
ssF0.1
(dp108
I900
F12.413373287223544
sI1300
F10.640585411546246
sI300
F18.91722205265934
sI1100
F11.359547421607479
sI500
F15.715139339114591
sI100
F19.658672131961957
sI700
F13.552929052021762
ssF0.01
(dp109
I900
F8.515692790827583
sI1300
F7.690090159551516
sI300
F17.19609542933944
sI1100
F8.026080263983156
sI500
F12.189853683325856
sI100
F20.32053330842334
sI700
F9.506164358554157
ssssI5
(dp110
I5
(dp111
I0
(dp112
I900
F6.233701962381327
sI1300
F5.594920433103847
sI300
F14.083790513791303
sI1100
F5.8033610803789974
sI500
F8.73607608187672
sI100
F20.461821236066037
sI700
F7.047805487953045
ssI1
(dp113
I900
F13.025025968624922
sI1300
F12.239164025878335
sI300
F16.506162361977516
sI1100
F12.520560673033584
sI500
F14.836817560216684
sI100
F20.18604257213517
sI700
F13.928053894048459
ssF0.001
(dp114
I900
F6.4892973385786465
sI1300
F5.909988975184192
sI300
F14.336261440317408
sI1100
F6.080388801616403
sI500
F9.098281598559481
sI100
F20.565434256302346
sI700
F7.239130815170934
ssF0.1
(dp115
I900
F10.676365655222146
sI1300
F9.674429807351654
sI300
F17.559264973021865
sI1100
F10.051182309178834
sI500
F14.093207888561817
sI100
F20.040149117068655
sI700
F11.94535731241955
ssF0.01
(dp116
I900
F7.199297827948475
sI1300
F6.575659869838836
sI300
F15.313746724082769
sI1100
F6.814764636253359
sI500
F9.885941970194363
sI100
F20.613808552553706
sI700
F7.904939113203094
sssss.