(dp0
F0.5
(dp1
I2
(dp2
I2
(dp3
I0
(dp4
I900
F8.73642868066245
sI1300
F8.74922582252078
sI300
F8.67706022572299
sI1100
F8.744214960378462
sI500
F8.705746672695279
sI100
F8.628827902908382
sI700
F8.72435130116246
ssI1
(dp5
I900
F13.399504241391696
sI1300
F13.389814161676426
sI300
F13.404181041505849
sI1100
F13.395693902967372
sI500
F13.397125671952844
sI100
F13.74266847877396
sI700
F13.398514964305845
ssF0.001
(dp6
I900
F8.744135518624526
sI1300
F8.759965240254102
sI300
F8.677037719967698
sI1100
F8.755993499247934
sI500
F8.712677752315214
sI100
F8.617132170414909
sI700
F8.734423332739006
ssF0.1
(dp7
I900
F8.749446410852153
sI1300
F8.554914907071486
sI300
F11.159886630753906
sI1100
F8.588937259994475
sI500
F10.199459048105512
sI100
F11.788768741872248
sI700
F9.23619732248089
ssF0.01
(dp8
I900
F8.701964136625147
sI1300
F8.689078586980333
sI300
F8.78478283744092
sI1100
F8.694495432995396
sI500
F8.738268464781669
sI100
F8.845905240633945
sI700
F8.711997758147689
ssssI3
(dp9
I3
(dp10
I0
(dp11
I900
F7.142037449734584
sI1300
F7.016560059524356
sI300
F7.930126096823586
sI1100
F7.055340613767247
sI500
F7.585181994903284
sI100
F8.528672388624459
sI700
F7.306680838451536
ssI1
(dp12
I900
F13.425925104425502
sI1300
F13.227950323845457
sI300
F13.013483064184163
sI1100
F13.362087164546928
sI500
F13.359493820057786
sI100
F12.700490610375411
sI700
F13.439232196644125
ssF0.001
(dp13
I900
F7.05231296142427
sI1300
F7.047632979531308
sI300
F7.116847657105678
sI1100
F7.050139886070738
sI500
F7.059013073181201
sI100
F8.565098488467713
sI700
F7.053916132867579
ssF0.1
(dp14
I900
F8.609101311789873
sI1300
F8.589961634415815
sI300
F10.196557911917582
sI1100
F8.592864312600614
sI500
F8.855275287165867
sI100
F11.06489108452139
sI700
F8.589307787626165
ssF0.01
(dp15
I900
F8.559344786061454
sI1300
F8.564589409092983
sI300
F8.588721761507022
sI1100
F8.548096809033161
sI500
F8.585386023168667
sI100
F8.49995746690792
sI700
F8.578765887644204
ssssI4
(dp16
I4
(dp17
I0
(dp18
I900
F6.591918779918835
sI1300
F6.6392582811284235
sI300
F6.9970449622444955
sI1100
F6.607078399175863
sI500
F6.747658638898597
sI100
F7.6628946950405625
sI700
F6.647552254635347
ssI1
(dp19
I900
F12.197048577976076
sI1300
F12.070285334064158
sI300
F12.67851144002821
sI1100
F12.131400357160382
sI500
F12.419592968142673
sI100
F12.284115524913611
sI700
F12.251021840093731
ssF0.001
(dp20
I900
F6.718257673742921
sI1300
F6.697586230398756
sI300
F7.130017533604037
sI1100
F6.715518095094563
sI500
F6.8519472920200135
sI100
F7.474433134237926
sI700
F6.766644115873443
ssF0.1
(dp21
I900
F7.036380701452485
sI1300
F7.040217522477712
sI300
F9.002119093901655
sI1100
F7.027919222764152
sI500
F7.248457188349237
sI100
F10.62997538230491
sI700
F7.06493500312905
ssF0.01
(dp22
I900
F6.969603069042169
sI1300
F6.952189069064067
sI300
F7.371907069822363
sI1100
F6.961809739342603
sI500
F7.0437825745026785
sI100
F7.949392335692676
sI700
F6.990463906456335
ssssI5
(dp23
I5
(dp24
I0
(dp25
I900
F6.742924023146213
sI1300
F6.563422736942146
sI300
F6.788830036174893
sI1100
F6.666237171406798
sI500
F6.813550246073219
sI100
F6.6674947598780125
sI700
F6.7857151601300725
ssI1
(dp26
I900
F11.195171788251967
sI1300
F10.096929752287169
sI300
F11.877326101355973
sI1100
F10.856468777682318
sI500
F11.625666420645512
sI100
F12.03387114760867
sI700
F11.41850896575158
ssF0.001
(dp27
I900
F6.485153458253379
sI1300
F6.406890125049321
sI300
F6.669445730331181
sI1100
F6.426037836246443
sI500
F6.624353369159549
sI100
F6.124172593192804
sI700
F6.573460886497074
ssF0.1
(dp28
I900
F6.531276064609736
sI1300
F6.477212364501469
sI300
F8.331177932400703
sI1100
F6.468130111423205
sI500
F7.193183543078878
sI100
F10.744046620044902
sI700
F6.693147858860067
ssF0.01
(dp29
I900
F6.9630990426940995
sI1300
F6.642849417680161
sI300
F6.945231802082028
sI1100
F6.739910602558808
sI500
F6.990177379171344
sI100
F7.214411289949659
sI700
F7.037532224626003
sssssI1
(dp30
I2
(dp31
I2
(dp32
I0
(dp33
I900
F8.757892761140761
sI1300
F8.758257670990131
sI300
F8.743645873022922
sI1100
F8.75817309142202
sI500
F8.75388091392425
sI100
F8.715823962311758
sI700
F8.75696345679382
ssI1
(dp34
I900
F12.20238127484658
sI1300
F10.29911559575996
sI300
F13.277270809894388
sI1100
F11.185465751294132
sI500
F13.202409213968203
sI100
F13.331184641725361
sI700
F12.863895458667548
ssF0.001
(dp35
I900
F8.738040936799461
sI1300
F8.730901567165153
sI300
F8.761872970093354
sI1100
F8.759874844063166
sI500
F8.769447007859325
sI100
F8.721175601536698
sI700
F8.767023692845463
ssF0.1
(dp36
I900
F8.97745269518009
sI1300
F8.96300037585238
sI300
F9.182587535552386
sI1100
F8.97514306630776
sI500
F8.986399828880813
sI100
F11.145110205535989
sI700
F8.9729988499647
ssF0.01
(dp37
I900
F8.806530210632427
sI1300
F8.821539792159177
sI300
F8.805451191897587
sI1100
F8.884827052671248
sI500
F8.795227018477863
sI100
F8.869689606283792
sI700
F8.897595908969842
ssssI3
(dp38
I3
(dp39
I0
(dp40
I900
F8.518336287801294
sI1300
F8.53062894274937
sI300
F8.483827246753036
sI1100
F8.525532504018711
sI500
F8.495394696766688
sI100
F8.455935389796569
sI700
F8.508315936195341
ssI1
(dp41
I900
F11.142527501728164
sI1300
F9.060695595154854
sI300
F12.988981920695455
sI1100
F10.05633115081802
sI500
F12.653786484607645
sI100
F13.48728696336441
sI700
F12.078260520848636
ssF0.001
(dp42
I900
F8.088875162681719
sI1300
F7.2106117903461415
sI300
F8.48324368288794
sI1100
F7.639077216931591
sI500
F8.335471982488698
sI100
F8.61026829065524
sI700
F8.246482248795786
ssF0.1
(dp43
I900
F8.620984756527282
sI1300
F8.707088340568353
sI300
F8.747978367493202
sI1100
F8.638067434357557
sI500
F8.652275771215699
sI100
F10.81737163659836
sI700
F8.653706267431007
ssF0.01
(dp44
I900
F8.43624386660729
sI1300
F8.472510597766938
sI300
F8.383637767093973
sI1100
F8.455633850778375
sI500
F8.394431027347487
sI100
F8.781913808957858
sI700
F8.416026845489668
ssssI4
(dp45
I4
(dp46
I0
(dp47
I900
F6.731392935631775
sI1300
F6.683394357550299
sI300
F7.288623107720992
sI1100
F6.710501545331603
sI500
F6.986766257739952
sI100
F7.818798302909805
sI700
F6.820884158643211
ssI1
(dp48
I900
F10.372645376728121
sI1300
F8.426136159193078
sI300
F12.450138946171187
sI1100
F9.264660767626282
sI500
F11.806701202619278
sI100
F12.515358244729844
sI700
F11.22330956094372
ssF0.001
(dp49
I900
F6.95943817133408
sI1300
F6.792074262892
sI300
F7.3352071224491935
sI1100
F6.885267344753085
sI500
F7.174670130115849
sI100
F7.870430147038765
sI700
F7.079290941504203
ssF0.1
(dp50
I900
F7.34158161920569
sI1300
F7.265078519102648
sI300
F7.934827985041677
sI1100
F7.299298361512498
sI500
F7.550517688096096
sI100
F10.126934277436568
sI700
F7.4223411281341525
ssF0.01
(dp51
I900
F7.693816526077247
sI1300
F7.131715207099579
sI300
F8.462989049683927
sI1100
F7.357606141631575
sI500
F8.309921698607909
sI100
F8.553847325046375
sI700
F8.07699068594741
ssssI5
(dp52
I5
(dp53
I0
(dp54
I900
F6.475715733990398
sI1300
F6.40209263779859
sI300
F6.863028087537009
sI1100
F6.416721946057439
sI500
F6.723897199577207
sI100
F7.437988783762286
sI700
F6.622231027029284
ssI1
(dp55
I900
F8.27791667277269
sI1300
F7.172623509234051
sI300
F11.633398815591885
sI1100
F7.552413595944449
sI500
F10.79211743424455
sI100
F12.06829783498753
sI700
F9.631640683894886
ssF0.001
(dp56
I900
F6.430950740101916
sI1300
F6.42295448183746
sI300
F6.714365216054351
sI1100
F6.423185550422796
sI500
F6.681657781696572
sI100
F6.756546846955061
sI700
F6.517857867957555
ssF0.1
(dp57
I900
F7.252947856098769
sI1300
F7.1831580180006025
sI300
F7.4086710080782305
sI1100
F7.210548495759195
sI500
F7.316725215268834
sI100
F9.208261473999848
sI700
F7.278286965188213
ssF0.01
(dp58
I900
F6.683712329958918
sI1300
F6.5085480867242245
sI300
F6.916883552185328
sI1100
F6.576281854762319
sI500
F6.889398241172879
sI100
F7.054116990898015
sI700
F6.811875118058415
sssssI2
(dp59
I2
(dp60
I2
(dp61
I0
(dp62
I900
F8.758264004300045
sI1300
F8.758292578655626
sI300
F8.755619051146152
sI1100
F8.758287178755797
sI500
F8.757732669635475
sI100
F8.75335341337655
sI700
F8.758164473646964
ssI1
(dp63
I900
F11.601196349984942
sI1300
F10.3779555636168
sI300
F13.328557069270474
sI1100
F10.864321181581516
sI500
F13.071275198320203
sI100
F13.399280303456722
sI700
F12.429903993580744
ssF0.001
(dp64
I900
F8.764236632704867
sI1300
F8.958530813328801
sI300
F8.782966355497209
sI1100
F8.7615836633874
sI500
F8.773104702279172
sI100
F8.794870339549492
sI700
F8.786789079909532
ssF0.1
(dp65
I900
F9.30576027118404
sI1300
F9.327866056905973
sI300
F9.618243725057226
sI1100
F9.23965149130335
sI500
F9.354513539254999
sI100
F11.204640220378826
sI700
F9.395922260472146
ssF0.01
(dp66
I900
F8.967959951510082
sI1300
F8.951067042275993
sI300
F9.051467994585721
sI1100
F8.958647985556174
sI500
F9.004485122310992
sI100
F9.01368726911315
sI700
F8.981192824802879
ssssI3
(dp67
I3
(dp68
I0
(dp69
I900
F8.788627367090983
sI1300
F8.57099843305614
sI300
F8.757803471548808
sI1100
F8.621057547996974
sI500
F8.937186865457909
sI100
F8.488692142056674
sI700
F8.91112337699404
ssI1
(dp70
I900
F10.298403072071805
sI1300
F8.957142878610703
sI300
F12.701771978508267
sI1100
F9.454221778190226
sI500
F12.230578245742672
sI100
F12.460759581158007
sI700
F11.416814889973844
ssF0.001
(dp71
I900
F7.054717247313201
sI1300
F7.059234627694231
sI300
F7.107318566434003
sI1100
F7.055787692171667
sI500
F7.123693706431914
sI100
F7.4443408378627485
sI700
F7.062698283320138
ssF0.1
(dp72
I900
F8.832223863442724
sI1300
F8.93447679447593
sI300
F8.717974274203874
sI1100
F8.786633820034927
sI500
F8.531226978327995
sI100
F10.39763460975452
sI700
F8.779404948224007
ssF0.01
(dp73
I900
F8.402516307224984
sI1300
F8.402968508400129
sI300
F8.354444450145074
sI1100
F8.404328829763687
sI500
F8.381776393866458
sI100
F8.484632613662352
sI700
F8.395724919661614
ssssI4
(dp74
I4
(dp75
I0
(dp76
I900
F6.711350155609228
sI1300
F6.645269165933991
sI300
F6.838193034313999
sI1100
F6.655673631083788
sI500
F6.740300983779085
sI100
F6.9407007557396625
sI700
F6.70105579582863
ssI1
(dp77
I900
F10.689960340816413
sI1300
F9.115845372689035
sI300
F12.23024933341282
sI1100
F10.160996658215414
sI500
F11.77778275484822
sI100
F12.897139746343182
sI700
F11.338594913944446
ssF0.001
(dp78
I900
F7.985971619376438
sI1300
F7.947091010727511
sI300
F8.14986062479321
sI1100
F7.959879012511421
sI500
F8.130335609558063
sI100
F8.52710452797173
sI700
F8.049401506423443
ssF0.1
(dp79
I900
F7.58596999888952
sI1300
F7.537617142017121
sI300
F8.128913102232454
sI1100
F7.625757595876466
sI500
F7.72962470551444
sI100
F10.733196531160663
sI700
F7.652157298217701
ssF0.01
(dp80
I900
F6.975717197520575
sI1300
F6.684437535100802
sI300
F8.02695380211108
sI1100
F6.778731764990989
sI500
F7.722853673799112
sI100
F8.312335646039656
sI700
F7.312823476916744
ssssI5
(dp81
I5
(dp82
I0
(dp83
I900
F6.383403706325422
sI1300
F6.373481050203182
sI300
F6.50612062967499
sI1100
F6.432263797495576
sI500
F6.4095329947377016
sI100
F7.2530595013361125
sI700
F6.3907309289009815
ssI1
(dp84
I900
F10.954312330503548
sI1300
F9.483362430889235
sI300
F12.55244972759444
sI1100
F10.339752658353616
sI500
F11.902477290642102
sI100
F13.485074677457396
sI700
F11.425179612001632
ssF0.001
(dp85
I900
F6.441013668152104
sI1300
F6.448677472467311
sI300
F6.523706943141185
sI1100
F6.445827388331339
sI500
F6.426935995965406
sI100
F7.068214072653117
sI700
F6.4319414822917
ssF0.1
(dp86
I900
F7.603620652142419
sI1300
F7.1021355530620935
sI300
F8.354442645380868
sI1100
F7.176059081382774
sI500
F7.603134180987644
sI100
F11.298419571561096
sI700
F7.786412316218459
ssF0.01
(dp87
I900
F6.578963882411681
sI1300
F6.415581897212095
sI300
F6.758449944606928
sI1100
F6.525645520807822
sI500
F6.681909580173922
sI100
F7.534911129517067
sI700
F6.639647803405648
sssssF0.1
(dp88
I2
(dp89
I2
(dp90
I0
(dp91
I900
F9.441276205481953
sI1300
F8.829732260815337
sI300
F16.331860446199673
sI1100
F9.025244716703645
sI500
F13.453889526716553
sI100
F16.343383221986674
sI700
F10.32836976840275
ssI1
(dp92
I900
F14.973330177768554
sI1300
F14.567149887344428
sI300
F17.90708678454202
sI1100
F14.81514991372022
sI500
F15.542675724776895
sI100
F16.923107173729125
sI700
F14.889294082653842
ssF0.001
(dp93
I900
F9.394116439667249
sI1300
F8.791235015850749
sI300
F16.449440771497173
sI1100
F8.987280360249942
sI500
F13.714894272503171
sI100
F16.212359165872385
sI700
F10.334677330589296
ssF0.1
(dp94
I900
F13.684573457606254
sI1300
F12.336512998025112
sI300
F17.457584265138127
sI1100
F12.896621501890438
sI500
F16.41520627439842
sI100
F16.370277609844333
sI700
F14.59308100095959
ssF0.01
(dp95
I900
F9.931901696663122
sI1300
F9.007664323703343
sI300
F16.99742913849099
sI1100
F9.294966354246117
sI500
F14.823941874327067
sI100
F16.160491432065296
sI700
F11.388377800524049
ssssI3
(dp96
I3
(dp97
I0
(dp98
I900
F9.3799594186117
sI1300
F9.154156477864797
sI300
F14.922060512011432
sI1100
F9.25319383724107
sI500
F10.99810625391776
sI100
F17.447359191825484
sI700
F9.628945479128772
ssI1
(dp99
I900
F14.788053298233072
sI1300
F13.875460785934134
sI300
F16.06832812993008
sI1100
F14.402404547205283
sI500
F15.095046726098673
sI100
F17.70703117584308
sI700
F14.890323688090751
ssF0.001
(dp100
I900
F9.31110150976927
sI1300
F8.9041899224292
sI300
F15.02308812077857
sI1100
F9.108882046248794
sI500
F11.116303797912662
sI100
F17.469667296933352
sI700
F9.598913745417377
ssF0.1
(dp101
I900
F13.45074988261309
sI1300
F12.6025602390682
sI300
F16.407416954064438
sI1100
F12.979808618357943
sI500
F15.566678176155545
sI100
F17.32143021844144
sI700
F14.050969514566141
ssF0.01
(dp102
I900
F9.340180214744706
sI1300
F8.463283057664295
sI300
F15.683782388377653
sI1100
F8.748289988800167
sI500
F13.0955128361175
sI100
F17.5270483096812
sI700
F10.385302719114266
ssssI4
(dp103
I4
(dp104
I0
(dp105
I900
F7.778670293182714
sI1300
F7.919667546844554
sI300
F13.486833121344182
sI1100
F7.829298130905995
sI500
F9.578518500416065
sI100
F18.232749817976696
sI700
F8.127405697663301
ssI1
(dp106
I900
F13.032199625437618
sI1300
F12.448819721217815
sI300
F14.74303214696696
sI1100
F12.663779315528918
sI500
F13.701146044135099
sI100
F18.52557382707847
sI700
F13.68501496967578
ssF0.001
(dp107
I900
F7.616111451155423
sI1300
F7.610417578892905
sI300
F13.71178218727067
sI1100
F7.588450388927942
sI500
F9.639832070248808
sI100
F18.261603898170634
sI700
F8.06725832186177
ssF0.1
(dp108
I900
F11.284753025281812
sI1300
F10.715770145294737
sI300
F15.674025393775311
sI1100
F10.878376160370847
sI500
F13.96447523647664
sI100
F18.225262898974027
sI700
F12.26276786772372
ssF0.01
(dp109
I900
F7.950994822920278
sI1300
F7.673946179851493
sI300
F14.716855911625327
sI1100
F7.755446639853222
sI500
F10.81419371298592
sI100
F18.42946987078404
sI700
F8.650216715126808
ssssI5
(dp110
I5
(dp111
I0
(dp112
I900
F7.1951782319398445
sI1300
F6.591104297268743
sI300
F12.938639253883117
sI1100
F6.865527852688435
sI500
F9.01361872499933
sI100
F18.497526801286032
sI700
F7.747992285170594
ssI1
(dp113
I900
F13.352433082317162
sI1300
F12.451883603046275
sI300
F14.493146817271734
sI1100
F12.820426800264316
sI500
F14.044521833417068
sI100
F19.25113528883397
sI700
F13.877762641087891
ssF0.001
(dp114
I900
F7.452023705790387
sI1300
F6.764302894137364
sI300
F13.228383188711769
sI1100
F7.092907471761288
sI500
F9.069897609274014
sI100
F18.53975439769893
sI700
F7.967549663240464
ssF0.1
(dp115
I900
F11.261920618320719
sI1300
F10.39185707584813
sI300
F15.42252066327802
sI1100
F10.739712043949368
sI500
F13.899146085207837
sI100
F18.861275571581647
sI700
F12.26803249854395
ssF0.01
(dp116
I900
F7.700767202060678
sI1300
F6.92390989891959
sI300
F13.96826918256301
sI1100
F7.2550922071363155
sI500
F10.027471156688245
sI100
F18.767768879816384
sI700
F8.398817814511313
sssss.