(dp0
F0.5
(dp1
I2
(dp2
I2
(dp3
I0
(dp4
I900
F9.096853738263583
sI1300
F9.099503928909545
sI300
F9.105442095748023
sI1100
F9.098187514775834
sI500
F9.099643250710713
sI100
F9.377728922869645
sI700
F9.097111973805053
ssI1
(dp5
I900
F13.018927882951385
sI1300
F13.985598517016278
sI300
F16.614842055404836
sI1100
F13.739541811955144
sI500
F15.020260294483007
sI100
F17.97539480841594
sI700
F12.527057131657841
ssF0.001
(dp6
I900
F12.269906484274118
sI1300
F11.0524385270062
sI300
F13.227794605356495
sI1100
F11.713494931981488
sI500
F13.013436393727858
sI100
F13.979690542427237
sI700
F12.674930326299199
ssF0.1
(dp7
I900
F14.137121022150584
sI1300
F14.164984256540912
sI300
F12.441790326964396
sI1100
F14.151115691087421
sI500
F13.882298795411272
sI100
F17.0251100705639
sI700
F14.104825153399824
ssF0.01
(dp8
I900
F14.159438735808477
sI1300
F14.156766857830972
sI300
F14.068645806384858
sI1100
F14.15864853779426
sI500
F14.14193358710696
sI100
F13.375369973500716
sI700
F14.158598366735664
ssssI3
(dp9
I3
(dp10
I0
(dp11
I900
F7.0904679122849155
sI1300
F7.06746539592466
sI300
F7.228634391270685
sI1100
F7.077526997229415
sI500
F7.143482083985991
sI100
F8.165510384728739
sI700
F7.109458998533613
ssI1
(dp12
I900
F13.426518560384647
sI1300
F13.48326937715418
sI300
F15.144777578822765
sI1100
F13.499003210289676
sI500
F11.975750152904133
sI100
F17.568070793474565
sI700
F12.962475070421554
ssF0.001
(dp13
I900
F8.452492226041702
sI1300
F7.445595268900915
sI300
F12.026241257503557
sI1100
F7.7005010857743095
sI500
F11.356876586447598
sI100
F13.096877467153273
sI700
F9.944687974396972
ssF0.1
(dp14
I900
F13.376766807712665
sI1300
F13.318986798663733
sI300
F12.535798026360867
sI1100
F13.345705186643482
sI500
F13.449344835041714
sI100
F16.553703499741335
sI700
F13.41659274728421
ssF0.01
(dp15
I900
F13.141939899101201
sI1300
F13.108931107340824
sI300
F13.23634366966565
sI1100
F13.126890482681258
sI500
F13.174764829958999
sI100
F13.618880465559876
sI700
F13.155245886001126
ssssI4
(dp16
I4
(dp17
I0
(dp18
I900
F6.677173225127259
sI1300
F6.644009504514879
sI300
F6.945329421488505
sI1100
F6.657733662526582
sI500
F6.759034542166199
sI100
F8.530056846605829
sI700
F6.7053240781226435
ssI1
(dp19
I900
F13.663269339126936
sI1300
F13.258526997113817
sI300
F13.959586577647672
sI1100
F13.392168837065576
sI500
F13.176839908883183
sI100
F16.823949608843524
sI700
F14.139470616829323
ssF0.001
(dp20
I900
F6.854407388057116
sI1300
F6.555873040679157
sI300
F11.791062229703272
sI1100
F6.63757566243564
sI500
F10.343717444374137
sI100
F13.365788920105835
sI700
F7.817888914561879
ssF0.1
(dp21
I900
F13.12395533796627
sI1300
F13.080282604532835
sI300
F13.320344110288687
sI1100
F13.098197453996782
sI500
F13.378483128588526
sI100
F15.73987048964789
sI700
F13.17504912174218
ssF0.01
(dp22
I900
F12.85064642531869
sI1300
F12.823593055314964
sI300
F13.199421211777713
sI1100
F12.840279966642349
sI500
F12.895239205343769
sI100
F13.26896195198622
sI700
F12.855074197685205
ssssI5
(dp23
I5
(dp24
I0
(dp25
I900
F5.418426437214561
sI1300
F5.395426756690846
sI300
F5.608040777519436
sI1100
F5.40388538277648
sI500
F5.4880812090978495
sI100
F8.080361205076272
sI700
F5.442217780666002
ssI1
(dp26
I900
F13.349942133461719
sI1300
F13.01035656724258
sI300
F12.712425555662223
sI1100
F13.12151356219811
sI500
F13.66366620962428
sI100
F16.493873143359608
sI700
F13.793855448320572
ssF0.001
(dp27
I900
F6.6984039932943436
sI1300
F6.385533403351164
sI300
F11.41074252926512
sI1100
F6.4801175363813925
sI500
F9.348781731957475
sI100
F13.047979663699195
sI700
F7.089905268091149
ssF0.1
(dp28
I900
F12.942951810392197
sI1300
F12.913430413404493
sI300
F13.513238023885977
sI1100
F12.922909953347945
sI500
F13.192909906745573
sI100
F15.450639979449036
sI700
F12.979089641278982
ssF0.01
(dp29
I900
F12.623068426247222
sI1300
F12.590175992617532
sI300
F13.052894035263268
sI1100
F12.606702017574719
sI500
F12.683473357487797
sI100
F12.766888053729009
sI700
F12.634573580024506
sssssI1
(dp30
I2
(dp31
I2
(dp32
I0
(dp33
I900
F9.109603863328497
sI1300
F9.11060406918316
sI300
F9.096283159094723
sI1100
F9.110349386615459
sI500
F9.086618726676475
sI100
F9.128119274185169
sI700
F9.106413312073066
ssI1
(dp34
I900
F14.24371805140208
sI1300
F14.316602848878995
sI300
F13.66852959874323
sI1100
F14.257853537709
sI500
F14.220243137400592
sI100
F16.122033281558522
sI700
F14.24279628789997
ssF0.001
(dp35
I900
F9.507686095768243
sI1300
F9.398184476709561
sI300
F11.512609343510363
sI1100
F9.436789486900258
sI500
F10.180293874433644
sI100
F13.063886902232351
sI700
F9.686898629689098
ssF0.1
(dp36
I900
F14.20443731282961
sI1300
F14.254697199784738
sI300
F14.166591807355838
sI1100
F14.232091512008513
sI500
F14.221650599203691
sI100
F13.665452819669182
sI700
F14.228037376152503
ssF0.01
(dp37
I900
F13.962853050460875
sI1300
F13.47124856142425
sI300
F14.038628397764006
sI1100
F13.788840310148059
sI500
F14.00580158682283
sI100
F13.980117178428099
sI700
F14.041053858264295
ssssI3
(dp38
I3
(dp39
I0
(dp40
I900
F7.033047929662478
sI1300
F7.021864718703007
sI300
F7.09445217561893
sI1100
F7.026362628937885
sI500
F7.080238131498101
sI100
F7.318707955280811
sI700
F7.043342359460635
ssI1
(dp41
I900
F13.351534563088087
sI1300
F13.30111770142905
sI300
F13.047521338563614
sI1100
F13.32365320715178
sI500
F13.40432022932185
sI100
F14.662565451741743
sI700
F13.388163493718974
ssF0.001
(dp42
I900
F7.442565450789927
sI1300
F7.362277575667241
sI300
F8.877749957494489
sI1100
F7.383899511429439
sI500
F7.790183139487981
sI100
F11.712161489878802
sI700
F7.565825988523921
ssF0.1
(dp43
I900
F13.215301379956239
sI1300
F13.169322778635749
sI300
F13.37126661183649
sI1100
F13.18618459768757
sI500
F13.286783854918964
sI100
F12.555197967725105
sI700
F13.249424560402057
ssF0.01
(dp44
I900
F12.403112111717919
sI1300
F11.323783366283688
sI300
F13.04190068824837
sI1100
F11.879605123207519
sI500
F12.910397785031805
sI100
F13.010197127890194
sI700
F12.777267240303205
ssssI4
(dp45
I4
(dp46
I0
(dp47
I900
F6.194408443522253
sI1300
F6.228977539410244
sI300
F6.046700791425894
sI1100
F6.216333699072345
sI500
F6.12715743087004
sI100
F7.105628879634316
sI700
F6.17021327490606
ssI1
(dp48
I900
F13.023370700322033
sI1300
F12.960487327707888
sI300
F13.850561454657484
sI1100
F12.975644079619236
sI500
F13.303470247147493
sI100
F12.91055969342124
sI700
F13.103884067584858
ssF0.001
(dp49
I900
F6.733993380803302
sI1300
F6.629214972007394
sI300
F8.523282762996795
sI1100
F6.6671166842983345
sI500
F7.218697230996448
sI100
F11.686309998870188
sI700
F6.830057281213953
ssF0.1
(dp50
I900
F12.874347754170742
sI1300
F12.877992462558456
sI300
F13.149583777596572
sI1100
F12.86889735845262
sI500
F12.94383742943024
sI100
F12.177116990891909
sI700
F12.904024059595645
ssF0.01
(dp51
I900
F11.758928292836258
sI1300
F10.461546990497496
sI300
F12.698484672516495
sI1100
F11.048293537189052
sI500
F12.524836447875593
sI100
F13.12146629995287
sI700
F12.380150209107937
ssssI5
(dp52
I5
(dp53
I0
(dp54
I900
F5.771239611402797
sI1300
F5.744518104483494
sI300
F5.877286854357161
sI1100
F5.759582478426106
sI500
F5.803700227780919
sI100
F6.901278842495739
sI700
F5.783952753470417
ssI1
(dp55
I900
F12.937171981726785
sI1300
F12.909266338080258
sI300
F13.50918745846555
sI1100
F12.914351603657002
sI500
F13.132049344084884
sI100
F12.40768080999308
sI700
F12.997105529859288
ssF0.001
(dp56
I900
F6.31810998603591
sI1300
F6.17502948152972
sI300
F8.028040729861557
sI1100
F6.239014668759749
sI500
F6.821290571054282
sI100
F11.839994198557878
sI700
F6.5031760250368915
ssF0.1
(dp57
I900
F12.861303782587813
sI1300
F12.842806088201291
sI300
F13.089804642827142
sI1100
F12.842016210259002
sI500
F12.890138897961698
sI100
F12.228380649393616
sI700
F12.856185967335563
ssF0.01
(dp58
I900
F11.752208402004518
sI1300
F9.852178697402932
sI300
F12.57898306402288
sI1100
F10.806955363103555
sI500
F12.455427538700162
sI100
F13.431799619997783
sI700
F12.260493742561977
sssssI2
(dp59
I2
(dp60
I2
(dp61
I0
(dp62
I900
F9.110489942967117
sI1300
F9.11031140453787
sI300
F9.10962500828485
sI1100
F9.110322897923696
sI500
F9.111183383026777
sI100
F9.135967109912947
sI700
F9.111178354743032
ssI1
(dp63
I900
F14.42787365021885
sI1300
F14.370220322293521
sI300
F14.529852593112057
sI1100
F14.403070454938941
sI500
F14.41739140862633
sI100
F15.648058730288303
sI700
F14.40411367264443
ssF0.001
(dp64
I900
F9.943548459240967
sI1300
F9.837190215716415
sI300
F10.582664637792464
sI1100
F9.872078503389199
sI500
F10.161475222935175
sI100
F12.270121358735057
sI700
F9.983751463857352
ssF0.1
(dp65
I900
F14.34651690727468
sI1300
F14.338577532737949
sI300
F14.426157751400137
sI1100
F14.342952153751881
sI500
F14.369596513344542
sI100
F15.112200012756956
sI700
F14.352732954323509
ssF0.01
(dp66
I900
F13.00333793089488
sI1300
F11.949615506174073
sI300
F14.160222188815707
sI1100
F12.42514433708956
sI500
F13.990405850754708
sI100
F14.211468709144848
sI700
F13.60157274195116
ssssI3
(dp67
I3
(dp68
I0
(dp69
I900
F7.029858545873235
sI1300
F7.021236813251697
sI300
F7.093503713535249
sI1100
F7.024989912503111
sI500
F7.058705211054584
sI100
F7.439489048934339
sI700
F7.039622270732602
ssI1
(dp70
I900
F13.215095698277256
sI1300
F13.200323865021167
sI300
F13.151307391591075
sI1100
F13.206816561028331
sI500
F13.226050741774207
sI100
F14.151034493856933
sI700
F13.223977656690291
ssF0.001
(dp71
I900
F7.474966217647933
sI1300
F7.4253370337920925
sI300
F8.894989847131578
sI1100
F7.407662633356595
sI500
F7.971661548557609
sI100
F11.056640634019947
sI700
F7.61886761354905
ssF0.1
(dp72
I900
F13.123844482914883
sI1300
F13.11425678977963
sI300
F13.112651640797997
sI1100
F13.124462024414449
sI500
F13.166176139743895
sI100
F13.381656608615964
sI700
F13.149597046632593
ssF0.01
(dp73
I900
F11.92610638714388
sI1300
F11.136854049575884
sI300
F12.928259863213789
sI1100
F11.48721048909966
sI500
F12.696719199545745
sI100
F12.75987741303509
sI700
F12.44617826590815
ssssI4
(dp74
I4
(dp75
I0
(dp76
I900
F6.623575950379847
sI1300
F6.60980814651252
sI300
F6.590183585489722
sI1100
F6.63998323481249
sI500
F6.648794056859682
sI100
F7.287222691459549
sI700
F6.6140670319516595
ssI1
(dp77
I900
F12.86598877467048
sI1300
F12.879558917346097
sI300
F13.13418836131978
sI1100
F12.86722261530524
sI500
F13.006907485011716
sI100
F13.665678921895447
sI700
F12.88784985893645
ssF0.001
(dp78
I900
F7.240556105732555
sI1300
F7.113505142526581
sI300
F9.101787527754945
sI1100
F7.15123230730339
sI500
F8.09327159793444
sI100
F11.883127698709188
sI700
F7.53896322365847
ssF0.1
(dp79
I900
F12.801543683296227
sI1300
F12.880409921352276
sI300
F13.00929230631345
sI1100
F12.797357078841538
sI500
F12.832407966569855
sI100
F13.460684178799248
sI700
F12.801659045491096
ssF0.01
(dp80
I900
F11.828023812396715
sI1300
F11.314857454829557
sI300
F12.732723337063662
sI1100
F11.515414063976491
sI500
F12.604003385444138
sI100
F13.023447054735879
sI700
F12.265907823201086
ssssI5
(dp81
I5
(dp82
I0
(dp83
I900
F6.068700652027606
sI1300
F6.0630965633747085
sI300
F6.1700967720227
sI1100
F6.067671331086732
sI500
F6.061925390986805
sI100
F7.478462304206322
sI700
F6.064475945933199
ssI1
(dp84
I900
F13.041798745436854
sI1300
F13.037420455545185
sI300
F13.035899033105418
sI1100
F13.039411094651882
sI500
F13.032594493835068
sI100
F13.53297981262706
sI700
F13.035034237784046
ssF0.001
(dp85
I900
F7.551155661309393
sI1300
F7.328701040722408
sI300
F9.10563050109255
sI1100
F7.403830890805952
sI500
F8.233600786606944
sI100
F11.849407332840368
sI700
F7.86071284846168
ssF0.1
(dp86
I900
F12.994460553746505
sI1300
F12.982118120327181
sI300
F13.012515598481407
sI1100
F12.98497199848697
sI500
F12.993330031960138
sI100
F13.510627706706279
sI700
F12.998561607692091
ssF0.01
(dp87
I900
F12.272334291311118
sI1300
F11.28735513112562
sI300
F12.774835684342444
sI1100
F11.825942944011134
sI500
F12.773848067951825
sI100
F13.10196267821472
sI700
F12.578020606650087
sssssF0.1
(dp88
I2
(dp89
I2
(dp90
I0
(dp91
I900
F14.15682236987028
sI1300
F11.819323651815969
sI300
F20.567248810608227
sI1100
F12.8362148349253
sI500
F17.570443929608636
sI100
F25.12246182414261
sI700
F15.735475389479713
ssI1
(dp92
I900
F20.183311384865352
sI1300
F19.051381335317142
sI300
F23.81840198144445
sI1100
F19.563630120604337
sI500
F22.102025986731157
sI100
F26.948699903657975
sI700
F20.897637771942286
ssF0.001
(dp93
I900
F17.00808916861645
sI1300
F15.817076991087346
sI300
F21.125273065902963
sI1100
F16.325973014051964
sI500
F18.721226646842094
sI100
F26.44969340194078
sI700
F17.605272736463927
ssF0.1
(dp94
I900
F19.369487678192204
sI1300
F17.423268305807053
sI300
F23.737611227132174
sI1100
F18.35912149137007
sI500
F21.85593683157754
sI100
F26.94358807766557
sI700
F20.40729933717338
ssF0.01
(dp95
I900
F16.420993391598785
sI1300
F15.293220677048792
sI300
F23.009231826500205
sI1100
F15.60609579460496
sI500
F20.069362060660332
sI100
F26.892731541097
sI700
F17.77843475520854
ssssI3
(dp96
I3
(dp97
I0
(dp98
I900
F12.836969586022857
sI1300
F10.729423254815524
sI300
F18.906447626362077
sI1100
F11.677051125575417
sI500
F16.092541041201898
sI100
F22.845499743368805
sI700
F14.599596569574155
ssI1
(dp99
I900
F19.54544541748306
sI1300
F18.42827781843747
sI300
F22.80404117460637
sI1100
F18.945150404905082
sI500
F20.9183919298002
sI100
F25.372988553681783
sI700
F20.13445144095465
ssF0.001
(dp100
I900
F16.39935112539512
sI1300
F15.563344288372987
sI300
F19.831206670316885
sI1100
F15.909182952627145
sI500
F17.526440508552632
sI100
F24.701249089253096
sI700
F17.137395195211163
ssF0.1
(dp101
I900
F18.643738264410604
sI1300
F16.652361577448687
sI300
F22.709097747060742
sI1100
F17.610471606077425
sI500
F20.641220994041714
sI100
F25.366100136117183
sI700
F19.58769806792772
ssF0.01
(dp102
I900
F15.67777575494175
sI1300
F15.443148859447213
sI300
F21.858866901049364
sI1100
F15.288322576912334
sI500
F18.62868589184244
sI100
F25.297602979188387
sI700
F16.761921618716787
ssssI4
(dp103
I4
(dp104
I0
(dp105
I900
F10.854798419369448
sI1300
F9.375309457881144
sI300
F17.852911819849755
sI1100
F9.92054731618025
sI500
F14.998735355107623
sI100
F21.99599142372566
sI700
F12.453677201364009
ssI1
(dp106
I900
F18.478894416806632
sI1300
F17.562276871182007
sI300
F22.098573540216883
sI1100
F18.011536474587885
sI500
F20.297273517229502
sI100
F24.759818791541235
sI700
F19.324998756463426
ssF0.001
(dp107
I900
F15.390448695367006
sI1300
F14.54083223283571
sI300
F18.99719924773083
sI1100
F14.97918185528985
sI500
F17.103099397859996
sI100
F23.977670225556103
sI700
F16.051294611969745
ssF0.1
(dp108
I900
F17.45530893150343
sI1300
F15.597052420518343
sI300
F21.99223654511106
sI1100
F16.570872995538156
sI500
F19.98611501175607
sI100
F24.751672478980712
sI700
F18.695307642857564
ssF0.01
(dp109
I900
F14.562534584406558
sI1300
F14.678333677783048
sI300
F21.04967691900379
sI1100
F14.559882839774781
sI500
F17.80409437970826
sI100
F24.67076872607017
sI700
F15.6090929443153
ssssI5
(dp110
I5
(dp111
I0
(dp112
I900
F10.71031596814719
sI1300
F8.70341295100457
sI300
F17.25504472158471
sI1100
F9.364626253386778
sI500
F14.737831933349808
sI100
F21.19125250435361
sI700
F12.504015636169216
ssI1
(dp113
I900
F18.573016684959864
sI1300
F17.48765463057511
sI300
F21.5823536785739
sI1100
F17.95260219039484
sI500
F20.064479032886236
sI100
F24.05458016764724
sI700
F19.262984077506278
ssF0.001
(dp114
I900
F15.14204042537714
sI1300
F13.934037501190296
sI300
F18.444068516180565
sI1100
F14.549342640802674
sI500
F17.048324949899428
sI100
F23.166620867689314
sI700
F16.09107577064028
ssF0.1
(dp115
I900
F17.59938968535111
sI1300
F15.672774500310796
sI300
F21.473966370015383
sI1100
F16.571702829442952
sI500
F19.755761699591524
sI100
F24.04522860105946
sI700
F18.663102107978936
ssF0.01
(dp116
I900
F14.535067573045572
sI1300
F14.077699942158356
sI300
F20.51303028076841
sI1100
F14.268286830183968
sI500
F17.594199210565495
sI100
F23.95253461976864
sI700
F15.67222216713943
sssss.