(dp0
I2
(dp1
S'False'
p2
(dp3
g2
(dp4
S'transfer'
p5
(dp6
F10.0
ccopy_reg
_reconstructor
p7
(cpandas.core.series
Series
p8
c__builtin__
object
p9
Ntp10
Rp11
(dp12
S'_metadata'
p13
(lp14
S'name'
p15
asS'_data'
p16
g7
(cpandas.core.internals
SingleBlockManager
p17
g9
Ntp18
Rp19
((lp20
cpandas.core.indexes.base
_new_Index
p21
(cpandas.core.indexes.base
Index
p22
(dp23
S'data'
p24
cnumpy.core.multiarray
_reconstruct
p25
(cnumpy
ndarray
p26
(I0
tp27
S'b'
p28
tp29
Rp30
(I1
(I0
tp31
cnumpy
dtype
p32
(S'O8'
p33
I0
I1
tp34
Rp35
(I3
S'|'
p36
NNNI-1
I-1
I63
tp37
bI00
(lp38
tp39
bsg15
Nstp40
Rp41
a(lp42
g25
(g26
(I0
tp43
g28
tp44
Rp45
(I1
(I0
tp46
g32
(S'f8'
p47
I0
I1
tp48
Rp49
(I3
S'<'
p50
NNNI-1
I-1
I0
tp51
bI00
S''
p52
tp53
ba(lp54
g21
(g22
(dp55
g24
g25
(g26
(I0
tp56
g28
tp57
Rp58
(I1
(I0
tp59
g35
I00
(lp60
tp61
bsg15
Nstp62
Rp63
a(dp64
S'0.14.1'
p65
(dp66
S'axes'
p67
g20
sS'blocks'
p68
(lp69
(dp70
S'mgr_locs'
p71
g25
(g26
(I0
tp72
g28
tp73
Rp74
(I1
(I0
tp75
g32
(S'i8'
p76
I0
I1
tp77
Rp78
(I3
S'<'
p79
NNNI-1
I-1
I0
tp80
bI00
g52
tp81
bsS'values'
p82
g45
sasstp83
bsS'_typ'
p84
S'series'
p85
sg15
NsbsF90.0
g7
(g8
g9
Ntp86
Rp87
(dp88
g13
g14
sg16
g7
(g17
g9
Ntp89
Rp90
((lp91
g21
(g22
(dp92
g24
g25
(g26
(I0
tp93
g28
tp94
Rp95
(I1
(I0
tp96
g35
I00
(lp97
tp98
bsg15
Nstp99
Rp100
a(lp101
g25
(g26
(I0
tp102
g28
tp103
Rp104
(I1
(I0
tp105
g49
I00
g52
tp106
ba(lp107
g21
(g22
(dp108
g24
g25
(g26
(I0
tp109
g28
tp110
Rp111
(I1
(I0
tp112
g35
I00
(lp113
tp114
bsg15
Nstp115
Rp116
a(dp117
g65
(dp118
g67
g91
sg68
(lp119
(dp120
g71
g25
(g26
(I0
tp121
g28
tp122
Rp123
(I1
(I0
tp124
g78
I00
g52
tp125
bsg82
g104
sasstp126
bsg84
g85
sg15
NsbsF70.0
g7
(g8
g9
Ntp127
Rp128
(dp129
g13
g14
sg16
g7
(g17
g9
Ntp130
Rp131
((lp132
g21
(g22
(dp133
g24
g25
(g26
(I0
tp134
g28
tp135
Rp136
(I1
(I0
tp137
g35
I00
(lp138
tp139
bsg15
Nstp140
Rp141
a(lp142
g25
(g26
(I0
tp143
g28
tp144
Rp145
(I1
(I0
tp146
g49
I00
g52
tp147
ba(lp148
g21
(g22
(dp149
g24
g25
(g26
(I0
tp150
g28
tp151
Rp152
(I1
(I0
tp153
g35
I00
(lp154
tp155
bsg15
Nstp156
Rp157
a(dp158
g65
(dp159
g67
g132
sg68
(lp160
(dp161
g71
g25
(g26
(I0
tp162
g28
tp163
Rp164
(I1
(I0
tp165
g78
I00
g52
tp166
bsg82
g145
sasstp167
bsg84
g85
sg15
NsbsF50.0
g7
(g8
g9
Ntp168
Rp169
(dp170
g13
g14
sg16
g7
(g17
g9
Ntp171
Rp172
((lp173
g21
(g22
(dp174
g24
g25
(g26
(I0
tp175
g28
tp176
Rp177
(I1
(I0
tp178
g35
I00
(lp179
tp180
bsg15
Nstp181
Rp182
a(lp183
g25
(g26
(I0
tp184
g28
tp185
Rp186
(I1
(I0
tp187
g49
I00
g52
tp188
ba(lp189
g21
(g22
(dp190
g24
g25
(g26
(I0
tp191
g28
tp192
Rp193
(I1
(I0
tp194
g35
I00
(lp195
tp196
bsg15
Nstp197
Rp198
a(dp199
g65
(dp200
g67
g173
sg68
(lp201
(dp202
g71
g25
(g26
(I0
tp203
g28
tp204
Rp205
(I1
(I0
tp206
g78
I00
g52
tp207
bsg82
g186
sasstp208
bsg84
g85
sg15
NsbsF30.0
g7
(g8
g9
Ntp209
Rp210
(dp211
g13
g14
sg16
g7
(g17
g9
Ntp212
Rp213
((lp214
g21
(g22
(dp215
g24
g25
(g26
(I0
tp216
g28
tp217
Rp218
(I1
(I0
tp219
g35
I00
(lp220
tp221
bsg15
Nstp222
Rp223
a(lp224
g25
(g26
(I0
tp225
g28
tp226
Rp227
(I1
(I0
tp228
g49
I00
g52
tp229
ba(lp230
g21
(g22
(dp231
g24
g25
(g26
(I0
tp232
g28
tp233
Rp234
(I1
(I0
tp235
g35
I00
(lp236
tp237
bsg15
Nstp238
Rp239
a(dp240
g65
(dp241
g67
g214
sg68
(lp242
(dp243
g71
g25
(g26
(I0
tp244
g28
tp245
Rp246
(I1
(I0
tp247
g78
I00
g52
tp248
bsg82
g227
sasstp249
bsg84
g85
sg15
NsbssS'normal'
p250
(dp251
F10.0
g7
(g8
g9
Ntp252
Rp253
(dp254
g13
g14
sg16
g7
(g17
g9
Ntp255
Rp256
((lp257
g21
(g22
(dp258
g24
g25
(g26
(I0
tp259
g28
tp260
Rp261
(I1
(I0
tp262
g35
I00
(lp263
tp264
bsg15
Nstp265
Rp266
a(lp267
g25
(g26
(I0
tp268
g28
tp269
Rp270
(I1
(I0
tp271
g49
I00
g52
tp272
ba(lp273
g21
(g22
(dp274
g24
g25
(g26
(I0
tp275
g28
tp276
Rp277
(I1
(I0
tp278
g35
I00
(lp279
tp280
bsg15
Nstp281
Rp282
a(dp283
g65
(dp284
g67
g257
sg68
(lp285
(dp286
g71
g25
(g26
(I0
tp287
g28
tp288
Rp289
(I1
(I0
tp290
g78
I00
g52
tp291
bsg82
g270
sasstp292
bsg84
g85
sg15
NsbsF90.0
g7
(g8
g9
Ntp293
Rp294
(dp295
g13
g14
sg16
g7
(g17
g9
Ntp296
Rp297
((lp298
g21
(g22
(dp299
g24
g25
(g26
(I0
tp300
g28
tp301
Rp302
(I1
(I0
tp303
g35
I00
(lp304
tp305
bsg15
Nstp306
Rp307
a(lp308
g25
(g26
(I0
tp309
g28
tp310
Rp311
(I1
(I0
tp312
g49
I00
g52
tp313
ba(lp314
g21
(g22
(dp315
g24
g25
(g26
(I0
tp316
g28
tp317
Rp318
(I1
(I0
tp319
g35
I00
(lp320
tp321
bsg15
Nstp322
Rp323
a(dp324
g65
(dp325
g67
g298
sg68
(lp326
(dp327
g71
g25
(g26
(I0
tp328
g28
tp329
Rp330
(I1
(I0
tp331
g78
I00
g52
tp332
bsg82
g311
sasstp333
bsg84
g85
sg15
NsbsF70.0
g7
(g8
g9
Ntp334
Rp335
(dp336
g13
g14
sg16
g7
(g17
g9
Ntp337
Rp338
((lp339
g21
(g22
(dp340
g24
g25
(g26
(I0
tp341
g28
tp342
Rp343
(I1
(I0
tp344
g35
I00
(lp345
tp346
bsg15
Nstp347
Rp348
a(lp349
g25
(g26
(I0
tp350
g28
tp351
Rp352
(I1
(I0
tp353
g49
I00
g52
tp354
ba(lp355
g21
(g22
(dp356
g24
g25
(g26
(I0
tp357
g28
tp358
Rp359
(I1
(I0
tp360
g35
I00
(lp361
tp362
bsg15
Nstp363
Rp364
a(dp365
g65
(dp366
g67
g339
sg68
(lp367
(dp368
g71
g25
(g26
(I0
tp369
g28
tp370
Rp371
(I1
(I0
tp372
g78
I00
g52
tp373
bsg82
g352
sasstp374
bsg84
g85
sg15
NsbsF50.0
g7
(g8
g9
Ntp375
Rp376
(dp377
g13
g14
sg16
g7
(g17
g9
Ntp378
Rp379
((lp380
g21
(g22
(dp381
g24
g25
(g26
(I0
tp382
g28
tp383
Rp384
(I1
(I0
tp385
g35
I00
(lp386
tp387
bsg15
Nstp388
Rp389
a(lp390
g25
(g26
(I0
tp391
g28
tp392
Rp393
(I1
(I0
tp394
g49
I00
g52
tp395
ba(lp396
g21
(g22
(dp397
g24
g25
(g26
(I0
tp398
g28
tp399
Rp400
(I1
(I0
tp401
g35
I00
(lp402
tp403
bsg15
Nstp404
Rp405
a(dp406
g65
(dp407
g67
g380
sg68
(lp408
(dp409
g71
g25
(g26
(I0
tp410
g28
tp411
Rp412
(I1
(I0
tp413
g78
I00
g52
tp414
bsg82
g393
sasstp415
bsg84
g85
sg15
NsbsF30.0
g7
(g8
g9
Ntp416
Rp417
(dp418
g13
g14
sg16
g7
(g17
g9
Ntp419
Rp420
((lp421
g21
(g22
(dp422
g24
g25
(g26
(I0
tp423
g28
tp424
Rp425
(I1
(I0
tp426
g35
I00
(lp427
tp428
bsg15
Nstp429
Rp430
a(lp431
g25
(g26
(I0
tp432
g28
tp433
Rp434
(I1
(I0
tp435
g49
I00
g52
tp436
ba(lp437
g21
(g22
(dp438
g24
g25
(g26
(I0
tp439
g28
tp440
Rp441
(I1
(I0
tp442
g35
I00
(lp443
tp444
bsg15
Nstp445
Rp446
a(dp447
g65
(dp448
g67
g421
sg68
(lp449
(dp450
g71
g25
(g26
(I0
tp451
g28
tp452
Rp453
(I1
(I0
tp454
g78
I00
g52
tp455
bsg82
g434
sasstp456
bsg84
g85
sg15
NsbsssS'True'
p457
(dp458
g5
(dp459
F10.0
g7
(g8
g9
Ntp460
Rp461
(dp462
g13
g14
sg16
g7
(g17
g9
Ntp463
Rp464
((lp465
g21
(g22
(dp466
g24
g25
(g26
(I0
tp467
g28
tp468
Rp469
(I1
(I0
tp470
g35
I00
(lp471
tp472
bsg15
Nstp473
Rp474
a(lp475
g25
(g26
(I0
tp476
g28
tp477
Rp478
(I1
(I0
tp479
g49
I00
g52
tp480
ba(lp481
g21
(g22
(dp482
g24
g25
(g26
(I0
tp483
g28
tp484
Rp485
(I1
(I0
tp486
g35
I00
(lp487
tp488
bsg15
Nstp489
Rp490
a(dp491
g65
(dp492
g67
g465
sg68
(lp493
(dp494
g71
g25
(g26
(I0
tp495
g28
tp496
Rp497
(I1
(I0
tp498
g78
I00
g52
tp499
bsg82
g478
sasstp500
bsg84
g85
sg15
NsbsF90.0
g7
(g8
g9
Ntp501
Rp502
(dp503
g13
g14
sg16
g7
(g17
g9
Ntp504
Rp505
((lp506
g21
(g22
(dp507
g24
g25
(g26
(I0
tp508
g28
tp509
Rp510
(I1
(I0
tp511
g35
I00
(lp512
tp513
bsg15
Nstp514
Rp515
a(lp516
g25
(g26
(I0
tp517
g28
tp518
Rp519
(I1
(I0
tp520
g49
I00
g52
tp521
ba(lp522
g21
(g22
(dp523
g24
g25
(g26
(I0
tp524
g28
tp525
Rp526
(I1
(I0
tp527
g35
I00
(lp528
tp529
bsg15
Nstp530
Rp531
a(dp532
g65
(dp533
g67
g506
sg68
(lp534
(dp535
g71
g25
(g26
(I0
tp536
g28
tp537
Rp538
(I1
(I0
tp539
g78
I00
g52
tp540
bsg82
g519
sasstp541
bsg84
g85
sg15
NsbsF70.0
g7
(g8
g9
Ntp542
Rp543
(dp544
g13
g14
sg16
g7
(g17
g9
Ntp545
Rp546
((lp547
g21
(g22
(dp548
g24
g25
(g26
(I0
tp549
g28
tp550
Rp551
(I1
(I0
tp552
g35
I00
(lp553
tp554
bsg15
Nstp555
Rp556
a(lp557
g25
(g26
(I0
tp558
g28
tp559
Rp560
(I1
(I0
tp561
g49
I00
g52
tp562
ba(lp563
g21
(g22
(dp564
g24
g25
(g26
(I0
tp565
g28
tp566
Rp567
(I1
(I0
tp568
g35
I00
(lp569
tp570
bsg15
Nstp571
Rp572
a(dp573
g65
(dp574
g67
g547
sg68
(lp575
(dp576
g71
g25
(g26
(I0
tp577
g28
tp578
Rp579
(I1
(I0
tp580
g78
I00
g52
tp581
bsg82
g560
sasstp582
bsg84
g85
sg15
NsbsF50.0
g7
(g8
g9
Ntp583
Rp584
(dp585
g13
g14
sg16
g7
(g17
g9
Ntp586
Rp587
((lp588
g21
(g22
(dp589
g24
g25
(g26
(I0
tp590
g28
tp591
Rp592
(I1
(I0
tp593
g35
I00
(lp594
tp595
bsg15
Nstp596
Rp597
a(lp598
g25
(g26
(I0
tp599
g28
tp600
Rp601
(I1
(I0
tp602
g49
I00
g52
tp603
ba(lp604
g21
(g22
(dp605
g24
g25
(g26
(I0
tp606
g28
tp607
Rp608
(I1
(I0
tp609
g35
I00
(lp610
tp611
bsg15
Nstp612
Rp613
a(dp614
g65
(dp615
g67
g588
sg68
(lp616
(dp617
g71
g25
(g26
(I0
tp618
g28
tp619
Rp620
(I1
(I0
tp621
g78
I00
g52
tp622
bsg82
g601
sasstp623
bsg84
g85
sg15
NsbsF30.0
g7
(g8
g9
Ntp624
Rp625
(dp626
g13
g14
sg16
g7
(g17
g9
Ntp627
Rp628
((lp629
g21
(g22
(dp630
g24
g25
(g26
(I0
tp631
g28
tp632
Rp633
(I1
(I0
tp634
g35
I00
(lp635
tp636
bsg15
Nstp637
Rp638
a(lp639
g25
(g26
(I0
tp640
g28
tp641
Rp642
(I1
(I0
tp643
g49
I00
g52
tp644
ba(lp645
g21
(g22
(dp646
g24
g25
(g26
(I0
tp647
g28
tp648
Rp649
(I1
(I0
tp650
g35
I00
(lp651
tp652
bsg15
Nstp653
Rp654
a(dp655
g65
(dp656
g67
g629
sg68
(lp657
(dp658
g71
g25
(g26
(I0
tp659
g28
tp660
Rp661
(I1
(I0
tp662
g78
I00
g52
tp663
bsg82
g642
sasstp664
bsg84
g85
sg15
Nsbssg250
(dp665
F10.0
g7
(g8
g9
Ntp666
Rp667
(dp668
g13
g14
sg16
g7
(g17
g9
Ntp669
Rp670
((lp671
g21
(g22
(dp672
g24
g25
(g26
(I0
tp673
g28
tp674
Rp675
(I1
(I0
tp676
g35
I00
(lp677
tp678
bsg15
Nstp679
Rp680
a(lp681
g25
(g26
(I0
tp682
g28
tp683
Rp684
(I1
(I0
tp685
g49
I00
g52
tp686
ba(lp687
g21
(g22
(dp688
g24
g25
(g26
(I0
tp689
g28
tp690
Rp691
(I1
(I0
tp692
g35
I00
(lp693
tp694
bsg15
Nstp695
Rp696
a(dp697
g65
(dp698
g67
g671
sg68
(lp699
(dp700
g71
g25
(g26
(I0
tp701
g28
tp702
Rp703
(I1
(I0
tp704
g78
I00
g52
tp705
bsg82
g684
sasstp706
bsg84
g85
sg15
NsbsF90.0
g7
(g8
g9
Ntp707
Rp708
(dp709
g13
g14
sg16
g7
(g17
g9
Ntp710
Rp711
((lp712
g21
(g22
(dp713
g24
g25
(g26
(I0
tp714
g28
tp715
Rp716
(I1
(I0
tp717
g35
I00
(lp718
tp719
bsg15
Nstp720
Rp721
a(lp722
g25
(g26
(I0
tp723
g28
tp724
Rp725
(I1
(I0
tp726
g49
I00
g52
tp727
ba(lp728
g21
(g22
(dp729
g24
g25
(g26
(I0
tp730
g28
tp731
Rp732
(I1
(I0
tp733
g35
I00
(lp734
tp735
bsg15
Nstp736
Rp737
a(dp738
g65
(dp739
g67
g712
sg68
(lp740
(dp741
g71
g25
(g26
(I0
tp742
g28
tp743
Rp744
(I1
(I0
tp745
g78
I00
g52
tp746
bsg82
g725
sasstp747
bsg84
g85
sg15
NsbsF70.0
g7
(g8
g9
Ntp748
Rp749
(dp750
g13
g14
sg16
g7
(g17
g9
Ntp751
Rp752
((lp753
g21
(g22
(dp754
g24
g25
(g26
(I0
tp755
g28
tp756
Rp757
(I1
(I0
tp758
g35
I00
(lp759
tp760
bsg15
Nstp761
Rp762
a(lp763
g25
(g26
(I0
tp764
g28
tp765
Rp766
(I1
(I0
tp767
g49
I00
g52
tp768
ba(lp769
g21
(g22
(dp770
g24
g25
(g26
(I0
tp771
g28
tp772
Rp773
(I1
(I0
tp774
g35
I00
(lp775
tp776
bsg15
Nstp777
Rp778
a(dp779
g65
(dp780
g67
g753
sg68
(lp781
(dp782
g71
g25
(g26
(I0
tp783
g28
tp784
Rp785
(I1
(I0
tp786
g78
I00
g52
tp787
bsg82
g766
sasstp788
bsg84
g85
sg15
NsbsF50.0
g7
(g8
g9
Ntp789
Rp790
(dp791
g13
g14
sg16
g7
(g17
g9
Ntp792
Rp793
((lp794
g21
(g22
(dp795
g24
g25
(g26
(I0
tp796
g28
tp797
Rp798
(I1
(I0
tp799
g35
I00
(lp800
tp801
bsg15
Nstp802
Rp803
a(lp804
g25
(g26
(I0
tp805
g28
tp806
Rp807
(I1
(I0
tp808
g49
I00
g52
tp809
ba(lp810
g21
(g22
(dp811
g24
g25
(g26
(I0
tp812
g28
tp813
Rp814
(I1
(I0
tp815
g35
I00
(lp816
tp817
bsg15
Nstp818
Rp819
a(dp820
g65
(dp821
g67
g794
sg68
(lp822
(dp823
g71
g25
(g26
(I0
tp824
g28
tp825
Rp826
(I1
(I0
tp827
g78
I00
g52
tp828
bsg82
g807
sasstp829
bsg84
g85
sg15
NsbsF30.0
g7
(g8
g9
Ntp830
Rp831
(dp832
g13
g14
sg16
g7
(g17
g9
Ntp833
Rp834
((lp835
g21
(g22
(dp836
g24
g25
(g26
(I0
tp837
g28
tp838
Rp839
(I1
(I0
tp840
g35
I00
(lp841
tp842
bsg15
Nstp843
Rp844
a(lp845
g25
(g26
(I0
tp846
g28
tp847
Rp848
(I1
(I0
tp849
g49
I00
g52
tp850
ba(lp851
g21
(g22
(dp852
g24
g25
(g26
(I0
tp853
g28
tp854
Rp855
(I1
(I0
tp856
g35
I00
(lp857
tp858
bsg15
Nstp859
Rp860
a(dp861
g65
(dp862
g67
g835
sg68
(lp863
(dp864
g71
g25
(g26
(I0
tp865
g28
tp866
Rp867
(I1
(I0
tp868
g78
I00
g52
tp869
bsg82
g848
sasstp870
bsg84
g85
sg15
Nsbssssg457
(dp871
g2
(dp872
g5
(dp873
F10.0
g7
(g8
g9
Ntp874
Rp875
(dp876
g13
g14
sg16
g7
(g17
g9
Ntp877
Rp878
((lp879
g21
(g22
(dp880
g24
g25
(g26
(I0
tp881
g28
tp882
Rp883
(I1
(I0
tp884
g35
I00
(lp885
tp886
bsg15
Nstp887
Rp888
a(lp889
g25
(g26
(I0
tp890
g28
tp891
Rp892
(I1
(I0
tp893
g49
I00
g52
tp894
ba(lp895
g21
(g22
(dp896
g24
g25
(g26
(I0
tp897
g28
tp898
Rp899
(I1
(I0
tp900
g35
I00
(lp901
tp902
bsg15
Nstp903
Rp904
a(dp905
g65
(dp906
g67
g879
sg68
(lp907
(dp908
g71
g25
(g26
(I0
tp909
g28
tp910
Rp911
(I1
(I0
tp912
g78
I00
g52
tp913
bsg82
g892
sasstp914
bsg84
g85
sg15
NsbsF90.0
g7
(g8
g9
Ntp915
Rp916
(dp917
g13
g14
sg16
g7
(g17
g9
Ntp918
Rp919
((lp920
g21
(g22
(dp921
g24
g25
(g26
(I0
tp922
g28
tp923
Rp924
(I1
(I0
tp925
g35
I00
(lp926
tp927
bsg15
Nstp928
Rp929
a(lp930
g25
(g26
(I0
tp931
g28
tp932
Rp933
(I1
(I0
tp934
g49
I00
g52
tp935
ba(lp936
g21
(g22
(dp937
g24
g25
(g26
(I0
tp938
g28
tp939
Rp940
(I1
(I0
tp941
g35
I00
(lp942
tp943
bsg15
Nstp944
Rp945
a(dp946
g65
(dp947
g67
g920
sg68
(lp948
(dp949
g71
g25
(g26
(I0
tp950
g28
tp951
Rp952
(I1
(I0
tp953
g78
I00
g52
tp954
bsg82
g933
sasstp955
bsg84
g85
sg15
NsbsF70.0
g7
(g8
g9
Ntp956
Rp957
(dp958
g13
g14
sg16
g7
(g17
g9
Ntp959
Rp960
((lp961
g21
(g22
(dp962
g24
g25
(g26
(I0
tp963
g28
tp964
Rp965
(I1
(I0
tp966
g35
I00
(lp967
tp968
bsg15
Nstp969
Rp970
a(lp971
g25
(g26
(I0
tp972
g28
tp973
Rp974
(I1
(I0
tp975
g49
I00
g52
tp976
ba(lp977
g21
(g22
(dp978
g24
g25
(g26
(I0
tp979
g28
tp980
Rp981
(I1
(I0
tp982
g35
I00
(lp983
tp984
bsg15
Nstp985
Rp986
a(dp987
g65
(dp988
g67
g961
sg68
(lp989
(dp990
g71
g25
(g26
(I0
tp991
g28
tp992
Rp993
(I1
(I0
tp994
g78
I00
g52
tp995
bsg82
g974
sasstp996
bsg84
g85
sg15
NsbsF50.0
g7
(g8
g9
Ntp997
Rp998
(dp999
g13
g14
sg16
g7
(g17
g9
Ntp1000
Rp1001
((lp1002
g21
(g22
(dp1003
g24
g25
(g26
(I0
tp1004
g28
tp1005
Rp1006
(I1
(I0
tp1007
g35
I00
(lp1008
tp1009
bsg15
Nstp1010
Rp1011
a(lp1012
g25
(g26
(I0
tp1013
g28
tp1014
Rp1015
(I1
(I0
tp1016
g49
I00
g52
tp1017
ba(lp1018
g21
(g22
(dp1019
g24
g25
(g26
(I0
tp1020
g28
tp1021
Rp1022
(I1
(I0
tp1023
g35
I00
(lp1024
tp1025
bsg15
Nstp1026
Rp1027
a(dp1028
g65
(dp1029
g67
g1002
sg68
(lp1030
(dp1031
g71
g25
(g26
(I0
tp1032
g28
tp1033
Rp1034
(I1
(I0
tp1035
g78
I00
g52
tp1036
bsg82
g1015
sasstp1037
bsg84
g85
sg15
NsbsF30.0
g7
(g8
g9
Ntp1038
Rp1039
(dp1040
g13
g14
sg16
g7
(g17
g9
Ntp1041
Rp1042
((lp1043
g21
(g22
(dp1044
g24
g25
(g26
(I0
tp1045
g28
tp1046
Rp1047
(I1
(I0
tp1048
g35
I00
(lp1049
tp1050
bsg15
Nstp1051
Rp1052
a(lp1053
g25
(g26
(I0
tp1054
g28
tp1055
Rp1056
(I1
(I0
tp1057
g49
I00
g52
tp1058
ba(lp1059
g21
(g22
(dp1060
g24
g25
(g26
(I0
tp1061
g28
tp1062
Rp1063
(I1
(I0
tp1064
g35
I00
(lp1065
tp1066
bsg15
Nstp1067
Rp1068
a(dp1069
g65
(dp1070
g67
g1043
sg68
(lp1071
(dp1072
g71
g25
(g26
(I0
tp1073
g28
tp1074
Rp1075
(I1
(I0
tp1076
g78
I00
g52
tp1077
bsg82
g1056
sasstp1078
bsg84
g85
sg15
Nsbssg250
(dp1079
F10.0
g7
(g8
g9
Ntp1080
Rp1081
(dp1082
g13
g14
sg16
g7
(g17
g9
Ntp1083
Rp1084
((lp1085
g21
(g22
(dp1086
g24
g25
(g26
(I0
tp1087
g28
tp1088
Rp1089
(I1
(I0
tp1090
g35
I00
(lp1091
tp1092
bsg15
Nstp1093
Rp1094
a(lp1095
g25
(g26
(I0
tp1096
g28
tp1097
Rp1098
(I1
(I0
tp1099
g49
I00
g52
tp1100
ba(lp1101
g21
(g22
(dp1102
g24
g25
(g26
(I0
tp1103
g28
tp1104
Rp1105
(I1
(I0
tp1106
g35
I00
(lp1107
tp1108
bsg15
Nstp1109
Rp1110
a(dp1111
g65
(dp1112
g67
g1085
sg68
(lp1113
(dp1114
g71
g25
(g26
(I0
tp1115
g28
tp1116
Rp1117
(I1
(I0
tp1118
g78
I00
g52
tp1119
bsg82
g1098
sasstp1120
bsg84
g85
sg15
NsbsF90.0
g7
(g8
g9
Ntp1121
Rp1122
(dp1123
g13
g14
sg16
g7
(g17
g9
Ntp1124
Rp1125
((lp1126
g21
(g22
(dp1127
g24
g25
(g26
(I0
tp1128
g28
tp1129
Rp1130
(I1
(I0
tp1131
g35
I00
(lp1132
tp1133
bsg15
Nstp1134
Rp1135
a(lp1136
g25
(g26
(I0
tp1137
g28
tp1138
Rp1139
(I1
(I0
tp1140
g49
I00
g52
tp1141
ba(lp1142
g21
(g22
(dp1143
g24
g25
(g26
(I0
tp1144
g28
tp1145
Rp1146
(I1
(I0
tp1147
g35
I00
(lp1148
tp1149
bsg15
Nstp1150
Rp1151
a(dp1152
g65
(dp1153
g67
g1126
sg68
(lp1154
(dp1155
g71
g25
(g26
(I0
tp1156
g28
tp1157
Rp1158
(I1
(I0
tp1159
g78
I00
g52
tp1160
bsg82
g1139
sasstp1161
bsg84
g85
sg15
NsbsF70.0
g7
(g8
g9
Ntp1162
Rp1163
(dp1164
g13
g14
sg16
g7
(g17
g9
Ntp1165
Rp1166
((lp1167
g21
(g22
(dp1168
g24
g25
(g26
(I0
tp1169
g28
tp1170
Rp1171
(I1
(I0
tp1172
g35
I00
(lp1173
tp1174
bsg15
Nstp1175
Rp1176
a(lp1177
g25
(g26
(I0
tp1178
g28
tp1179
Rp1180
(I1
(I0
tp1181
g49
I00
g52
tp1182
ba(lp1183
g21
(g22
(dp1184
g24
g25
(g26
(I0
tp1185
g28
tp1186
Rp1187
(I1
(I0
tp1188
g35
I00
(lp1189
tp1190
bsg15
Nstp1191
Rp1192
a(dp1193
g65
(dp1194
g67
g1167
sg68
(lp1195
(dp1196
g71
g25
(g26
(I0
tp1197
g28
tp1198
Rp1199
(I1
(I0
tp1200
g78
I00
g52
tp1201
bsg82
g1180
sasstp1202
bsg84
g85
sg15
NsbsF50.0
g7
(g8
g9
Ntp1203
Rp1204
(dp1205
g13
g14
sg16
g7
(g17
g9
Ntp1206
Rp1207
((lp1208
g21
(g22
(dp1209
g24
g25
(g26
(I0
tp1210
g28
tp1211
Rp1212
(I1
(I0
tp1213
g35
I00
(lp1214
tp1215
bsg15
Nstp1216
Rp1217
a(lp1218
g25
(g26
(I0
tp1219
g28
tp1220
Rp1221
(I1
(I0
tp1222
g49
I00
g52
tp1223
ba(lp1224
g21
(g22
(dp1225
g24
g25
(g26
(I0
tp1226
g28
tp1227
Rp1228
(I1
(I0
tp1229
g35
I00
(lp1230
tp1231
bsg15
Nstp1232
Rp1233
a(dp1234
g65
(dp1235
g67
g1208
sg68
(lp1236
(dp1237
g71
g25
(g26
(I0
tp1238
g28
tp1239
Rp1240
(I1
(I0
tp1241
g78
I00
g52
tp1242
bsg82
g1221
sasstp1243
bsg84
g85
sg15
NsbsF30.0
g7
(g8
g9
Ntp1244
Rp1245
(dp1246
g13
g14
sg16
g7
(g17
g9
Ntp1247
Rp1248
((lp1249
g21
(g22
(dp1250
g24
g25
(g26
(I0
tp1251
g28
tp1252
Rp1253
(I1
(I0
tp1254
g35
I00
(lp1255
tp1256
bsg15
Nstp1257
Rp1258
a(lp1259
g25
(g26
(I0
tp1260
g28
tp1261
Rp1262
(I1
(I0
tp1263
g49
I00
g52
tp1264
ba(lp1265
g21
(g22
(dp1266
g24
g25
(g26
(I0
tp1267
g28
tp1268
Rp1269
(I1
(I0
tp1270
g35
I00
(lp1271
tp1272
bsg15
Nstp1273
Rp1274
a(dp1275
g65
(dp1276
g67
g1249
sg68
(lp1277
(dp1278
g71
g25
(g26
(I0
tp1279
g28
tp1280
Rp1281
(I1
(I0
tp1282
g78
I00
g52
tp1283
bsg82
g1262
sasstp1284
bsg84
g85
sg15
Nsbsssg457
(dp1285
g5
(dp1286
F10.0
g7
(g8
g9
Ntp1287
Rp1288
(dp1289
g13
g14
sg16
g7
(g17
g9
Ntp1290
Rp1291
((lp1292
g21
(g22
(dp1293
g24
g25
(g26
(I0
tp1294
g28
tp1295
Rp1296
(I1
(I6
tp1297
g35
I00
(lp1298
S'dw'
p1299
aS'fridge'
p1300
aS'hvac'
p1301
aS'mw'
p1302
aS'oven'
p1303
aS'wm'
p1304
atp1305
bsg15
Nstp1306
Rp1307
a(lp1308
g25
(g26
(I0
tp1309
g28
tp1310
Rp1311
(I1
(I6
tp1312
g49
I00
S'\xe5\xcfq\xc4{\x00\x02@\x18\xe8\x8e\x19\x01\x15 @\x01\xaf\xe6\xbe\xcd\x1e6@\xc6\x94\x16D\xe1Q\x00@\x16\x10\x9f]\xa4\x9a\x06@\xee\xf2\xaf\xb7C5\xe8?'
p1313
tp1314
ba(lp1315
g21
(g22
(dp1316
g24
g25
(g26
(I0
tp1317
g28
tp1318
Rp1319
(I1
(I6
tp1320
g35
I00
(lp1321
g1299
ag1300
ag1301
ag1302
ag1303
ag1304
atp1322
bsg15
Nstp1323
Rp1324
a(dp1325
g65
(dp1326
g67
g1292
sg68
(lp1327
(dp1328
g71
c__builtin__
slice
p1329
(I0
I6
I1
tp1330
Rp1331
sg82
g1311
sasstp1332
bsg84
g85
sg15
NsbsF90.0
g7
(g8
g9
Ntp1333
Rp1334
(dp1335
g13
g14
sg16
g7
(g17
g9
Ntp1336
Rp1337
((lp1338
g21
(g22
(dp1339
g24
g25
(g26
(I0
tp1340
g28
tp1341
Rp1342
(I1
(I6
tp1343
g35
I00
(lp1344
g1299
ag1300
ag1301
ag1302
ag1303
ag1304
atp1345
bsg15
Nstp1346
Rp1347
a(lp1348
g25
(g26
(I0
tp1349
g28
tp1350
Rp1351
(I1
(I6
tp1352
g49
I00
S'\x9a\x1f\xbd1Q\xaa\xfe?8\xa7"}\xf5I!@\x001x\xf0\n\xc0/@mN`Z\xd1\'\x00@]\\\xb4\x1f;w\x01@\xb8r\x15\xdd\xb7m\xe7?'
p1353
tp1354
ba(lp1355
g21
(g22
(dp1356
g24
g25
(g26
(I0
tp1357
g28
tp1358
Rp1359
(I1
(I6
tp1360
g35
I00
(lp1361
g1299
ag1300
ag1301
ag1302
ag1303
ag1304
atp1362
bsg15
Nstp1363
Rp1364
a(dp1365
g65
(dp1366
g67
g1338
sg68
(lp1367
(dp1368
g71
g1329
(I0
I6
I1
tp1369
Rp1370
sg82
g1351
sasstp1371
bsg84
g85
sg15
NsbsF70.0
g7
(g8
g9
Ntp1372
Rp1373
(dp1374
g13
g14
sg16
g7
(g17
g9
Ntp1375
Rp1376
((lp1377
g21
(g22
(dp1378
g24
g25
(g26
(I0
tp1379
g28
tp1380
Rp1381
(I1
(I6
tp1382
g35
I00
(lp1383
g1299
ag1300
ag1301
ag1302
ag1303
ag1304
atp1384
bsg15
Nstp1385
Rp1386
a(lp1387
g25
(g26
(I0
tp1388
g28
tp1389
Rp1390
(I1
(I6
tp1391
g49
I00
S'e\xa8\xc9)\xbbY\x01@\x03DK\x81\xb27 @\x06 \xc4^\xe0\x0c0@\xf6N\x9b\xc2D\xed\xfe?_\x95\xd6\xd0a\x13\x03@\x97\xb8\xcc\xfdYS\xe8?'
p1392
tp1393
ba(lp1394
g21
(g22
(dp1395
g24
g25
(g26
(I0
tp1396
g28
tp1397
Rp1398
(I1
(I6
tp1399
g35
I00
(lp1400
g1299
ag1300
ag1301
ag1302
ag1303
ag1304
atp1401
bsg15
Nstp1402
Rp1403
a(dp1404
g65
(dp1405
g67
g1377
sg68
(lp1406
(dp1407
g71
g1329
(I0
I6
I1
tp1408
Rp1409
sg82
g1390
sasstp1410
bsg84
g85
sg15
NsbsF50.0
g7
(g8
g9
Ntp1411
Rp1412
(dp1413
g13
g14
sg16
g7
(g17
g9
Ntp1414
Rp1415
((lp1416
g21
(g22
(dp1417
g24
g25
(g26
(I0
tp1418
g28
tp1419
Rp1420
(I1
(I6
tp1421
g35
I00
(lp1422
g1299
ag1300
ag1301
ag1302
ag1303
ag1304
atp1423
bsg15
Nstp1424
Rp1425
a(lp1426
g25
(g26
(I0
tp1427
g28
tp1428
Rp1429
(I1
(I6
tp1430
g49
I00
S'\xf5\xe0\xef\xba\xa5\x12\x00@W\xf3\xcb!\x1aW!@3\xf1\x1d\xeb1\xa9/@\xb6O\x06\\J\xed\xff?\xa8\xef,\xff\xe5~\x02@\xc0\xbfk\xcb\xc3\xfa\xe7?'
p1431
tp1432
ba(lp1433
g21
(g22
(dp1434
g24
g25
(g26
(I0
tp1435
g28
tp1436
Rp1437
(I1
(I6
tp1438
g35
I00
(lp1439
g1299
ag1300
ag1301
ag1302
ag1303
ag1304
atp1440
bsg15
Nstp1441
Rp1442
a(dp1443
g65
(dp1444
g67
g1416
sg68
(lp1445
(dp1446
g71
g1329
(I0
I6
I1
tp1447
Rp1448
sg82
g1429
sasstp1449
bsg84
g85
sg15
NsbsF30.0
g7
(g8
g9
Ntp1450
Rp1451
(dp1452
g13
g14
sg16
g7
(g17
g9
Ntp1453
Rp1454
((lp1455
g21
(g22
(dp1456
g24
g25
(g26
(I0
tp1457
g28
tp1458
Rp1459
(I1
(I6
tp1460
g35
I00
(lp1461
g1299
ag1300
ag1301
ag1302
ag1303
ag1304
atp1462
bsg15
Nstp1463
Rp1464
a(lp1465
g25
(g26
(I0
tp1466
g28
tp1467
Rp1468
(I1
(I6
tp1469
g49
I00
S'\xf4\xac\x126\x19j\x00@g\x88\xbc\xbe\xa8\xc0 @E\xf5|P\xe9\x061@\xa8\xdeh\xbc0J\x00@\xac]\xf2\xe8\x00y\x03@\x99\xf1M\xe9\xad\x89\xe9?'
p1470
tp1471
ba(lp1472
g21
(g22
(dp1473
g24
g25
(g26
(I0
tp1474
g28
tp1475
Rp1476
(I1
(I6
tp1477
g35
I00
(lp1478
g1299
ag1300
ag1301
ag1302
ag1303
ag1304
atp1479
bsg15
Nstp1480
Rp1481
a(dp1482
g65
(dp1483
g67
g1455
sg68
(lp1484
(dp1485
g71
g1329
(I0
I6
I1
tp1486
Rp1487
sg82
g1468
sasstp1488
bsg84
g85
sg15
Nsbssg250
(dp1489
F10.0
g7
(g8
g9
Ntp1490
Rp1491
(dp1492
g13
g14
sg16
g7
(g17
g9
Ntp1493
Rp1494
((lp1495
g21
(g22
(dp1496
g24
g25
(g26
(I0
tp1497
g28
tp1498
Rp1499
(I1
(I0
tp1500
g35
I00
(lp1501
tp1502
bsg15
Nstp1503
Rp1504
a(lp1505
g25
(g26
(I0
tp1506
g28
tp1507
Rp1508
(I1
(I0
tp1509
g49
I00
g52
tp1510
ba(lp1511
g21
(g22
(dp1512
g24
g25
(g26
(I0
tp1513
g28
tp1514
Rp1515
(I1
(I0
tp1516
g35
I00
(lp1517
tp1518
bsg15
Nstp1519
Rp1520
a(dp1521
g65
(dp1522
g67
g1495
sg68
(lp1523
(dp1524
g71
g25
(g26
(I0
tp1525
g28
tp1526
Rp1527
(I1
(I0
tp1528
g78
I00
g52
tp1529
bsg82
g1508
sasstp1530
bsg84
g85
sg15
NsbsF90.0
g7
(g8
g9
Ntp1531
Rp1532
(dp1533
g13
g14
sg16
g7
(g17
g9
Ntp1534
Rp1535
((lp1536
g21
(g22
(dp1537
g24
g25
(g26
(I0
tp1538
g28
tp1539
Rp1540
(I1
(I0
tp1541
g35
I00
(lp1542
tp1543
bsg15
Nstp1544
Rp1545
a(lp1546
g25
(g26
(I0
tp1547
g28
tp1548
Rp1549
(I1
(I0
tp1550
g49
I00
g52
tp1551
ba(lp1552
g21
(g22
(dp1553
g24
g25
(g26
(I0
tp1554
g28
tp1555
Rp1556
(I1
(I0
tp1557
g35
I00
(lp1558
tp1559
bsg15
Nstp1560
Rp1561
a(dp1562
g65
(dp1563
g67
g1536
sg68
(lp1564
(dp1565
g71
g25
(g26
(I0
tp1566
g28
tp1567
Rp1568
(I1
(I0
tp1569
g78
I00
g52
tp1570
bsg82
g1549
sasstp1571
bsg84
g85
sg15
NsbsF70.0
g7
(g8
g9
Ntp1572
Rp1573
(dp1574
g13
g14
sg16
g7
(g17
g9
Ntp1575
Rp1576
((lp1577
g21
(g22
(dp1578
g24
g25
(g26
(I0
tp1579
g28
tp1580
Rp1581
(I1
(I0
tp1582
g35
I00
(lp1583
tp1584
bsg15
Nstp1585
Rp1586
a(lp1587
g25
(g26
(I0
tp1588
g28
tp1589
Rp1590
(I1
(I0
tp1591
g49
I00
g52
tp1592
ba(lp1593
g21
(g22
(dp1594
g24
g25
(g26
(I0
tp1595
g28
tp1596
Rp1597
(I1
(I0
tp1598
g35
I00
(lp1599
tp1600
bsg15
Nstp1601
Rp1602
a(dp1603
g65
(dp1604
g67
g1577
sg68
(lp1605
(dp1606
g71
g25
(g26
(I0
tp1607
g28
tp1608
Rp1609
(I1
(I0
tp1610
g78
I00
g52
tp1611
bsg82
g1590
sasstp1612
bsg84
g85
sg15
NsbsF50.0
g7
(g8
g9
Ntp1613
Rp1614
(dp1615
g13
g14
sg16
g7
(g17
g9
Ntp1616
Rp1617
((lp1618
g21
(g22
(dp1619
g24
g25
(g26
(I0
tp1620
g28
tp1621
Rp1622
(I1
(I0
tp1623
g35
I00
(lp1624
tp1625
bsg15
Nstp1626
Rp1627
a(lp1628
g25
(g26
(I0
tp1629
g28
tp1630
Rp1631
(I1
(I0
tp1632
g49
I00
g52
tp1633
ba(lp1634
g21
(g22
(dp1635
g24
g25
(g26
(I0
tp1636
g28
tp1637
Rp1638
(I1
(I0
tp1639
g35
I00
(lp1640
tp1641
bsg15
Nstp1642
Rp1643
a(dp1644
g65
(dp1645
g67
g1618
sg68
(lp1646
(dp1647
g71
g25
(g26
(I0
tp1648
g28
tp1649
Rp1650
(I1
(I0
tp1651
g78
I00
g52
tp1652
bsg82
g1631
sasstp1653
bsg84
g85
sg15
NsbsF30.0
g7
(g8
g9
Ntp1654
Rp1655
(dp1656
g13
g14
sg16
g7
(g17
g9
Ntp1657
Rp1658
((lp1659
g21
(g22
(dp1660
g24
g25
(g26
(I0
tp1661
g28
tp1662
Rp1663
(I1
(I0
tp1664
g35
I00
(lp1665
tp1666
bsg15
Nstp1667
Rp1668
a(lp1669
g25
(g26
(I0
tp1670
g28
tp1671
Rp1672
(I1
(I0
tp1673
g49
I00
g52
tp1674
ba(lp1675
g21
(g22
(dp1676
g24
g25
(g26
(I0
tp1677
g28
tp1678
Rp1679
(I1
(I0
tp1680
g35
I00
(lp1681
tp1682
bsg15
Nstp1683
Rp1684
a(dp1685
g65
(dp1686
g67
g1659
sg68
(lp1687
(dp1688
g71
g25
(g26
(I0
tp1689
g28
tp1690
Rp1691
(I1
(I0
tp1692
g78
I00
g52
tp1693
bsg82
g1672
sasstp1694
bsg84
g85
sg15
NsbsssssI4
(dp1695
g2
(dp1696
g2
(dp1697
g5
(dp1698
F10.0
g7
(g8
g9
Ntp1699
Rp1700
(dp1701
g13
g14
sg16
g7
(g17
g9
Ntp1702
Rp1703
((lp1704
g21
(g22
(dp1705
g24
g25
(g26
(I0
tp1706
g28
tp1707
Rp1708
(I1
(I0
tp1709
g35
I00
(lp1710
tp1711
bsg15
Nstp1712
Rp1713
a(lp1714
g25
(g26
(I0
tp1715
g28
tp1716
Rp1717
(I1
(I0
tp1718
g49
I00
g52
tp1719
ba(lp1720
g21
(g22
(dp1721
g24
g25
(g26
(I0
tp1722
g28
tp1723
Rp1724
(I1
(I0
tp1725
g35
I00
(lp1726
tp1727
bsg15
Nstp1728
Rp1729
a(dp1730
g65
(dp1731
g67
g1704
sg68
(lp1732
(dp1733
g71
g25
(g26
(I0
tp1734
g28
tp1735
Rp1736
(I1
(I0
tp1737
g78
I00
g52
tp1738
bsg82
g1717
sasstp1739
bsg84
g85
sg15
NsbsF90.0
g7
(g8
g9
Ntp1740
Rp1741
(dp1742
g13
g14
sg16
g7
(g17
g9
Ntp1743
Rp1744
((lp1745
g21
(g22
(dp1746
g24
g25
(g26
(I0
tp1747
g28
tp1748
Rp1749
(I1
(I0
tp1750
g35
I00
(lp1751
tp1752
bsg15
Nstp1753
Rp1754
a(lp1755
g25
(g26
(I0
tp1756
g28
tp1757
Rp1758
(I1
(I0
tp1759
g49
I00
g52
tp1760
ba(lp1761
g21
(g22
(dp1762
g24
g25
(g26
(I0
tp1763
g28
tp1764
Rp1765
(I1
(I0
tp1766
g35
I00
(lp1767
tp1768
bsg15
Nstp1769
Rp1770
a(dp1771
g65
(dp1772
g67
g1745
sg68
(lp1773
(dp1774
g71
g25
(g26
(I0
tp1775
g28
tp1776
Rp1777
(I1
(I0
tp1778
g78
I00
g52
tp1779
bsg82
g1758
sasstp1780
bsg84
g85
sg15
NsbsF70.0
g7
(g8
g9
Ntp1781
Rp1782
(dp1783
g13
g14
sg16
g7
(g17
g9
Ntp1784
Rp1785
((lp1786
g21
(g22
(dp1787
g24
g25
(g26
(I0
tp1788
g28
tp1789
Rp1790
(I1
(I0
tp1791
g35
I00
(lp1792
tp1793
bsg15
Nstp1794
Rp1795
a(lp1796
g25
(g26
(I0
tp1797
g28
tp1798
Rp1799
(I1
(I0
tp1800
g49
I00
g52
tp1801
ba(lp1802
g21
(g22
(dp1803
g24
g25
(g26
(I0
tp1804
g28
tp1805
Rp1806
(I1
(I0
tp1807
g35
I00
(lp1808
tp1809
bsg15
Nstp1810
Rp1811
a(dp1812
g65
(dp1813
g67
g1786
sg68
(lp1814
(dp1815
g71
g25
(g26
(I0
tp1816
g28
tp1817
Rp1818
(I1
(I0
tp1819
g78
I00
g52
tp1820
bsg82
g1799
sasstp1821
bsg84
g85
sg15
NsbsF50.0
g7
(g8
g9
Ntp1822
Rp1823
(dp1824
g13
g14
sg16
g7
(g17
g9
Ntp1825
Rp1826
((lp1827
g21
(g22
(dp1828
g24
g25
(g26
(I0
tp1829
g28
tp1830
Rp1831
(I1
(I0
tp1832
g35
I00
(lp1833
tp1834
bsg15
Nstp1835
Rp1836
a(lp1837
g25
(g26
(I0
tp1838
g28
tp1839
Rp1840
(I1
(I0
tp1841
g49
I00
g52
tp1842
ba(lp1843
g21
(g22
(dp1844
g24
g25
(g26
(I0
tp1845
g28
tp1846
Rp1847
(I1
(I0
tp1848
g35
I00
(lp1849
tp1850
bsg15
Nstp1851
Rp1852
a(dp1853
g65
(dp1854
g67
g1827
sg68
(lp1855
(dp1856
g71
g25
(g26
(I0
tp1857
g28
tp1858
Rp1859
(I1
(I0
tp1860
g78
I00
g52
tp1861
bsg82
g1840
sasstp1862
bsg84
g85
sg15
NsbsF30.0
g7
(g8
g9
Ntp1863
Rp1864
(dp1865
g13
g14
sg16
g7
(g17
g9
Ntp1866
Rp1867
((lp1868
g21
(g22
(dp1869
g24
g25
(g26
(I0
tp1870
g28
tp1871
Rp1872
(I1
(I0
tp1873
g35
I00
(lp1874
tp1875
bsg15
Nstp1876
Rp1877
a(lp1878
g25
(g26
(I0
tp1879
g28
tp1880
Rp1881
(I1
(I0
tp1882
g49
I00
g52
tp1883
ba(lp1884
g21
(g22
(dp1885
g24
g25
(g26
(I0
tp1886
g28
tp1887
Rp1888
(I1
(I0
tp1889
g35
I00
(lp1890
tp1891
bsg15
Nstp1892
Rp1893
a(dp1894
g65
(dp1895
g67
g1868
sg68
(lp1896
(dp1897
g71
g25
(g26
(I0
tp1898
g28
tp1899
Rp1900
(I1
(I0
tp1901
g78
I00
g52
tp1902
bsg82
g1881
sasstp1903
bsg84
g85
sg15
Nsbssg250
(dp1904
F10.0
g7
(g8
g9
Ntp1905
Rp1906
(dp1907
g13
g14
sg16
g7
(g17
g9
Ntp1908
Rp1909
((lp1910
g21
(g22
(dp1911
g24
g25
(g26
(I0
tp1912
g28
tp1913
Rp1914
(I1
(I0
tp1915
g35
I00
(lp1916
tp1917
bsg15
Nstp1918
Rp1919
a(lp1920
g25
(g26
(I0
tp1921
g28
tp1922
Rp1923
(I1
(I0
tp1924
g49
I00
g52
tp1925
ba(lp1926
g21
(g22
(dp1927
g24
g25
(g26
(I0
tp1928
g28
tp1929
Rp1930
(I1
(I0
tp1931
g35
I00
(lp1932
tp1933
bsg15
Nstp1934
Rp1935
a(dp1936
g65
(dp1937
g67
g1910
sg68
(lp1938
(dp1939
g71
g25
(g26
(I0
tp1940
g28
tp1941
Rp1942
(I1
(I0
tp1943
g78
I00
g52
tp1944
bsg82
g1923
sasstp1945
bsg84
g85
sg15
NsbsF90.0
g7
(g8
g9
Ntp1946
Rp1947
(dp1948
g13
g14
sg16
g7
(g17
g9
Ntp1949
Rp1950
((lp1951
g21
(g22
(dp1952
g24
g25
(g26
(I0
tp1953
g28
tp1954
Rp1955
(I1
(I0
tp1956
g35
I00
(lp1957
tp1958
bsg15
Nstp1959
Rp1960
a(lp1961
g25
(g26
(I0
tp1962
g28
tp1963
Rp1964
(I1
(I0
tp1965
g49
I00
g52
tp1966
ba(lp1967
g21
(g22
(dp1968
g24
g25
(g26
(I0
tp1969
g28
tp1970
Rp1971
(I1
(I0
tp1972
g35
I00
(lp1973
tp1974
bsg15
Nstp1975
Rp1976
a(dp1977
g65
(dp1978
g67
g1951
sg68
(lp1979
(dp1980
g71
g25
(g26
(I0
tp1981
g28
tp1982
Rp1983
(I1
(I0
tp1984
g78
I00
g52
tp1985
bsg82
g1964
sasstp1986
bsg84
g85
sg15
NsbsF70.0
g7
(g8
g9
Ntp1987
Rp1988
(dp1989
g13
g14
sg16
g7
(g17
g9
Ntp1990
Rp1991
((lp1992
g21
(g22
(dp1993
g24
g25
(g26
(I0
tp1994
g28
tp1995
Rp1996
(I1
(I0
tp1997
g35
I00
(lp1998
tp1999
bsg15
Nstp2000
Rp2001
a(lp2002
g25
(g26
(I0
tp2003
g28
tp2004
Rp2005
(I1
(I0
tp2006
g49
I00
g52
tp2007
ba(lp2008
g21
(g22
(dp2009
g24
g25
(g26
(I0
tp2010
g28
tp2011
Rp2012
(I1
(I0
tp2013
g35
I00
(lp2014
tp2015
bsg15
Nstp2016
Rp2017
a(dp2018
g65
(dp2019
g67
g1992
sg68
(lp2020
(dp2021
g71
g25
(g26
(I0
tp2022
g28
tp2023
Rp2024
(I1
(I0
tp2025
g78
I00
g52
tp2026
bsg82
g2005
sasstp2027
bsg84
g85
sg15
NsbsF50.0
g7
(g8
g9
Ntp2028
Rp2029
(dp2030
g13
g14
sg16
g7
(g17
g9
Ntp2031
Rp2032
((lp2033
g21
(g22
(dp2034
g24
g25
(g26
(I0
tp2035
g28
tp2036
Rp2037
(I1
(I0
tp2038
g35
I00
(lp2039
tp2040
bsg15
Nstp2041
Rp2042
a(lp2043
g25
(g26
(I0
tp2044
g28
tp2045
Rp2046
(I1
(I0
tp2047
g49
I00
g52
tp2048
ba(lp2049
g21
(g22
(dp2050
g24
g25
(g26
(I0
tp2051
g28
tp2052
Rp2053
(I1
(I0
tp2054
g35
I00
(lp2055
tp2056
bsg15
Nstp2057
Rp2058
a(dp2059
g65
(dp2060
g67
g2033
sg68
(lp2061
(dp2062
g71
g25
(g26
(I0
tp2063
g28
tp2064
Rp2065
(I1
(I0
tp2066
g78
I00
g52
tp2067
bsg82
g2046
sasstp2068
bsg84
g85
sg15
NsbsF30.0
g7
(g8
g9
Ntp2069
Rp2070
(dp2071
g13
g14
sg16
g7
(g17
g9
Ntp2072
Rp2073
((lp2074
g21
(g22
(dp2075
g24
g25
(g26
(I0
tp2076
g28
tp2077
Rp2078
(I1
(I0
tp2079
g35
I00
(lp2080
tp2081
bsg15
Nstp2082
Rp2083
a(lp2084
g25
(g26
(I0
tp2085
g28
tp2086
Rp2087
(I1
(I0
tp2088
g49
I00
g52
tp2089
ba(lp2090
g21
(g22
(dp2091
g24
g25
(g26
(I0
tp2092
g28
tp2093
Rp2094
(I1
(I0
tp2095
g35
I00
(lp2096
tp2097
bsg15
Nstp2098
Rp2099
a(dp2100
g65
(dp2101
g67
g2074
sg68
(lp2102
(dp2103
g71
g25
(g26
(I0
tp2104
g28
tp2105
Rp2106
(I1
(I0
tp2107
g78
I00
g52
tp2108
bsg82
g2087
sasstp2109
bsg84
g85
sg15
Nsbsssg457
(dp2110
g5
(dp2111
F10.0
g7
(g8
g9
Ntp2112
Rp2113
(dp2114
g13
g14
sg16
g7
(g17
g9
Ntp2115
Rp2116
((lp2117
g21
(g22
(dp2118
g24
g25
(g26
(I0
tp2119
g28
tp2120
Rp2121
(I1
(I0
tp2122
g35
I00
(lp2123
tp2124
bsg15
Nstp2125
Rp2126
a(lp2127
g25
(g26
(I0
tp2128
g28
tp2129
Rp2130
(I1
(I0
tp2131
g49
I00
g52
tp2132
ba(lp2133
g21
(g22
(dp2134
g24
g25
(g26
(I0
tp2135
g28
tp2136
Rp2137
(I1
(I0
tp2138
g35
I00
(lp2139
tp2140
bsg15
Nstp2141
Rp2142
a(dp2143
g65
(dp2144
g67
g2117
sg68
(lp2145
(dp2146
g71
g25
(g26
(I0
tp2147
g28
tp2148
Rp2149
(I1
(I0
tp2150
g78
I00
g52
tp2151
bsg82
g2130
sasstp2152
bsg84
g85
sg15
NsbsF90.0
g7
(g8
g9
Ntp2153
Rp2154
(dp2155
g13
g14
sg16
g7
(g17
g9
Ntp2156
Rp2157
((lp2158
g21
(g22
(dp2159
g24
g25
(g26
(I0
tp2160
g28
tp2161
Rp2162
(I1
(I0
tp2163
g35
I00
(lp2164
tp2165
bsg15
Nstp2166
Rp2167
a(lp2168
g25
(g26
(I0
tp2169
g28
tp2170
Rp2171
(I1
(I0
tp2172
g49
I00
g52
tp2173
ba(lp2174
g21
(g22
(dp2175
g24
g25
(g26
(I0
tp2176
g28
tp2177
Rp2178
(I1
(I0
tp2179
g35
I00
(lp2180
tp2181
bsg15
Nstp2182
Rp2183
a(dp2184
g65
(dp2185
g67
g2158
sg68
(lp2186
(dp2187
g71
g25
(g26
(I0
tp2188
g28
tp2189
Rp2190
(I1
(I0
tp2191
g78
I00
g52
tp2192
bsg82
g2171
sasstp2193
bsg84
g85
sg15
NsbsF70.0
g7
(g8
g9
Ntp2194
Rp2195
(dp2196
g13
g14
sg16
g7
(g17
g9
Ntp2197
Rp2198
((lp2199
g21
(g22
(dp2200
g24
g25
(g26
(I0
tp2201
g28
tp2202
Rp2203
(I1
(I0
tp2204
g35
I00
(lp2205
tp2206
bsg15
Nstp2207
Rp2208
a(lp2209
g25
(g26
(I0
tp2210
g28
tp2211
Rp2212
(I1
(I0
tp2213
g49
I00
g52
tp2214
ba(lp2215
g21
(g22
(dp2216
g24
g25
(g26
(I0
tp2217
g28
tp2218
Rp2219
(I1
(I0
tp2220
g35
I00
(lp2221
tp2222
bsg15
Nstp2223
Rp2224
a(dp2225
g65
(dp2226
g67
g2199
sg68
(lp2227
(dp2228
g71
g25
(g26
(I0
tp2229
g28
tp2230
Rp2231
(I1
(I0
tp2232
g78
I00
g52
tp2233
bsg82
g2212
sasstp2234
bsg84
g85
sg15
NsbsF50.0
g7
(g8
g9
Ntp2235
Rp2236
(dp2237
g13
g14
sg16
g7
(g17
g9
Ntp2238
Rp2239
((lp2240
g21
(g22
(dp2241
g24
g25
(g26
(I0
tp2242
g28
tp2243
Rp2244
(I1
(I0
tp2245
g35
I00
(lp2246
tp2247
bsg15
Nstp2248
Rp2249
a(lp2250
g25
(g26
(I0
tp2251
g28
tp2252
Rp2253
(I1
(I0
tp2254
g49
I00
g52
tp2255
ba(lp2256
g21
(g22
(dp2257
g24
g25
(g26
(I0
tp2258
g28
tp2259
Rp2260
(I1
(I0
tp2261
g35
I00
(lp2262
tp2263
bsg15
Nstp2264
Rp2265
a(dp2266
g65
(dp2267
g67
g2240
sg68
(lp2268
(dp2269
g71
g25
(g26
(I0
tp2270
g28
tp2271
Rp2272
(I1
(I0
tp2273
g78
I00
g52
tp2274
bsg82
g2253
sasstp2275
bsg84
g85
sg15
NsbsF30.0
g7
(g8
g9
Ntp2276
Rp2277
(dp2278
g13
g14
sg16
g7
(g17
g9
Ntp2279
Rp2280
((lp2281
g21
(g22
(dp2282
g24
g25
(g26
(I0
tp2283
g28
tp2284
Rp2285
(I1
(I0
tp2286
g35
I00
(lp2287
tp2288
bsg15
Nstp2289
Rp2290
a(lp2291
g25
(g26
(I0
tp2292
g28
tp2293
Rp2294
(I1
(I0
tp2295
g49
I00
g52
tp2296
ba(lp2297
g21
(g22
(dp2298
g24
g25
(g26
(I0
tp2299
g28
tp2300
Rp2301
(I1
(I0
tp2302
g35
I00
(lp2303
tp2304
bsg15
Nstp2305
Rp2306
a(dp2307
g65
(dp2308
g67
g2281
sg68
(lp2309
(dp2310
g71
g25
(g26
(I0
tp2311
g28
tp2312
Rp2313
(I1
(I0
tp2314
g78
I00
g52
tp2315
bsg82
g2294
sasstp2316
bsg84
g85
sg15
Nsbssg250
(dp2317
F10.0
g7
(g8
g9
Ntp2318
Rp2319
(dp2320
g13
g14
sg16
g7
(g17
g9
Ntp2321
Rp2322
((lp2323
g21
(g22
(dp2324
g24
g25
(g26
(I0
tp2325
g28
tp2326
Rp2327
(I1
(I6
tp2328
g35
I00
(lp2329
g1299
ag1300
ag1301
ag1302
ag1303
ag1304
atp2330
bsg15
Nstp2331
Rp2332
a(lp2333
g25
(g26
(I0
tp2334
g28
tp2335
Rp2336
(I1
(I6
tp2337
g49
I00
S'\x1c\xdd&\xfcB\x13\x04@S\xeb\xab% \x90 @U\x95W\xdc\x9dv7@\x14\x1aA\x03\x9e\xf9\x00@\xbc\xebl\xf9\xdc#\x0b@\x84x (\x8b\x95\x08@'
p2338
tp2339
ba(lp2340
g21
(g22
(dp2341
g24
g25
(g26
(I0
tp2342
g28
tp2343
Rp2344
(I1
(I6
tp2345
g35
I00
(lp2346
g1299
ag1300
ag1301
ag1302
ag1303
ag1304
atp2347
bsg15
Nstp2348
Rp2349
a(dp2350
g65
(dp2351
g67
g2323
sg68
(lp2352
(dp2353
g71
g1329
(I0
I6
I1
tp2354
Rp2355
sg82
g2336
sasstp2356
bsg84
g85
sg15
NsbsF90.0
g7
(g8
g9
Ntp2357
Rp2358
(dp2359
g13
g14
sg16
g7
(g17
g9
Ntp2360
Rp2361
((lp2362
g21
(g22
(dp2363
g24
g25
(g26
(I0
tp2364
g28
tp2365
Rp2366
(I1
(I6
tp2367
g35
I00
(lp2368
g1299
ag1300
ag1301
ag1302
ag1303
ag1304
atp2369
bsg15
Nstp2370
Rp2371
a(lp2372
g25
(g26
(I0
tp2373
g28
tp2374
Rp2375
(I1
(I6
tp2376
g49
I00
S'<\xb4\xf5\x03\xc9E\xff?\xfe\x0c,9c\xbb\x1b@d9\x83r\xec\xcb1@p\xf9\xe7\'\x98\x1e\xfc?\x97\xa9"\x10|\x17\x02@\x02\xc2\x94D9\x94\xe7?'
p2377
tp2378
ba(lp2379
g21
(g22
(dp2380
g24
g25
(g26
(I0
tp2381
g28
tp2382
Rp2383
(I1
(I6
tp2384
g35
I00
(lp2385
g1299
ag1300
ag1301
ag1302
ag1303
ag1304
atp2386
bsg15
Nstp2387
Rp2388
a(dp2389
g65
(dp2390
g67
g2362
sg68
(lp2391
(dp2392
g71
g1329
(I0
I6
I1
tp2393
Rp2394
sg82
g2375
sasstp2395
bsg84
g85
sg15
NsbsF70.0
g7
(g8
g9
Ntp2396
Rp2397
(dp2398
g13
g14
sg16
g7
(g17
g9
Ntp2399
Rp2400
((lp2401
g21
(g22
(dp2402
g24
g25
(g26
(I0
tp2403
g28
tp2404
Rp2405
(I1
(I6
tp2406
g35
I00
(lp2407
g1299
ag1300
ag1301
ag1302
ag1303
ag1304
atp2408
bsg15
Nstp2409
Rp2410
a(lp2411
g25
(g26
(I0
tp2412
g28
tp2413
Rp2414
(I1
(I6
tp2415
g49
I00
S'\xb4\xa2\xfcB\xc7t\xff?B\xf8\x1e\xff"\x95\x1b@\x86\xbd\xe0\xad\x1b\xe31@\x83\x00\xf5.\xaa\'\xfc?\xbd7/\x0c~\xb8\x01@\x84\xaa&q\xfd\xff\xe8?'
p2416
tp2417
ba(lp2418
g21
(g22
(dp2419
g24
g25
(g26
(I0
tp2420
g28
tp2421
Rp2422
(I1
(I6
tp2423
g35
I00
(lp2424
g1299
ag1300
ag1301
ag1302
ag1303
ag1304
atp2425
bsg15
Nstp2426
Rp2427
a(dp2428
g65
(dp2429
g67
g2401
sg68
(lp2430
(dp2431
g71
g1329
(I0
I6
I1
tp2432
Rp2433
sg82
g2414
sasstp2434
bsg84
g85
sg15
NsbsF50.0
g7
(g8
g9
Ntp2435
Rp2436
(dp2437
g13
g14
sg16
g7
(g17
g9
Ntp2438
Rp2439
((lp2440
g21
(g22
(dp2441
g24
g25
(g26
(I0
tp2442
g28
tp2443
Rp2444
(I1
(I6
tp2445
g35
I00
(lp2446
g1299
ag1300
ag1301
ag1302
ag1303
ag1304
atp2447
bsg15
Nstp2448
Rp2449
a(lp2450
g25
(g26
(I0
tp2451
g28
tp2452
Rp2453
(I1
(I6
tp2454
g49
I00
S'\x87\x9f\x93f;`\xff?\xf3RQ)\xcf=\x1d@z\xa8\xa5\xc2t*1@\x9ax\xa9 \xb8\xe7\xfb?B\x1b&\xa7bi\x02@\xb1t{~\xda\x83\xea?'
p2455
tp2456
ba(lp2457
g21
(g22
(dp2458
g24
g25
(g26
(I0
tp2459
g28
tp2460
Rp2461
(I1
(I6
tp2462
g35
I00
(lp2463
g1299
ag1300
ag1301
ag1302
ag1303
ag1304
atp2464
bsg15
Nstp2465
Rp2466
a(dp2467
g65
(dp2468
g67
g2440
sg68
(lp2469
(dp2470
g71
g1329
(I0
I6
I1
tp2471
Rp2472
sg82
g2453
sasstp2473
bsg84
g85
sg15
NsbsF30.0
g7
(g8
g9
Ntp2474
Rp2475
(dp2476
g13
g14
sg16
g7
(g17
g9
Ntp2477
Rp2478
((lp2479
g21
(g22
(dp2480
g24
g25
(g26
(I0
tp2481
g28
tp2482
Rp2483
(I1
(I6
tp2484
g35
I00
(lp2485
g1299
ag1300
ag1301
ag1302
ag1303
ag1304
atp2486
bsg15
Nstp2487
Rp2488
a(lp2489
g25
(g26
(I0
tp2490
g28
tp2491
Rp2492
(I1
(I6
tp2493
g49
I00
S"\x88#\x1e\x83\x801\x00@5\x1eg\x8f\xa4l\x1d@\xc5D\x80gA\x043@a'\xcaQX\x82\xfc?\x0b\xf8\xd8N3F\x02@\x8b\x05]\x10F\xef\xeb?"
p2494
tp2495
ba(lp2496
g21
(g22
(dp2497
g24
g25
(g26
(I0
tp2498
g28
tp2499
Rp2500
(I1
(I6
tp2501
g35
I00
(lp2502
g1299
ag1300
ag1301
ag1302
ag1303
ag1304
atp2503
bsg15
Nstp2504
Rp2505
a(dp2506
g65
(dp2507
g67
g2479
sg68
(lp2508
(dp2509
g71
g1329
(I0
I6
I1
tp2510
Rp2511
sg82
g2492
sasstp2512
bsg84
g85
sg15
Nsbssssg457
(dp2513
g2
(dp2514
g5
(dp2515
F10.0
g7
(g8
g9
Ntp2516
Rp2517
(dp2518
g13
g14
sg16
g7
(g17
g9
Ntp2519
Rp2520
((lp2521
g21
(g22
(dp2522
g24
g25
(g26
(I0
tp2523
g28
tp2524
Rp2525
(I1
(I6
tp2526
g35
I00
(lp2527
g1299
ag1300
ag1301
ag1302
ag1303
ag1304
atp2528
bsg15
Nstp2529
Rp2530
a(lp2531
g25
(g26
(I0
tp2532
g28
tp2533
Rp2534
(I1
(I6
tp2535
g49
I00
S'J\xe9j\xe4\x01u\xfe?\x94P\xe7\x0c|\x15%@!qs\xa4\xe0\xed6@\x94d\xe4\xa5\x8cS\x00@|\x99\x98\xc6.\xa5\x05@t\x7f\xde\x92\xb6r\xe9?'
p2536
tp2537
ba(lp2538
g21
(g22
(dp2539
g24
g25
(g26
(I0
tp2540
g28
tp2541
Rp2542
(I1
(I6
tp2543
g35
I00
(lp2544
g1299
ag1300
ag1301
ag1302
ag1303
ag1304
atp2545
bsg15
Nstp2546
Rp2547
a(dp2548
g65
(dp2549
g67
g2521
sg68
(lp2550
(dp2551
g71
g1329
(I0
I6
I1
tp2552
Rp2553
sg82
g2534
sasstp2554
bsg84
g85
sg15
NsbsF90.0
g7
(g8
g9
Ntp2555
Rp2556
(dp2557
g13
g14
sg16
g7
(g17
g9
Ntp2558
Rp2559
((lp2560
g21
(g22
(dp2561
g24
g25
(g26
(I0
tp2562
g28
tp2563
Rp2564
(I1
(I6
tp2565
g35
I00
(lp2566
g1299
ag1300
ag1301
ag1302
ag1303
ag1304
atp2567
bsg15
Nstp2568
Rp2569
a(lp2570
g25
(g26
(I0
tp2571
g28
tp2572
Rp2573
(I1
(I6
tp2574
g49
I00
S'\x06\x9d\x923R\xa7\xfe?|p\r\x1c\x82\x1f!@\x80\x8c\xbc\xa9}\x9c.@\xe4KSG\x04x\xfe?~\x90\x8a\x02b\x8c\x04@\x06\xcfK\tC\xed\xe7?'
p2575
tp2576
ba(lp2577
g21
(g22
(dp2578
g24
g25
(g26
(I0
tp2579
g28
tp2580
Rp2581
(I1
(I6
tp2582
g35
I00
(lp2583
g1299
ag1300
ag1301
ag1302
ag1303
ag1304
atp2584
bsg15
Nstp2585
Rp2586
a(dp2587
g65
(dp2588
g67
g2560
sg68
(lp2589
(dp2590
g71
g1329
(I0
I6
I1
tp2591
Rp2592
sg82
g2573
sasstp2593
bsg84
g85
sg15
NsbsF70.0
g7
(g8
g9
Ntp2594
Rp2595
(dp2596
g13
g14
sg16
g7
(g17
g9
Ntp2597
Rp2598
((lp2599
g21
(g22
(dp2600
g24
g25
(g26
(I0
tp2601
g28
tp2602
Rp2603
(I1
(I6
tp2604
g35
I00
(lp2605
g1299
ag1300
ag1301
ag1302
ag1303
ag1304
atp2606
bsg15
Nstp2607
Rp2608
a(lp2609
g25
(g26
(I0
tp2610
g28
tp2611
Rp2612
(I1
(I6
tp2613
g49
I00
S'[\x1c\x7f\xd6\x08S\xfe?\xa8\x92\x8e\xd6\xe2d"@\x1b\xef\xcf5<w0@\xe0+\xa82\xf9\xc7\xff?\xcc\x0b\xbc\xc2\x98F\x04@lL\xb2\x97\x83\xdd\xe8?'
p2614
tp2615
ba(lp2616
g21
(g22
(dp2617
g24
g25
(g26
(I0
tp2618
g28
tp2619
Rp2620
(I1
(I6
tp2621
g35
I00
(lp2622
g1299
ag1300
ag1301
ag1302
ag1303
ag1304
atp2623
bsg15
Nstp2624
Rp2625
a(dp2626
g65
(dp2627
g67
g2599
sg68
(lp2628
(dp2629
g71
g1329
(I0
I6
I1
tp2630
Rp2631
sg82
g2612
sasstp2632
bsg84
g85
sg15
NsbsF50.0
g7
(g8
g9
Ntp2633
Rp2634
(dp2635
g13
g14
sg16
g7
(g17
g9
Ntp2636
Rp2637
((lp2638
g21
(g22
(dp2639
g24
g25
(g26
(I0
tp2640
g28
tp2641
Rp2642
(I1
(I6
tp2643
g35
I00
(lp2644
g1299
ag1300
ag1301
ag1302
ag1303
ag1304
atp2645
bsg15
Nstp2646
Rp2647
a(lp2648
g25
(g26
(I0
tp2649
g28
tp2650
Rp2651
(I1
(I6
tp2652
g49
I00
S'RI\x1737\xf6\xfe?\xdbS\x92&#]"@\xb3L$\x8a\x85n0@tguB\x0b\x12\xff?\xd2\xbb\xfe>\xf6\xe4\x04@\x90\x89i+T\xd6\xe7?'
p2653
tp2654
ba(lp2655
g21
(g22
(dp2656
g24
g25
(g26
(I0
tp2657
g28
tp2658
Rp2659
(I1
(I6
tp2660
g35
I00
(lp2661
g1299
ag1300
ag1301
ag1302
ag1303
ag1304
atp2662
bsg15
Nstp2663
Rp2664
a(dp2665
g65
(dp2666
g67
g2638
sg68
(lp2667
(dp2668
g71
g1329
(I0
I6
I1
tp2669
Rp2670
sg82
g2651
sasstp2671
bsg84
g85
sg15
NsbsF30.0
g7
(g8
g9
Ntp2672
Rp2673
(dp2674
g13
g14
sg16
g7
(g17
g9
Ntp2675
Rp2676
((lp2677
g21
(g22
(dp2678
g24
g25
(g26
(I0
tp2679
g28
tp2680
Rp2681
(I1
(I6
tp2682
g35
I00
(lp2683
g1299
ag1300
ag1301
ag1302
ag1303
ag1304
atp2684
bsg15
Nstp2685
Rp2686
a(lp2687
g25
(g26
(I0
tp2688
g28
tp2689
Rp2690
(I1
(I6
tp2691
g49
I00
S'E\n\xd8Wm\x05\xfe?\xf4w\xd5s`9"@,\xb5\xd7i\xd0w/@R~\x1f\x8f\xcf\x06\x00@]\x03\x0c\xd4\x8d\x10\x05@\xfe\xd0\x0f\x99\x03T\xe8?'
p2692
tp2693
ba(lp2694
g21
(g22
(dp2695
g24
g25
(g26
(I0
tp2696
g28
tp2697
Rp2698
(I1
(I6
tp2699
g35
I00
(lp2700
g1299
ag1300
ag1301
ag1302
ag1303
ag1304
atp2701
bsg15
Nstp2702
Rp2703
a(dp2704
g65
(dp2705
g67
g2677
sg68
(lp2706
(dp2707
g71
g1329
(I0
I6
I1
tp2708
Rp2709
sg82
g2690
sasstp2710
bsg84
g85
sg15
Nsbssg250
(dp2711
F10.0
g7
(g8
g9
Ntp2712
Rp2713
(dp2714
g13
g14
sg16
g7
(g17
g9
Ntp2715
Rp2716
((lp2717
g21
(g22
(dp2718
g24
g25
(g26
(I0
tp2719
g28
tp2720
Rp2721
(I1
(I6
tp2722
g35
I00
(lp2723
g1299
ag1300
ag1301
ag1302
ag1303
ag1304
atp2724
bsg15
Nstp2725
Rp2726
a(lp2727
g25
(g26
(I0
tp2728
g28
tp2729
Rp2730
(I1
(I6
tp2731
g49
I00
S'\r$=\tYY\x05@1e{\xc18H$@\x03\xdb\x7fC\xdc@7@\x00\xdeN\x16kZ\x02@5S)\xd3\x88j\x0b@\xca|m1)\xc6\x05@'
p2732
tp2733
ba(lp2734
g21
(g22
(dp2735
g24
g25
(g26
(I0
tp2736
g28
tp2737
Rp2738
(I1
(I6
tp2739
g35
I00
(lp2740
g1299
ag1300
ag1301
ag1302
ag1303
ag1304
atp2741
bsg15
Nstp2742
Rp2743
a(dp2744
g65
(dp2745
g67
g2717
sg68
(lp2746
(dp2747
g71
g1329
(I0
I6
I1
tp2748
Rp2749
sg82
g2730
sasstp2750
bsg84
g85
sg15
NsbsF90.0
g7
(g8
g9
Ntp2751
Rp2752
(dp2753
g13
g14
sg16
g7
(g17
g9
Ntp2754
Rp2755
((lp2756
g21
(g22
(dp2757
g24
g25
(g26
(I0
tp2758
g28
tp2759
Rp2760
(I1
(I6
tp2761
g35
I00
(lp2762
g1299
ag1300
ag1301
ag1302
ag1303
ag1304
atp2763
bsg15
Nstp2764
Rp2765
a(lp2766
g25
(g26
(I0
tp2767
g28
tp2768
Rp2769
(I1
(I6
tp2770
g49
I00
S'\xb9|\x93\xc0\xf7\x83\x00@\xf3<;\xaexi\x1d@S\xc8\xaf~\xa9\x1c1@\xf4\x03`\xa5\xb1\xd6\xfb?\xbc\xad\xcb#f\x07\x03@\xe4f:y\xd2\n\xe6?'
p2771
tp2772
ba(lp2773
g21
(g22
(dp2774
g24
g25
(g26
(I0
tp2775
g28
tp2776
Rp2777
(I1
(I6
tp2778
g35
I00
(lp2779
g1299
ag1300
ag1301
ag1302
ag1303
ag1304
atp2780
bsg15
Nstp2781
Rp2782
a(dp2783
g65
(dp2784
g67
g2756
sg68
(lp2785
(dp2786
g71
g1329
(I0
I6
I1
tp2787
Rp2788
sg82
g2769
sasstp2789
bsg84
g85
sg15
NsbsF70.0
g7
(g8
g9
Ntp2790
Rp2791
(dp2792
g13
g14
sg16
g7
(g17
g9
Ntp2793
Rp2794
((lp2795
g21
(g22
(dp2796
g24
g25
(g26
(I0
tp2797
g28
tp2798
Rp2799
(I1
(I6
tp2800
g35
I00
(lp2801
g1299
ag1300
ag1301
ag1302
ag1303
ag1304
atp2802
bsg15
Nstp2803
Rp2804
a(lp2805
g25
(g26
(I0
tp2806
g28
tp2807
Rp2808
(I1
(I6
tp2809
g49
I00
S'b\xdc\x9e\x85=U\xff?\xe0\xe7\x9c\xe9\xffX\x1c@\xa6\x9c8E\x8d\xd7.@\x15Y\xc0\x1dP[\xfc?\xdf\xb3\x83O\x18\x16\x02@H[\x9b\xbd\xa1\xa4\xe7?'
p2810
tp2811
ba(lp2812
g21
(g22
(dp2813
g24
g25
(g26
(I0
tp2814
g28
tp2815
Rp2816
(I1
(I6
tp2817
g35
I00
(lp2818
g1299
ag1300
ag1301
ag1302
ag1303
ag1304
atp2819
bsg15
Nstp2820
Rp2821
a(dp2822
g65
(dp2823
g67
g2795
sg68
(lp2824
(dp2825
g71
g1329
(I0
I6
I1
tp2826
Rp2827
sg82
g2808
sasstp2828
bsg84
g85
sg15
NsbsF50.0
g7
(g8
g9
Ntp2829
Rp2830
(dp2831
g13
g14
sg16
g7
(g17
g9
Ntp2832
Rp2833
((lp2834
g21
(g22
(dp2835
g24
g25
(g26
(I0
tp2836
g28
tp2837
Rp2838
(I1
(I6
tp2839
g35
I00
(lp2840
g1299
ag1300
ag1301
ag1302
ag1303
ag1304
atp2841
bsg15
Nstp2842
Rp2843
a(lp2844
g25
(g26
(I0
tp2845
g28
tp2846
Rp2847
(I1
(I6
tp2848
g49
I00
S'\x80\x10Mq7\xcc\xff?I\xb9\x03\n\x04\x9d @\xd9\x1e.\xbb\xf532@A\xbcCia\x84\xfd?\xc8\xc7g\x1e<\xc0\x02@\x96\x81*\xf8\x02\x1f\xeb?'
p2849
tp2850
ba(lp2851
g21
(g22
(dp2852
g24
g25
(g26
(I0
tp2853
g28
tp2854
Rp2855
(I1
(I6
tp2856
g35
I00
(lp2857
g1299
ag1300
ag1301
ag1302
ag1303
ag1304
atp2858
bsg15
Nstp2859
Rp2860
a(dp2861
g65
(dp2862
g67
g2834
sg68
(lp2863
(dp2864
g71
g1329
(I0
I6
I1
tp2865
Rp2866
sg82
g2847
sasstp2867
bsg84
g85
sg15
NsbsF30.0
g7
(g8
g9
Ntp2868
Rp2869
(dp2870
g13
g14
sg16
g7
(g17
g9
Ntp2871
Rp2872
((lp2873
g21
(g22
(dp2874
g24
g25
(g26
(I0
tp2875
g28
tp2876
Rp2877
(I1
(I6
tp2878
g35
I00
(lp2879
g1299
ag1300
ag1301
ag1302
ag1303
ag1304
atp2880
bsg15
Nstp2881
Rp2882
a(lp2883
g25
(g26
(I0
tp2884
g28
tp2885
Rp2886
(I1
(I6
tp2887
g49
I00
S'(\r19t\xc9\x00@Z\x00r\x1c\xa6d\x1d@\xb1\xd4\x8c\xdf\x9b62@\x9e\x0c\xc4\xdc@\xc8\xfc?m\x9f\x1d\xe1\x1d\x88\x03@x\x89\xd6c\x1fL\xef?'
p2888
tp2889
ba(lp2890
g21
(g22
(dp2891
g24
g25
(g26
(I0
tp2892
g28
tp2893
Rp2894
(I1
(I6
tp2895
g35
I00
(lp2896
g1299
ag1300
ag1301
ag1302
ag1303
ag1304
atp2897
bsg15
Nstp2898
Rp2899
a(dp2900
g65
(dp2901
g67
g2873
sg68
(lp2902
(dp2903
g71
g1329
(I0
I6
I1
tp2904
Rp2905
sg82
g2886
sasstp2906
bsg84
g85
sg15
Nsbsssg457
(dp2907
g5
(dp2908
F10.0
g7
(g8
g9
Ntp2909
Rp2910
(dp2911
g13
g14
sg16
g7
(g17
g9
Ntp2912
Rp2913
((lp2914
g21
(g22
(dp2915
g24
g25
(g26
(I0
tp2916
g28
tp2917
Rp2918
(I1
(I6
tp2919
g35
I00
(lp2920
g1299
ag1300
ag1301
ag1302
ag1303
ag1304
atp2921
bsg15
Nstp2922
Rp2923
a(lp2924
g25
(g26
(I0
tp2925
g28
tp2926
Rp2927
(I1
(I6
tp2928
g49
I00
S"H]]1\x8c\xc7\xfc?j'\x00\x90\xe5>$@\x95\x19\x15a7\xe46@P\x1d\xa36\xb7b\x01@&\x82TL\x01m\x05@\x81\xfd \x14\xea\x82\xea?"
p2929
tp2930
ba(lp2931
g21
(g22
(dp2932
g24
g25
(g26
(I0
tp2933
g28
tp2934
Rp2935
(I1
(I6
tp2936
g35
I00
(lp2937
g1299
ag1300
ag1301
ag1302
ag1303
ag1304
atp2938
bsg15
Nstp2939
Rp2940
a(dp2941
g65
(dp2942
g67
g2914
sg68
(lp2943
(dp2944
g71
g1329
(I0
I6
I1
tp2945
Rp2946
sg82
g2927
sasstp2947
bsg84
g85
sg15
NsbsF90.0
g7
(g8
g9
Ntp2948
Rp2949
(dp2950
g13
g14
sg16
g7
(g17
g9
Ntp2951
Rp2952
((lp2953
g21
(g22
(dp2954
g24
g25
(g26
(I0
tp2955
g28
tp2956
Rp2957
(I1
(I6
tp2958
g35
I00
(lp2959
g1299
ag1300
ag1301
ag1302
ag1303
ag1304
atp2960
bsg15
Nstp2961
Rp2962
a(lp2963
g25
(g26
(I0
tp2964
g28
tp2965
Rp2966
(I1
(I6
tp2967
g49
I00
S'(\xb7|:\xee\xd8\xfd?\xf7\xbf\t\x80hD @x\x13\x19Y\xce@-@\x8d\xe0\x8e"\xbe\xa0\xfd?V\xe5\x9dh\x97c\x02@<\x01\x8b\xbc\xbc*\xe8?'
p2968
tp2969
ba(lp2970
g21
(g22
(dp2971
g24
g25
(g26
(I0
tp2972
g28
tp2973
Rp2974
(I1
(I6
tp2975
g35
I00
(lp2976
g1299
ag1300
ag1301
ag1302
ag1303
ag1304
atp2977
bsg15
Nstp2978
Rp2979
a(dp2980
g65
(dp2981
g67
g2953
sg68
(lp2982
(dp2983
g71
g1329
(I0
I6
I1
tp2984
Rp2985
sg82
g2966
sasstp2986
bsg84
g85
sg15
NsbsF70.0
g7
(g8
g9
Ntp2987
Rp2988
(dp2989
g13
g14
sg16
g7
(g17
g9
Ntp2990
Rp2991
((lp2992
g21
(g22
(dp2993
g24
g25
(g26
(I0
tp2994
g28
tp2995
Rp2996
(I1
(I6
tp2997
g35
I00
(lp2998
g1299
ag1300
ag1301
ag1302
ag1303
ag1304
atp2999
bsg15
Nstp3000
Rp3001
a(lp3002
g25
(g26
(I0
tp3003
g28
tp3004
Rp3005
(I1
(I6
tp3006
g49
I00
S'\xab"emE\xda\xfd?\xe7]\x08\xdc-o"@\xcc\x1e\x9c\x8et\x80/@l\xb5\xe2C\xcf\x93\x00@\x13\x02XA}f\x03@\xb4\x19\x7f\x06\nO\xe9?'
p3007
tp3008
ba(lp3009
g21
(g22
(dp3010
g24
g25
(g26
(I0
tp3011
g28
tp3012
Rp3013
(I1
(I6
tp3014
g35
I00
(lp3015
g1299
ag1300
ag1301
ag1302
ag1303
ag1304
atp3016
bsg15
Nstp3017
Rp3018
a(dp3019
g65
(dp3020
g67
g2992
sg68
(lp3021
(dp3022
g71
g1329
(I0
I6
I1
tp3023
Rp3024
sg82
g3005
sasstp3025
bsg84
g85
sg15
NsbsF50.0
g7
(g8
g9
Ntp3026
Rp3027
(dp3028
g13
g14
sg16
g7
(g17
g9
Ntp3029
Rp3030
((lp3031
g21
(g22
(dp3032
g24
g25
(g26
(I0
tp3033
g28
tp3034
Rp3035
(I1
(I6
tp3036
g35
I00
(lp3037
g1299
ag1300
ag1301
ag1302
ag1303
ag1304
atp3038
bsg15
Nstp3039
Rp3040
a(lp3041
g25
(g26
(I0
tp3042
g28
tp3043
Rp3044
(I1
(I6
tp3045
g49
I00
S'3J\xe9\xcf\xa0\x17\xfd?\x9d\x9fB\x08\xf6j"@d\x88/\x97\x86\xa00@l\x7f\xde\x87\xfa\x1d\x01@\xb0"D\xa4\xf1\xa2\x03@\xe9c\x9e\x01\xa6\xa1\xe8?'
p3046
tp3047
ba(lp3048
g21
(g22
(dp3049
g24
g25
(g26
(I0
tp3050
g28
tp3051
Rp3052
(I1
(I6
tp3053
g35
I00
(lp3054
g1299
ag1300
ag1301
ag1302
ag1303
ag1304
atp3055
bsg15
Nstp3056
Rp3057
a(dp3058
g65
(dp3059
g67
g3031
sg68
(lp3060
(dp3061
g71
g1329
(I0
I6
I1
tp3062
Rp3063
sg82
g3044
sasstp3064
bsg84
g85
sg15
NsbsF30.0
g7
(g8
g9
Ntp3065
Rp3066
(dp3067
g13
g14
sg16
g7
(g17
g9
Ntp3068
Rp3069
((lp3070
g21
(g22
(dp3071
g24
g25
(g26
(I0
tp3072
g28
tp3073
Rp3074
(I1
(I6
tp3075
g35
I00
(lp3076
g1299
ag1300
ag1301
ag1302
ag1303
ag1304
atp3077
bsg15
Nstp3078
Rp3079
a(lp3080
g25
(g26
(I0
tp3081
g28
tp3082
Rp3083
(I1
(I6
tp3084
g49
I00
S'@\xe1\x8c\x85\xf8\xd8\xfd?\x1b\x15\xe9\xfa\xf0?"@B\x9e\xa7\xec\xaf\xc00@\xf5\x88\xa5\x99\\H\x01@\xc8{\x0bH\xfb\xcc\x03@\xac\xcbO\x00\xbf\x9b\xe9?'
p3085
tp3086
ba(lp3087
g21
(g22
(dp3088
g24
g25
(g26
(I0
tp3089
g28
tp3090
Rp3091
(I1
(I6
tp3092
g35
I00
(lp3093
g1299
ag1300
ag1301
ag1302
ag1303
ag1304
atp3094
bsg15
Nstp3095
Rp3096
a(dp3097
g65
(dp3098
g67
g3070
sg68
(lp3099
(dp3100
g71
g1329
(I0
I6
I1
tp3101
Rp3102
sg82
g3083
sasstp3103
bsg84
g85
sg15
Nsbssg250
(dp3104
F10.0
g7
(g8
g9
Ntp3105
Rp3106
(dp3107
g13
g14
sg16
g7
(g17
g9
Ntp3108
Rp3109
((lp3110
g21
(g22
(dp3111
g24
g25
(g26
(I0
tp3112
g28
tp3113
Rp3114
(I1
(I6
tp3115
g35
I00
(lp3116
g1299
ag1300
ag1301
ag1302
ag1303
ag1304
atp3117
bsg15
Nstp3118
Rp3119
a(lp3120
g25
(g26
(I0
tp3121
g28
tp3122
Rp3123
(I1
(I6
tp3124
g49
I00
S'_D\x16\xf1DF\x08@O\xbfb\x1at\xbd$@L\x11\xd4\x858\xe56@\xc2\xb9\xc2\xca\x93\x02\x04@\xbe;\x86[[E\x0c@\x1f\xb2P\x1f9\xc5\x03@'
p3125
tp3126
ba(lp3127
g21
(g22
(dp3128
g24
g25
(g26
(I0
tp3129
g28
tp3130
Rp3131
(I1
(I6
tp3132
g35
I00
(lp3133
g1299
ag1300
ag1301
ag1302
ag1303
ag1304
atp3134
bsg15
Nstp3135
Rp3136
a(dp3137
g65
(dp3138
g67
g3110
sg68
(lp3139
(dp3140
g71
g1329
(I0
I6
I1
tp3141
Rp3142
sg82
g3123
sasstp3143
bsg84
g85
sg15
NsbsF90.0
g7
(g8
g9
Ntp3144
Rp3145
(dp3146
g13
g14
sg16
g7
(g17
g9
Ntp3147
Rp3148
((lp3149
g21
(g22
(dp3150
g24
g25
(g26
(I0
tp3151
g28
tp3152
Rp3153
(I1
(I6
tp3154
g35
I00
(lp3155
g1299
ag1300
ag1301
ag1302
ag1303
ag1304
atp3156
bsg15
Nstp3157
Rp3158
a(lp3159
g25
(g26
(I0
tp3160
g28
tp3161
Rp3162
(I1
(I6
tp3163
g49
I00
S'h\x94\xb5\xe9\xd4\xbe\xff?\x8c\x19\x8fvbB @wt\x046\xe8\x9e0@P{\x9e-\x9b\x1f\xfe?\xd6\xc8\\?\xb6\n\x02@\xe7\xbc\xfd\x08s(\xed?'
p3164
tp3165
ba(lp3166
g21
(g22
(dp3167
g24
g25
(g26
(I0
tp3168
g28
tp3169
Rp3170
(I1
(I6
tp3171
g35
I00
(lp3172
g1299
ag1300
ag1301
ag1302
ag1303
ag1304
atp3173
bsg15
Nstp3174
Rp3175
a(dp3176
g65
(dp3177
g67
g3149
sg68
(lp3178
(dp3179
g71
g1329
(I0
I6
I1
tp3180
Rp3181
sg82
g3162
sasstp3182
bsg84
g85
sg15
NsbsF70.0
g7
(g8
g9
Ntp3183
Rp3184
(dp3185
g13
g14
sg16
g7
(g17
g9
Ntp3186
Rp3187
((lp3188
g21
(g22
(dp3189
g24
g25
(g26
(I0
tp3190
g28
tp3191
Rp3192
(I1
(I6
tp3193
g35
I00
(lp3194
g1299
ag1300
ag1301
ag1302
ag1303
ag1304
atp3195
bsg15
Nstp3196
Rp3197
a(lp3198
g25
(g26
(I0
tp3199
g28
tp3200
Rp3201
(I1
(I6
tp3202
g49
I00
S'\x96 \x84\x13\xbd\xc8\xff?X\\{\xc8\xea\xbb\x1c@\xf6)\xf6\x14\x9bE0@.\x96\xdc(\x04(\xfc?:\xe3~\xe7=\xb6\x01@\nEV4\x1d\xfd\xe6?'
p3203
tp3204
ba(lp3205
g21
(g22
(dp3206
g24
g25
(g26
(I0
tp3207
g28
tp3208
Rp3209
(I1
(I6
tp3210
g35
I00
(lp3211
g1299
ag1300
ag1301
ag1302
ag1303
ag1304
atp3212
bsg15
Nstp3213
Rp3214
a(dp3215
g65
(dp3216
g67
g3188
sg68
(lp3217
(dp3218
g71
g1329
(I0
I6
I1
tp3219
Rp3220
sg82
g3201
sasstp3221
bsg84
g85
sg15
NsbsF50.0
g7
(g8
g9
Ntp3222
Rp3223
(dp3224
g13
g14
sg16
g7
(g17
g9
Ntp3225
Rp3226
((lp3227
g21
(g22
(dp3228
g24
g25
(g26
(I0
tp3229
g28
tp3230
Rp3231
(I1
(I6
tp3232
g35
I00
(lp3233
g1299
ag1300
ag1301
ag1302
ag1303
ag1304
atp3234
bsg15
Nstp3235
Rp3236
a(lp3237
g25
(g26
(I0
tp3238
g28
tp3239
Rp3240
(I1
(I6
tp3241
g49
I00
S'T\xc8\xec\x00\xcej\x00@\x15\xd0%\xdbN(!@\x12\x00\xa9b\xa674@\xe6\\@\xc3\xcbr\xfe?\x99\xf8]\x15\xbe\xbd\x01@\xe0\xb2C4\xb0\x1e\xeb?'
p3242
tp3243
ba(lp3244
g21
(g22
(dp3245
g24
g25
(g26
(I0
tp3246
g28
tp3247
Rp3248
(I1
(I6
tp3249
g35
I00
(lp3250
g1299
ag1300
ag1301
ag1302
ag1303
ag1304
atp3251
bsg15
Nstp3252
Rp3253
a(dp3254
g65
(dp3255
g67
g3227
sg68
(lp3256
(dp3257
g71
g1329
(I0
I6
I1
tp3258
Rp3259
sg82
g3240
sasstp3260
bsg84
g85
sg15
NsbsF30.0
g7
(g8
g9
Ntp3261
Rp3262
(dp3263
g13
g14
sg16
g7
(g17
g9
Ntp3264
Rp3265
((lp3266
g21
(g22
(dp3267
g24
g25
(g26
(I0
tp3268
g28
tp3269
Rp3270
(I1
(I6
tp3271
g35
I00
(lp3272
g1299
ag1300
ag1301
ag1302
ag1303
ag1304
atp3273
bsg15
Nstp3274
Rp3275
a(lp3276
g25
(g26
(I0
tp3277
g28
tp3278
Rp3279
(I1
(I6
tp3280
g49
I00
S'\x07&\xe0+s/\x03@\xc0Y\xfe\xdcH\x1a\x1d@t@\xdf\x8a\xbd\xa02@\xc7M\xa8\x9d\xc1\x1b\xfe?%8\xb9\xdfl\x88\x04@\x88\x98\x1c&X\x9c\xeb?'
p3281
tp3282
ba(lp3283
g21
(g22
(dp3284
g24
g25
(g26
(I0
tp3285
g28
tp3286
Rp3287
(I1
(I6
tp3288
g35
I00
(lp3289
g1299
ag1300
ag1301
ag1302
ag1303
ag1304
atp3290
bsg15
Nstp3291
Rp3292
a(dp3293
g65
(dp3294
g67
g3266
sg68
(lp3295
(dp3296
g71
g1329
(I0
I6
I1
tp3297
Rp3298
sg82
g3279
sasstp3299
bsg84
g85
sg15
Nsbsssss.