(dp0
I2
(dp1
S'False'
p2
(dp3
g2
(dp4
S'transfer'
p5
(dp6
F100.0
ccopy_reg
_reconstructor
p7
(cpandas.core.series
Series
p8
c__builtin__
object
p9
Ntp10
Rp11
(dp12
S'_metadata'
p13
(lp14
S'name'
p15
asS'_data'
p16
g7
(cpandas.core.internals
SingleBlockManager
p17
g9
Ntp18
Rp19
((lp20
cpandas.core.indexes.base
_new_Index
p21
(cpandas.core.indexes.base
Index
p22
(dp23
S'data'
p24
cnumpy.core.multiarray
_reconstruct
p25
(cnumpy
ndarray
p26
(I0
tp27
S'b'
p28
tp29
Rp30
(I1
(I6
tp31
cnumpy
dtype
p32
(S'O8'
p33
I0
I1
tp34
Rp35
(I3
S'|'
p36
NNNI-1
I-1
I63
tp37
bI00
(lp38
S'dw'
p39
aS'fridge'
p40
aS'hvac'
p41
aS'mw'
p42
aS'oven'
p43
aS'wm'
p44
atp45
bsg15
Nstp46
Rp47
a(lp48
g25
(g26
(I0
tp49
g28
tp50
Rp51
(I1
(I6
tp52
g32
(S'f8'
p53
I0
I1
tp54
Rp55
(I3
S'<'
p56
NNNI-1
I-1
I0
tp57
bI00
S'"Jf5\xad\xe1\xf2?/r\xc9[\x8d\xb7\'@\x88\xc4\xd9r\x89t.@\xa3=a?Zu\x02@n"F\xb9d6\x01@~,\ry\xd0\xb3\xdc?'
p58
tp59
ba(lp60
g21
(g22
(dp61
g24
g25
(g26
(I0
tp62
g28
tp63
Rp64
(I1
(I6
tp65
g35
I00
(lp66
g39
ag40
ag41
ag42
ag43
ag44
atp67
bsg15
Nstp68
Rp69
a(dp70
S'0.14.1'
p71
(dp72
S'axes'
p73
g20
sS'blocks'
p74
(lp75
(dp76
S'mgr_locs'
p77
c__builtin__
slice
p78
(I0
I6
I1
tp79
Rp80
sS'values'
p81
g51
sasstp82
bsS'_typ'
p83
S'series'
p84
sg15
NsbsF70.0
g7
(g8
g9
Ntp85
Rp86
(dp87
g13
g14
sg16
g7
(g17
g9
Ntp88
Rp89
((lp90
g21
(g22
(dp91
g24
g25
(g26
(I0
tp92
g28
tp93
Rp94
(I1
(I6
tp95
g35
I00
(lp96
g39
ag40
ag41
ag42
ag43
ag44
atp97
bsg15
Nstp98
Rp99
a(lp100
g25
(g26
(I0
tp101
g28
tp102
Rp103
(I1
(I6
tp104
g55
I00
S'\x0c\x8d\x0377\xf5\xf2?\x92\xf8\x15nd\xf8%@\xdfhMiJ\xd50@\x96B\xc4TM\xc5\xff?R\x1f/\x00VH\x01@\x93B<#{\xd2\xd9?'
p105
tp106
ba(lp107
g21
(g22
(dp108
g24
g25
(g26
(I0
tp109
g28
tp110
Rp111
(I1
(I6
tp112
g35
I00
(lp113
g39
ag40
ag41
ag42
ag43
ag44
atp114
bsg15
Nstp115
Rp116
a(dp117
g71
(dp118
g73
g90
sg74
(lp119
(dp120
g77
g78
(I0
I6
I1
tp121
Rp122
sg81
g103
sasstp123
bsg83
g84
sg15
NsbsF6.0
g7
(g8
g9
Ntp124
Rp125
(dp126
g13
g14
sg16
g7
(g17
g9
Ntp127
Rp128
((lp129
g21
(g22
(dp130
g24
g25
(g26
(I0
tp131
g28
tp132
Rp133
(I1
(I6
tp134
g35
I00
(lp135
g39
ag40
ag41
ag42
ag43
ag44
atp136
bsg15
Nstp137
Rp138
a(lp139
g25
(g26
(I0
tp140
g28
tp141
Rp142
(I1
(I6
tp143
g55
I00
S'k\xf4~\x08Z\xff\xed?)\xba)\xc0\xcf\x90$@\xd0\x1d\xaa5\xb6\xd26@\xde\xed\xe8Q\xde\xd7\x01@\xa7\xf5\xb1\x8bu(\x02@]\xe9Qa+\xe6\xd9?'
p144
tp145
ba(lp146
g21
(g22
(dp147
g24
g25
(g26
(I0
tp148
g28
tp149
Rp150
(I1
(I6
tp151
g35
I00
(lp152
g39
ag40
ag41
ag42
ag43
ag44
atp153
bsg15
Nstp154
Rp155
a(dp156
g71
(dp157
g73
g129
sg74
(lp158
(dp159
g77
g78
(I0
I6
I1
tp160
Rp161
sg81
g142
sasstp162
bsg83
g84
sg15
NsbsF40.0
g7
(g8
g9
Ntp163
Rp164
(dp165
g13
g14
sg16
g7
(g17
g9
Ntp166
Rp167
((lp168
g21
(g22
(dp169
g24
g25
(g26
(I0
tp170
g28
tp171
Rp172
(I1
(I6
tp173
g35
I00
(lp174
g39
ag40
ag41
ag42
ag43
ag44
atp175
bsg15
Nstp176
Rp177
a(lp178
g25
(g26
(I0
tp179
g28
tp180
Rp181
(I1
(I6
tp182
g55
I00
S')\xa0\xae\xd6Nc\xf1?\x04\x12\xfb\xa8\xac\x94%@.\xc4\xda\xd2%\xb11@\x00\xfa\x8d\x9fD\xd2\x00@&\xfe\x05\xa9\x81\x81\x01@n\xce\x1f\x00\xfb\xce\xd7?'
p183
tp184
ba(lp185
g21
(g22
(dp186
g24
g25
(g26
(I0
tp187
g28
tp188
Rp189
(I1
(I6
tp190
g35
I00
(lp191
g39
ag40
ag41
ag42
ag43
ag44
atp192
bsg15
Nstp193
Rp194
a(dp195
g71
(dp196
g73
g168
sg74
(lp197
(dp198
g77
g78
(I0
I6
I1
tp199
Rp200
sg81
g181
sasstp201
bsg83
g84
sg15
NsbsF9.0
g7
(g8
g9
Ntp202
Rp203
(dp204
g13
g14
sg16
g7
(g17
g9
Ntp205
Rp206
((lp207
g21
(g22
(dp208
g24
g25
(g26
(I0
tp209
g28
tp210
Rp211
(I1
(I6
tp212
g35
I00
(lp213
g39
ag40
ag41
ag42
ag43
ag44
atp214
bsg15
Nstp215
Rp216
a(lp217
g25
(g26
(I0
tp218
g28
tp219
Rp220
(I1
(I6
tp221
g55
I00
S'\x1e\xc2\xd1\x81\xf3\xe4\xee?\x86\xe7m\xf8=n$@z\x9b\x17\xb6\x87\x872@\x1a\ti\xa3:S\x01@\xfd4ce_\xf8\x02@\x9f\x85y\x85\xe04\xd9?'
p222
tp223
ba(lp224
g21
(g22
(dp225
g24
g25
(g26
(I0
tp226
g28
tp227
Rp228
(I1
(I6
tp229
g35
I00
(lp230
g39
ag40
ag41
ag42
ag43
ag44
atp231
bsg15
Nstp232
Rp233
a(dp234
g71
(dp235
g73
g207
sg74
(lp236
(dp237
g77
g78
(I0
I6
I1
tp238
Rp239
sg81
g220
sasstp240
bsg83
g84
sg15
NsbsF10.0
g7
(g8
g9
Ntp241
Rp242
(dp243
g13
g14
sg16
g7
(g17
g9
Ntp244
Rp245
((lp246
g21
(g22
(dp247
g24
g25
(g26
(I0
tp248
g28
tp249
Rp250
(I1
(I6
tp251
g35
I00
(lp252
g39
ag40
ag41
ag42
ag43
ag44
atp253
bsg15
Nstp254
Rp255
a(lp256
g25
(g26
(I0
tp257
g28
tp258
Rp259
(I1
(I6
tp260
g55
I00
S'\x1e\xc2\xd1\x81\xf3\xe4\xee?\x86\xe7m\xf8=n$@z\x9b\x17\xb6\x87\x872@\x1a\ti\xa3:S\x01@\xfd4ce_\xf8\x02@\x9f\x85y\x85\xe04\xd9?'
p261
tp262
ba(lp263
g21
(g22
(dp264
g24
g25
(g26
(I0
tp265
g28
tp266
Rp267
(I1
(I6
tp268
g35
I00
(lp269
g39
ag40
ag41
ag42
ag43
ag44
atp270
bsg15
Nstp271
Rp272
a(dp273
g71
(dp274
g73
g246
sg74
(lp275
(dp276
g77
g78
(I0
I6
I1
tp277
Rp278
sg81
g259
sasstp279
bsg83
g84
sg15
NsbsF15.0
g7
(g8
g9
Ntp280
Rp281
(dp282
g13
g14
sg16
g7
(g17
g9
Ntp283
Rp284
((lp285
g21
(g22
(dp286
g24
g25
(g26
(I0
tp287
g28
tp288
Rp289
(I1
(I6
tp290
g35
I00
(lp291
g39
ag40
ag41
ag42
ag43
ag44
atp292
bsg15
Nstp293
Rp294
a(lp295
g25
(g26
(I0
tp296
g28
tp297
Rp298
(I1
(I6
tp299
g55
I00
S'Z1\xaci~ \xee?\x85\x8f\xb5Q\x9e\t$@M\x15\x14j\xee\xcd1@\xedj\x8a\xe4\xf0\xf9\xff?4K\x1f]\xc7\x8e\x02@\xbe\x02-\r\xd6\xc8\xd9?'
p300
tp301
ba(lp302
g21
(g22
(dp303
g24
g25
(g26
(I0
tp304
g28
tp305
Rp306
(I1
(I6
tp307
g35
I00
(lp308
g39
ag40
ag41
ag42
ag43
ag44
atp309
bsg15
Nstp310
Rp311
a(dp312
g71
(dp313
g73
g285
sg74
(lp314
(dp315
g77
g78
(I0
I6
I1
tp316
Rp317
sg81
g298
sasstp318
bsg83
g84
sg15
NsbsF80.0
g7
(g8
g9
Ntp319
Rp320
(dp321
g13
g14
sg16
g7
(g17
g9
Ntp322
Rp323
((lp324
g21
(g22
(dp325
g24
g25
(g26
(I0
tp326
g28
tp327
Rp328
(I1
(I6
tp329
g35
I00
(lp330
g39
ag40
ag41
ag42
ag43
ag44
atp331
bsg15
Nstp332
Rp333
a(lp334
g25
(g26
(I0
tp335
g28
tp336
Rp337
(I1
(I6
tp338
g55
I00
S'\xd8R\xb9X\xb5\xad\xf2?f\xe1gI\xeb\xd1&@~ts8\xc5\x011@~\x8bq\x8b\x1cw\x01@\x16~\xddP&Q\x01@J\xb9\x01\xd6\x95\x05\xda?'
p339
tp340
ba(lp341
g21
(g22
(dp342
g24
g25
(g26
(I0
tp343
g28
tp344
Rp345
(I1
(I6
tp346
g35
I00
(lp347
g39
ag40
ag41
ag42
ag43
ag44
atp348
bsg15
Nstp349
Rp350
a(dp351
g71
(dp352
g73
g324
sg74
(lp353
(dp354
g77
g78
(I0
I6
I1
tp355
Rp356
sg81
g337
sasstp357
bsg83
g84
sg15
NsbsF50.0
g7
(g8
g9
Ntp358
Rp359
(dp360
g13
g14
sg16
g7
(g17
g9
Ntp361
Rp362
((lp363
g21
(g22
(dp364
g24
g25
(g26
(I0
tp365
g28
tp366
Rp367
(I1
(I6
tp368
g35
I00
(lp369
g39
ag40
ag41
ag42
ag43
ag44
atp370
bsg15
Nstp371
Rp372
a(lp373
g25
(g26
(I0
tp374
g28
tp375
Rp376
(I1
(I6
tp377
g55
I00
S'\xfba\x0eN1\xab\xf1?\x12\x02X\xf3p\x13&@P\x8f\xbc\xc3UP0@\x14\xb3\x04\x08g\x84\x00@\xca\xda\x92@\xc5&\x01@\xa8\xfe(4J\n\xd7?'
p378
tp379
ba(lp380
g21
(g22
(dp381
g24
g25
(g26
(I0
tp382
g28
tp383
Rp384
(I1
(I6
tp385
g35
I00
(lp386
g39
ag40
ag41
ag42
ag43
ag44
atp387
bsg15
Nstp388
Rp389
a(dp390
g71
(dp391
g73
g363
sg74
(lp392
(dp393
g77
g78
(I0
I6
I1
tp394
Rp395
sg81
g376
sasstp396
bsg83
g84
sg15
NsbsF20.0
g7
(g8
g9
Ntp397
Rp398
(dp399
g13
g14
sg16
g7
(g17
g9
Ntp400
Rp401
((lp402
g21
(g22
(dp403
g24
g25
(g26
(I0
tp404
g28
tp405
Rp406
(I1
(I6
tp407
g35
I00
(lp408
g39
ag40
ag41
ag42
ag43
ag44
atp409
bsg15
Nstp410
Rp411
a(lp412
g25
(g26
(I0
tp413
g28
tp414
Rp415
(I1
(I6
tp416
g55
I00
S'c3\xd1\x99<\xce\xf0?g\x1f\xc1\xb2\xe0\xb1%@2W}\x01-~3@\xa7L\x0ce\xda\xb1\x00@\xe2\xe0^\xf6..\x02@\xbd\x92 8\xe7\xc0\xd7?'
p417
tp418
ba(lp419
g21
(g22
(dp420
g24
g25
(g26
(I0
tp421
g28
tp422
Rp423
(I1
(I6
tp424
g35
I00
(lp425
g39
ag40
ag41
ag42
ag43
ag44
atp426
bsg15
Nstp427
Rp428
a(dp429
g71
(dp430
g73
g402
sg74
(lp431
(dp432
g77
g78
(I0
I6
I1
tp433
Rp434
sg81
g415
sasstp435
bsg83
g84
sg15
NsbsF90.0
g7
(g8
g9
Ntp436
Rp437
(dp438
g13
g14
sg16
g7
(g17
g9
Ntp439
Rp440
((lp441
g21
(g22
(dp442
g24
g25
(g26
(I0
tp443
g28
tp444
Rp445
(I1
(I6
tp446
g35
I00
(lp447
g39
ag40
ag41
ag42
ag43
ag44
atp448
bsg15
Nstp449
Rp450
a(lp451
g25
(g26
(I0
tp452
g28
tp453
Rp454
(I1
(I6
tp455
g55
I00
S'_\xcf(\xb1`\x13\xf3?b\x9b\xbeOw;&@\xa5\x84k\xb6\x1420@\xf5\xbd\xb5\xbc#\xcc\x00@\xf2Q\xd8\xd2\xf7!\x01@\xd1\x00\xb7\nb\x83\xd9?'
p456
tp457
ba(lp458
g21
(g22
(dp459
g24
g25
(g26
(I0
tp460
g28
tp461
Rp462
(I1
(I6
tp463
g35
I00
(lp464
g39
ag40
ag41
ag42
ag43
ag44
atp465
bsg15
Nstp466
Rp467
a(dp468
g71
(dp469
g73
g441
sg74
(lp470
(dp471
g77
g78
(I0
I6
I1
tp472
Rp473
sg81
g454
sasstp474
bsg83
g84
sg15
NsbsF60.0
g7
(g8
g9
Ntp475
Rp476
(dp477
g13
g14
sg16
g7
(g17
g9
Ntp478
Rp479
((lp480
g21
(g22
(dp481
g24
g25
(g26
(I0
tp482
g28
tp483
Rp484
(I1
(I6
tp485
g35
I00
(lp486
g39
ag40
ag41
ag42
ag43
ag44
atp487
bsg15
Nstp488
Rp489
a(lp490
g25
(g26
(I0
tp491
g28
tp492
Rp493
(I1
(I6
tp494
g55
I00
S'^m\xae\x12\xb5\xb2\xf1?\x93\xd1\xf5R"\xa8%@~3c\x86B\xff0@\xb2;<\x9e\x84\xa7\x00@\xcb"{\xf5y\x1f\x01@\xb2\x1dw\xa1n\xf0\xd7?'
p495
tp496
ba(lp497
g21
(g22
(dp498
g24
g25
(g26
(I0
tp499
g28
tp500
Rp501
(I1
(I6
tp502
g35
I00
(lp503
g39
ag40
ag41
ag42
ag43
ag44
atp504
bsg15
Nstp505
Rp506
a(dp507
g71
(dp508
g73
g480
sg74
(lp509
(dp510
g77
g78
(I0
I6
I1
tp511
Rp512
sg81
g493
sasstp513
bsg83
g84
sg15
NsbsF30.0
g7
(g8
g9
Ntp514
Rp515
(dp516
g13
g14
sg16
g7
(g17
g9
Ntp517
Rp518
((lp519
g21
(g22
(dp520
g24
g25
(g26
(I0
tp521
g28
tp522
Rp523
(I1
(I6
tp524
g35
I00
(lp525
g39
ag40
ag41
ag42
ag43
ag44
atp526
bsg15
Nstp527
Rp528
a(lp529
g25
(g26
(I0
tp530
g28
tp531
Rp532
(I1
(I6
tp533
g55
I00
S'\x80\xfe\rx\x12\x9f\xf0?\xc1\xb1\xc1t\xfe#$@\xc7M \xae"\xed0@M\xcf\xd1A\xdc\xcb\xff?\x02S\xe3\xe6\x05\x02\x02@\x8a\xcb?e\x9f\xf0\xd8?'
p534
tp535
ba(lp536
g21
(g22
(dp537
g24
g25
(g26
(I0
tp538
g28
tp539
Rp540
(I1
(I6
tp541
g35
I00
(lp542
g39
ag40
ag41
ag42
ag43
ag44
atp543
bsg15
Nstp544
Rp545
a(dp546
g71
(dp547
g73
g519
sg74
(lp548
(dp549
g77
g78
(I0
I6
I1
tp550
Rp551
sg81
g532
sasstp552
bsg83
g84
sg15
NsbssS'normal'
p553
(dp554
F100.0
g7
(g8
g9
Ntp555
Rp556
(dp557
g13
g14
sg16
g7
(g17
g9
Ntp558
Rp559
((lp560
g21
(g22
(dp561
g24
g25
(g26
(I0
tp562
g28
tp563
Rp564
(I1
(I6
tp565
g35
I00
(lp566
g39
ag40
ag41
ag42
ag43
ag44
atp567
bsg15
Nstp568
Rp569
a(lp570
g25
(g26
(I0
tp571
g28
tp572
Rp573
(I1
(I6
tp574
g55
I00
S'S\xe3\xdb\xdcH]\xf6?Q\xa7\xba\xf2\xef0!@\xe6nq\x86\xd8/3@%*\xc6\x85W\xbd\xfe?u0zFP\xd2\x01@\x7f\x020U\xa8\x94\xd7?'
p575
tp576
ba(lp577
g21
(g22
(dp578
g24
g25
(g26
(I0
tp579
g28
tp580
Rp581
(I1
(I6
tp582
g35
I00
(lp583
g39
ag40
ag41
ag42
ag43
ag44
atp584
bsg15
Nstp585
Rp586
a(dp587
g71
(dp588
g73
g560
sg74
(lp589
(dp590
g77
g78
(I0
I6
I1
tp591
Rp592
sg81
g573
sasstp593
bsg83
g84
sg15
NsbsF70.0
g7
(g8
g9
Ntp594
Rp595
(dp596
g13
g14
sg16
g7
(g17
g9
Ntp597
Rp598
((lp599
g21
(g22
(dp600
g24
g25
(g26
(I0
tp601
g28
tp602
Rp603
(I1
(I6
tp604
g35
I00
(lp605
g39
ag40
ag41
ag42
ag43
ag44
atp606
bsg15
Nstp607
Rp608
a(lp609
g25
(g26
(I0
tp610
g28
tp611
Rp612
(I1
(I6
tp613
g55
I00
S'p\xd0\xd5\x0e\xbdF\xf6?\xc0\xe0\xeay%\xf6 @\xd6\xe74\xc2\xd4\xfa2@z\xe5\x88\xca\x11\x0f\xfe?\xd4\xc2\xff\xf9\xc5\xbf\x01@P\xc4\x1d!RU\xd2?'
p614
tp615
ba(lp616
g21
(g22
(dp617
g24
g25
(g26
(I0
tp618
g28
tp619
Rp620
(I1
(I6
tp621
g35
I00
(lp622
g39
ag40
ag41
ag42
ag43
ag44
atp623
bsg15
Nstp624
Rp625
a(dp626
g71
(dp627
g73
g599
sg74
(lp628
(dp629
g77
g78
(I0
I6
I1
tp630
Rp631
sg81
g612
sasstp632
bsg83
g84
sg15
NsbsF6.0
g7
(g8
g9
Ntp633
Rp634
(dp635
g13
g14
sg16
g7
(g17
g9
Ntp636
Rp637
((lp638
g21
(g22
(dp639
g24
g25
(g26
(I0
tp640
g28
tp641
Rp642
(I1
(I6
tp643
g35
I00
(lp644
g39
ag40
ag41
ag42
ag43
ag44
atp645
bsg15
Nstp646
Rp647
a(lp648
g25
(g26
(I0
tp649
g28
tp650
Rp651
(I1
(I6
tp652
g55
I00
S"\xeb&\r\x14\xb2;\xff?\x96\x18\xd20\xd4)#@\x80\xca\xc2\xb5\xdc\xed;@\x18\xe2v{\x89'\x03@\x017\xd9\x9f\xf1\xa6\x14@6\xb4\xd7eai\x19@"
p653
tp654
ba(lp655
g21
(g22
(dp656
g24
g25
(g26
(I0
tp657
g28
tp658
Rp659
(I1
(I6
tp660
g35
I00
(lp661
g39
ag40
ag41
ag42
ag43
ag44
atp662
bsg15
Nstp663
Rp664
a(dp665
g71
(dp666
g73
g638
sg74
(lp667
(dp668
g77
g78
(I0
I6
I1
tp669
Rp670
sg81
g651
sasstp671
bsg83
g84
sg15
NsbsF40.0
g7
(g8
g9
Ntp672
Rp673
(dp674
g13
g14
sg16
g7
(g17
g9
Ntp675
Rp676
((lp677
g21
(g22
(dp678
g24
g25
(g26
(I0
tp679
g28
tp680
Rp681
(I1
(I6
tp682
g35
I00
(lp683
g39
ag40
ag41
ag42
ag43
ag44
atp684
bsg15
Nstp685
Rp686
a(lp687
g25
(g26
(I0
tp688
g28
tp689
Rp690
(I1
(I6
tp691
g55
I00
S'\xcb\xb0\x12\xdb\xbc^\xf7?\xb6\xa8ylq\xe9\x1d@,n\xf2@\xaf\x7f5@>YX\x86\xd7\xc3\xfc?60f\xc8W\x87\x02@\x14\tg7\xf1\x08\xe1?'
p692
tp693
ba(lp694
g21
(g22
(dp695
g24
g25
(g26
(I0
tp696
g28
tp697
Rp698
(I1
(I6
tp699
g35
I00
(lp700
g39
ag40
ag41
ag42
ag43
ag44
atp701
bsg15
Nstp702
Rp703
a(dp704
g71
(dp705
g73
g677
sg74
(lp706
(dp707
g77
g78
(I0
I6
I1
tp708
Rp709
sg81
g690
sasstp710
bsg83
g84
sg15
NsbsF9.0
g7
(g8
g9
Ntp711
Rp712
(dp713
g13
g14
sg16
g7
(g17
g9
Ntp714
Rp715
((lp716
g21
(g22
(dp717
g24
g25
(g26
(I0
tp718
g28
tp719
Rp720
(I1
(I6
tp721
g35
I00
(lp722
g39
ag40
ag41
ag42
ag43
ag44
atp723
bsg15
Nstp724
Rp725
a(lp726
g25
(g26
(I0
tp727
g28
tp728
Rp729
(I1
(I6
tp730
g55
I00
S"\x0b%\xd4VI\xbd\x00@\x9dz\x83\x81\xe1\xe5%@\xf5\x8c\xfdL\xdf\xb99@\xca\x1f\xdb\xb8\xbf\xa9\x04@\xed\xc4'Q\xe3\x80\r@\x8f\xb6\x18h\x02\x0c\x13@"
p731
tp732
ba(lp733
g21
(g22
(dp734
g24
g25
(g26
(I0
tp735
g28
tp736
Rp737
(I1
(I6
tp738
g35
I00
(lp739
g39
ag40
ag41
ag42
ag43
ag44
atp740
bsg15
Nstp741
Rp742
a(dp743
g71
(dp744
g73
g716
sg74
(lp745
(dp746
g77
g78
(I0
I6
I1
tp747
Rp748
sg81
g729
sasstp749
bsg83
g84
sg15
NsbsF10.0
g7
(g8
g9
Ntp750
Rp751
(dp752
g13
g14
sg16
g7
(g17
g9
Ntp753
Rp754
((lp755
g21
(g22
(dp756
g24
g25
(g26
(I0
tp757
g28
tp758
Rp759
(I1
(I6
tp760
g35
I00
(lp761
g39
ag40
ag41
ag42
ag43
ag44
atp762
bsg15
Nstp763
Rp764
a(lp765
g25
(g26
(I0
tp766
g28
tp767
Rp768
(I1
(I6
tp769
g55
I00
S"\x0b%\xd4VI\xbd\x00@\x9dz\x83\x81\xe1\xe5%@\xf5\x8c\xfdL\xdf\xb99@\xca\x1f\xdb\xb8\xbf\xa9\x04@\xed\xc4'Q\xe3\x80\r@\x8f\xb6\x18h\x02\x0c\x13@"
p770
tp771
ba(lp772
g21
(g22
(dp773
g24
g25
(g26
(I0
tp774
g28
tp775
Rp776
(I1
(I6
tp777
g35
I00
(lp778
g39
ag40
ag41
ag42
ag43
ag44
atp779
bsg15
Nstp780
Rp781
a(dp782
g71
(dp783
g73
g755
sg74
(lp784
(dp785
g77
g78
(I0
I6
I1
tp786
Rp787
sg81
g768
sasstp788
bsg83
g84
sg15
NsbsF15.0
g7
(g8
g9
Ntp789
Rp790
(dp791
g13
g14
sg16
g7
(g17
g9
Ntp792
Rp793
((lp794
g21
(g22
(dp795
g24
g25
(g26
(I0
tp796
g28
tp797
Rp798
(I1
(I6
tp799
g35
I00
(lp800
g39
ag40
ag41
ag42
ag43
ag44
atp801
bsg15
Nstp802
Rp803
a(lp804
g25
(g26
(I0
tp805
g28
tp806
Rp807
(I1
(I6
tp808
g55
I00
S'\xa1Z\x9d)\xd1\x9f\xf8?\xce\xb26\x94\x81\xdf"@\xb6\xcc2f?\xd26@N\xb7Ub\xc0f\xfe?\xc0\x1d\x1d\xe9\x07\x8f\x04@\x84\x96\n\x88\x15\xe6\xe3?'
p809
tp810
ba(lp811
g21
(g22
(dp812
g24
g25
(g26
(I0
tp813
g28
tp814
Rp815
(I1
(I6
tp816
g35
I00
(lp817
g39
ag40
ag41
ag42
ag43
ag44
atp818
bsg15
Nstp819
Rp820
a(dp821
g71
(dp822
g73
g794
sg74
(lp823
(dp824
g77
g78
(I0
I6
I1
tp825
Rp826
sg81
g807
sasstp827
bsg83
g84
sg15
NsbsF80.0
g7
(g8
g9
Ntp828
Rp829
(dp830
g13
g14
sg16
g7
(g17
g9
Ntp831
Rp832
((lp833
g21
(g22
(dp834
g24
g25
(g26
(I0
tp835
g28
tp836
Rp837
(I1
(I6
tp838
g35
I00
(lp839
g39
ag40
ag41
ag42
ag43
ag44
atp840
bsg15
Nstp841
Rp842
a(lp843
g25
(g26
(I0
tp844
g28
tp845
Rp846
(I1
(I6
tp847
g55
I00
S' \xcf-rph\xf6?\x96\n\xe5\xa8\xca\x08\x1e@\x02Zj\x8art2@\xf3\x98\xf4=\xff4\xfb?\xba\xcdO/\x14\x06\x02@\xed9Xi\xfe\xfd\xdd?'
p848
tp849
ba(lp850
g21
(g22
(dp851
g24
g25
(g26
(I0
tp852
g28
tp853
Rp854
(I1
(I6
tp855
g35
I00
(lp856
g39
ag40
ag41
ag42
ag43
ag44
atp857
bsg15
Nstp858
Rp859
a(dp860
g71
(dp861
g73
g833
sg74
(lp862
(dp863
g77
g78
(I0
I6
I1
tp864
Rp865
sg81
g846
sasstp866
bsg83
g84
sg15
NsbsF50.0
g7
(g8
g9
Ntp867
Rp868
(dp869
g13
g14
sg16
g7
(g17
g9
Ntp870
Rp871
((lp872
g21
(g22
(dp873
g24
g25
(g26
(I0
tp874
g28
tp875
Rp876
(I1
(I6
tp877
g35
I00
(lp878
g39
ag40
ag41
ag42
ag43
ag44
atp879
bsg15
Nstp880
Rp881
a(lp882
g25
(g26
(I0
tp883
g28
tp884
Rp885
(I1
(I6
tp886
g55
I00
S'\x84D \x8b\x9a\xbd\xf7?\r<BJ*\x9b!@\x7f\xcc\xeej\xe5\xac3@F\xbe\x0b\x0cB\xda\xff?\xab\xd2\xe8\x9ew\xe2\x02@\x06l\x0c%\x96|\xd9?'
p887
tp888
ba(lp889
g21
(g22
(dp890
g24
g25
(g26
(I0
tp891
g28
tp892
Rp893
(I1
(I6
tp894
g35
I00
(lp895
g39
ag40
ag41
ag42
ag43
ag44
atp896
bsg15
Nstp897
Rp898
a(dp899
g71
(dp900
g73
g872
sg74
(lp901
(dp902
g77
g78
(I0
I6
I1
tp903
Rp904
sg81
g885
sasstp905
bsg83
g84
sg15
NsbsF20.0
g7
(g8
g9
Ntp906
Rp907
(dp908
g13
g14
sg16
g7
(g17
g9
Ntp909
Rp910
((lp911
g21
(g22
(dp912
g24
g25
(g26
(I0
tp913
g28
tp914
Rp915
(I1
(I6
tp916
g35
I00
(lp917
g39
ag40
ag41
ag42
ag43
ag44
atp918
bsg15
Nstp919
Rp920
a(lp921
g25
(g26
(I0
tp922
g28
tp923
Rp924
(I1
(I6
tp925
g55
I00
S'pJl8\xb30\xfb?\xee\x94<i\xd1\x9a"@\xb09\xb4\x89\xf1\x886@\xc64\n\xdf\xfa\xfa\xfe?G\x19\xcd\xfeF;\x06@\xfa\xd8\xf4\xe3Qd\xe9?'
p926
tp927
ba(lp928
g21
(g22
(dp929
g24
g25
(g26
(I0
tp930
g28
tp931
Rp932
(I1
(I6
tp933
g35
I00
(lp934
g39
ag40
ag41
ag42
ag43
ag44
atp935
bsg15
Nstp936
Rp937
a(dp938
g71
(dp939
g73
g911
sg74
(lp940
(dp941
g77
g78
(I0
I6
I1
tp942
Rp943
sg81
g924
sasstp944
bsg83
g84
sg15
NsbsF90.0
g7
(g8
g9
Ntp945
Rp946
(dp947
g13
g14
sg16
g7
(g17
g9
Ntp948
Rp949
((lp950
g21
(g22
(dp951
g24
g25
(g26
(I0
tp952
g28
tp953
Rp954
(I1
(I6
tp955
g35
I00
(lp956
g39
ag40
ag41
ag42
ag43
ag44
atp957
bsg15
Nstp958
Rp959
a(lp960
g25
(g26
(I0
tp961
g28
tp962
Rp963
(I1
(I6
tp964
g55
I00
S'\xff=\xb9-\x8e\x93\xf4?\xee\xa9\x8f+\x03\x84 @\xe2a\xd4\x0f\xce\x9c3@\xe0?`\x13a\xdf\xfc?\x84\x10\x02\xa6x\xd1\x01@\xa43z\x8f\xc9|\xd4?'
p965
tp966
ba(lp967
g21
(g22
(dp968
g24
g25
(g26
(I0
tp969
g28
tp970
Rp971
(I1
(I6
tp972
g35
I00
(lp973
g39
ag40
ag41
ag42
ag43
ag44
atp974
bsg15
Nstp975
Rp976
a(dp977
g71
(dp978
g73
g950
sg74
(lp979
(dp980
g77
g78
(I0
I6
I1
tp981
Rp982
sg81
g963
sasstp983
bsg83
g84
sg15
NsbsF60.0
g7
(g8
g9
Ntp984
Rp985
(dp986
g13
g14
sg16
g7
(g17
g9
Ntp987
Rp988
((lp989
g21
(g22
(dp990
g24
g25
(g26
(I0
tp991
g28
tp992
Rp993
(I1
(I6
tp994
g35
I00
(lp995
g39
ag40
ag41
ag42
ag43
ag44
atp996
bsg15
Nstp997
Rp998
a(lp999
g25
(g26
(I0
tp1000
g28
tp1001
Rp1002
(I1
(I6
tp1003
g55
I00
S'r\x9bRZa}\xf5?\xf6\xdb\x19m\xc1\xfc\x1f@\x813\xa2sc\xea3@p\x1d\xf9\x8b\xf0]\xfd?B\x92)S\xe6\xfa\x01@>\xb3\xff\x0bS\x98\xdd?'
p1004
tp1005
ba(lp1006
g21
(g22
(dp1007
g24
g25
(g26
(I0
tp1008
g28
tp1009
Rp1010
(I1
(I6
tp1011
g35
I00
(lp1012
g39
ag40
ag41
ag42
ag43
ag44
atp1013
bsg15
Nstp1014
Rp1015
a(dp1016
g71
(dp1017
g73
g989
sg74
(lp1018
(dp1019
g77
g78
(I0
I6
I1
tp1020
Rp1021
sg81
g1002
sasstp1022
bsg83
g84
sg15
NsbsF30.0
g7
(g8
g9
Ntp1023
Rp1024
(dp1025
g13
g14
sg16
g7
(g17
g9
Ntp1026
Rp1027
((lp1028
g21
(g22
(dp1029
g24
g25
(g26
(I0
tp1030
g28
tp1031
Rp1032
(I1
(I6
tp1033
g35
I00
(lp1034
g39
ag40
ag41
ag42
ag43
ag44
atp1035
bsg15
Nstp1036
Rp1037
a(lp1038
g25
(g26
(I0
tp1039
g28
tp1040
Rp1041
(I1
(I6
tp1042
g55
I00
S'\x04b*9M\x8a\xf7?g})+\xa3\xdc @\xebL\xef\xa8\x93b5@N\x9cX\xd3pt\x00@\x17\x03\x80:\xf2\x95\x04@>\xafaB\x95\xb0\xe4?'
p1043
tp1044
ba(lp1045
g21
(g22
(dp1046
g24
g25
(g26
(I0
tp1047
g28
tp1048
Rp1049
(I1
(I6
tp1050
g35
I00
(lp1051
g39
ag40
ag41
ag42
ag43
ag44
atp1052
bsg15
Nstp1053
Rp1054
a(dp1055
g71
(dp1056
g73
g1028
sg74
(lp1057
(dp1058
g77
g78
(I0
I6
I1
tp1059
Rp1060
sg81
g1041
sasstp1061
bsg83
g84
sg15
NsbsssS'True'
p1062
(dp1063
g5
(dp1064
F100.0
g7
(g8
g9
Ntp1065
Rp1066
(dp1067
g13
g14
sg16
g7
(g17
g9
Ntp1068
Rp1069
((lp1070
g21
(g22
(dp1071
g24
g25
(g26
(I0
tp1072
g28
tp1073
Rp1074
(I1
(I6
tp1075
g35
I00
(lp1076
g39
ag40
ag41
ag42
ag43
ag44
atp1077
bsg15
Nstp1078
Rp1079
a(lp1080
g25
(g26
(I0
tp1081
g28
tp1082
Rp1083
(I1
(I6
tp1084
g55
I00
S'[\x8e5\x14N9\xf2?&U\xaeCz\xec$@\x12\xbcx\x02\xdc\x82.@\xf6\\\x08:9\x9c\x00@zv\xc4\xfc\x112\x01@\xbes\xd40\xddU\xd7?'
p1085
tp1086
ba(lp1087
g21
(g22
(dp1088
g24
g25
(g26
(I0
tp1089
g28
tp1090
Rp1091
(I1
(I6
tp1092
g35
I00
(lp1093
g39
ag40
ag41
ag42
ag43
ag44
atp1094
bsg15
Nstp1095
Rp1096
a(dp1097
g71
(dp1098
g73
g1070
sg74
(lp1099
(dp1100
g77
g78
(I0
I6
I1
tp1101
Rp1102
sg81
g1083
sasstp1103
bsg83
g84
sg15
NsbsF70.0
g7
(g8
g9
Ntp1104
Rp1105
(dp1106
g13
g14
sg16
g7
(g17
g9
Ntp1107
Rp1108
((lp1109
g21
(g22
(dp1110
g24
g25
(g26
(I0
tp1111
g28
tp1112
Rp1113
(I1
(I6
tp1114
g35
I00
(lp1115
g39
ag40
ag41
ag42
ag43
ag44
atp1116
bsg15
Nstp1117
Rp1118
a(lp1119
g25
(g26
(I0
tp1120
g28
tp1121
Rp1122
(I1
(I6
tp1123
g55
I00
S'#Ba\x82\xe1*\xf1?\xfa\x83U<\r{$@\xab\t\xbc\x94\xa6\x980@]\xf1w6\xbe\xa1\xfe?\xfa\xa2\x8b\xb7\x00\\\x01@\x8a\xdb\xd2\n\xc3\r\xd7?'
p1124
tp1125
ba(lp1126
g21
(g22
(dp1127
g24
g25
(g26
(I0
tp1128
g28
tp1129
Rp1130
(I1
(I6
tp1131
g35
I00
(lp1132
g39
ag40
ag41
ag42
ag43
ag44
atp1133
bsg15
Nstp1134
Rp1135
a(dp1136
g71
(dp1137
g73
g1109
sg74
(lp1138
(dp1139
g77
g78
(I0
I6
I1
tp1140
Rp1141
sg81
g1122
sasstp1142
bsg83
g84
sg15
NsbsF6.0
g7
(g8
g9
Ntp1143
Rp1144
(dp1145
g13
g14
sg16
g7
(g17
g9
Ntp1146
Rp1147
((lp1148
g21
(g22
(dp1149
g24
g25
(g26
(I0
tp1150
g28
tp1151
Rp1152
(I1
(I6
tp1153
g35
I00
(lp1154
g39
ag40
ag41
ag42
ag43
ag44
atp1155
bsg15
Nstp1156
Rp1157
a(lp1158
g25
(g26
(I0
tp1159
g28
tp1160
Rp1161
(I1
(I6
tp1162
g55
I00
S'\xe3\xd6\xd6L?O\xef?\x10\x94\xfc\xf7\x04\xcb#@\\\x81\xd6\xe3g\xc96@\xfck\xe8\x8d\x17D\x01@\x9e\xabv\x1f\x17\xfb\x01@\x9a\xe9\x98<\xc1h\xd9?'
p1163
tp1164
ba(lp1165
g21
(g22
(dp1166
g24
g25
(g26
(I0
tp1167
g28
tp1168
Rp1169
(I1
(I6
tp1170
g35
I00
(lp1171
g39
ag40
ag41
ag42
ag43
ag44
atp1172
bsg15
Nstp1173
Rp1174
a(dp1175
g71
(dp1176
g73
g1148
sg74
(lp1177
(dp1178
g77
g78
(I0
I6
I1
tp1179
Rp1180
sg81
g1161
sasstp1181
bsg83
g84
sg15
NsbsF40.0
g7
(g8
g9
Ntp1182
Rp1183
(dp1184
g13
g14
sg16
g7
(g17
g9
Ntp1185
Rp1186
((lp1187
g21
(g22
(dp1188
g24
g25
(g26
(I0
tp1189
g28
tp1190
Rp1191
(I1
(I6
tp1192
g35
I00
(lp1193
g39
ag40
ag41
ag42
ag43
ag44
atp1194
bsg15
Nstp1195
Rp1196
a(lp1197
g25
(g26
(I0
tp1198
g28
tp1199
Rp1200
(I1
(I6
tp1201
g55
I00
S'R\xb4\x8a\xb7\x9dM\xf0?\x99\xba]GZ\x9d$@\x9a\xe7V\xa5\xf6c2@L\x1f\xaa$\x17p\x00@\x7f~\xccR\xca\xa2\x01@R\x19I\x8c<y\xd8?'
p1202
tp1203
ba(lp1204
g21
(g22
(dp1205
g24
g25
(g26
(I0
tp1206
g28
tp1207
Rp1208
(I1
(I6
tp1209
g35
I00
(lp1210
g39
ag40
ag41
ag42
ag43
ag44
atp1211
bsg15
Nstp1212
Rp1213
a(dp1214
g71
(dp1215
g73
g1187
sg74
(lp1216
(dp1217
g77
g78
(I0
I6
I1
tp1218
Rp1219
sg81
g1200
sasstp1220
bsg83
g84
sg15
NsbsF9.0
g7
(g8
g9
Ntp1221
Rp1222
(dp1223
g13
g14
sg16
g7
(g17
g9
Ntp1224
Rp1225
((lp1226
g21
(g22
(dp1227
g24
g25
(g26
(I0
tp1228
g28
tp1229
Rp1230
(I1
(I6
tp1231
g35
I00
(lp1232
g39
ag40
ag41
ag42
ag43
ag44
atp1233
bsg15
Nstp1234
Rp1235
a(lp1236
g25
(g26
(I0
tp1237
g28
tp1238
Rp1239
(I1
(I6
tp1240
g55
I00
S'\x9b&H\xcc\xfa\xd3\xef?"\xc4\x14\xbe\x96\xd0#@\x86\x18\x04\x9e\x8ej4@N,g\xcb\xc0V\x01@;\x86\x1c\x91\x94\xaf\x02@#\xc3\xac7|\xf4\xd9?'
p1241
tp1242
ba(lp1243
g21
(g22
(dp1244
g24
g25
(g26
(I0
tp1245
g28
tp1246
Rp1247
(I1
(I6
tp1248
g35
I00
(lp1249
g39
ag40
ag41
ag42
ag43
ag44
atp1250
bsg15
Nstp1251
Rp1252
a(dp1253
g71
(dp1254
g73
g1226
sg74
(lp1255
(dp1256
g77
g78
(I0
I6
I1
tp1257
Rp1258
sg81
g1239
sasstp1259
bsg83
g84
sg15
NsbsF10.0
g7
(g8
g9
Ntp1260
Rp1261
(dp1262
g13
g14
sg16
g7
(g17
g9
Ntp1263
Rp1264
((lp1265
g21
(g22
(dp1266
g24
g25
(g26
(I0
tp1267
g28
tp1268
Rp1269
(I1
(I6
tp1270
g35
I00
(lp1271
g39
ag40
ag41
ag42
ag43
ag44
atp1272
bsg15
Nstp1273
Rp1274
a(lp1275
g25
(g26
(I0
tp1276
g28
tp1277
Rp1278
(I1
(I6
tp1279
g55
I00
S'\x9b&H\xcc\xfa\xd3\xef?"\xc4\x14\xbe\x96\xd0#@\x86\x18\x04\x9e\x8ej4@N,g\xcb\xc0V\x01@;\x86\x1c\x91\x94\xaf\x02@#\xc3\xac7|\xf4\xd9?'
p1280
tp1281
ba(lp1282
g21
(g22
(dp1283
g24
g25
(g26
(I0
tp1284
g28
tp1285
Rp1286
(I1
(I6
tp1287
g35
I00
(lp1288
g39
ag40
ag41
ag42
ag43
ag44
atp1289
bsg15
Nstp1290
Rp1291
a(dp1292
g71
(dp1293
g73
g1265
sg74
(lp1294
(dp1295
g77
g78
(I0
I6
I1
tp1296
Rp1297
sg81
g1278
sasstp1298
bsg83
g84
sg15
NsbsF15.0
g7
(g8
g9
Ntp1299
Rp1300
(dp1301
g13
g14
sg16
g7
(g17
g9
Ntp1302
Rp1303
((lp1304
g21
(g22
(dp1305
g24
g25
(g26
(I0
tp1306
g28
tp1307
Rp1308
(I1
(I6
tp1309
g35
I00
(lp1310
g39
ag40
ag41
ag42
ag43
ag44
atp1311
bsg15
Nstp1312
Rp1313
a(lp1314
g25
(g26
(I0
tp1315
g28
tp1316
Rp1317
(I1
(I6
tp1318
g55
I00
S'{\xa5\xc6\xfbu\xc4\xee?\xa4\xb7\x8c{u\xf1#@\xcc\x9a\x8a,\x02"1@\x87\x1b\xbf\xa7\x83"\x00@\x8f\xb8-\x9f\xd8x\x02@\x8d;\x88]\xe9\xbf\xda?'
p1319
tp1320
ba(lp1321
g21
(g22
(dp1322
g24
g25
(g26
(I0
tp1323
g28
tp1324
Rp1325
(I1
(I6
tp1326
g35
I00
(lp1327
g39
ag40
ag41
ag42
ag43
ag44
atp1328
bsg15
Nstp1329
Rp1330
a(dp1331
g71
(dp1332
g73
g1304
sg74
(lp1333
(dp1334
g77
g78
(I0
I6
I1
tp1335
Rp1336
sg81
g1317
sasstp1337
bsg83
g84
sg15
NsbsF80.0
g7
(g8
g9
Ntp1338
Rp1339
(dp1340
g13
g14
sg16
g7
(g17
g9
Ntp1341
Rp1342
((lp1343
g21
(g22
(dp1344
g24
g25
(g26
(I0
tp1345
g28
tp1346
Rp1347
(I1
(I6
tp1348
g35
I00
(lp1349
g39
ag40
ag41
ag42
ag43
ag44
atp1350
bsg15
Nstp1351
Rp1352
a(lp1353
g25
(g26
(I0
tp1354
g28
tp1355
Rp1356
(I1
(I6
tp1357
g55
I00
S'\xb9_~\xc3\xce \xf1?\xbbP\x95\xd9\x13k%@\xd5\x1an\xdf\x98\x191@\x80\x1d\xa6S!\x92\x00@n\xed\xa6\x91"U\x01@\xd22\xc9\xff\xcdf\xd6?'
p1358
tp1359
ba(lp1360
g21
(g22
(dp1361
g24
g25
(g26
(I0
tp1362
g28
tp1363
Rp1364
(I1
(I6
tp1365
g35
I00
(lp1366
g39
ag40
ag41
ag42
ag43
ag44
atp1367
bsg15
Nstp1368
Rp1369
a(dp1370
g71
(dp1371
g73
g1343
sg74
(lp1372
(dp1373
g77
g78
(I0
I6
I1
tp1374
Rp1375
sg81
g1356
sasstp1376
bsg83
g84
sg15
NsbsF50.0
g7
(g8
g9
Ntp1377
Rp1378
(dp1379
g13
g14
sg16
g7
(g17
g9
Ntp1380
Rp1381
((lp1382
g21
(g22
(dp1383
g24
g25
(g26
(I0
tp1384
g28
tp1385
Rp1386
(I1
(I6
tp1387
g35
I00
(lp1388
g39
ag40
ag41
ag42
ag43
ag44
atp1389
bsg15
Nstp1390
Rp1391
a(lp1392
g25
(g26
(I0
tp1393
g28
tp1394
Rp1395
(I1
(I6
tp1396
g55
I00
S'\xae\xde\xe7\xe6m\xaa\xf0?\x91\xd0\x9f\xc5\x12\xa6$@\xd2\x98\xdc\x89\xb4:0@\xa6\xce\xf7\x06uR\xff?=+\x92\xe3\xdfT\x01@#\xc5\xe2\xb6OI\xd8?'
p1397
tp1398
ba(lp1399
g21
(g22
(dp1400
g24
g25
(g26
(I0
tp1401
g28
tp1402
Rp1403
(I1
(I6
tp1404
g35
I00
(lp1405
g39
ag40
ag41
ag42
ag43
ag44
atp1406
bsg15
Nstp1407
Rp1408
a(dp1409
g71
(dp1410
g73
g1382
sg74
(lp1411
(dp1412
g77
g78
(I0
I6
I1
tp1413
Rp1414
sg81
g1395
sasstp1415
bsg83
g84
sg15
NsbsF20.0
g7
(g8
g9
Ntp1416
Rp1417
(dp1418
g13
g14
sg16
g7
(g17
g9
Ntp1419
Rp1420
((lp1421
g21
(g22
(dp1422
g24
g25
(g26
(I0
tp1423
g28
tp1424
Rp1425
(I1
(I6
tp1426
g35
I00
(lp1427
g39
ag40
ag41
ag42
ag43
ag44
atp1428
bsg15
Nstp1429
Rp1430
a(lp1431
g25
(g26
(I0
tp1432
g28
tp1433
Rp1434
(I1
(I6
tp1435
g55
I00
S'pa\x95v\xd9O\xf0?C\x0ef\x18\x9bq$@\xfc\x82-\xe7I-3@\xc0l\xbe\xe2\\\x18\x00@FF$P\x95p\x02@Z\xf9N2\xa68\xd8?'
p1436
tp1437
ba(lp1438
g21
(g22
(dp1439
g24
g25
(g26
(I0
tp1440
g28
tp1441
Rp1442
(I1
(I6
tp1443
g35
I00
(lp1444
g39
ag40
ag41
ag42
ag43
ag44
atp1445
bsg15
Nstp1446
Rp1447
a(dp1448
g71
(dp1449
g73
g1421
sg74
(lp1450
(dp1451
g77
g78
(I0
I6
I1
tp1452
Rp1453
sg81
g1434
sasstp1454
bsg83
g84
sg15
NsbsF90.0
g7
(g8
g9
Ntp1455
Rp1456
(dp1457
g13
g14
sg16
g7
(g17
g9
Ntp1458
Rp1459
((lp1460
g21
(g22
(dp1461
g24
g25
(g26
(I0
tp1462
g28
tp1463
Rp1464
(I1
(I6
tp1465
g35
I00
(lp1466
g39
ag40
ag41
ag42
ag43
ag44
atp1467
bsg15
Nstp1468
Rp1469
a(lp1470
g25
(g26
(I0
tp1471
g28
tp1472
Rp1473
(I1
(I6
tp1474
g55
I00
S'\xcec\x15@\t>\xf2?\xc6}\xddva\x1a%@\x10\xfdO\xf0\x0b80@\x1d.\xdd\xa2\x80\xec\xfe?t\x15_\xac\xeb\xd8\x00@\x87g\xe5cp\xeb\xd7?'
p1475
tp1476
ba(lp1477
g21
(g22
(dp1478
g24
g25
(g26
(I0
tp1479
g28
tp1480
Rp1481
(I1
(I6
tp1482
g35
I00
(lp1483
g39
ag40
ag41
ag42
ag43
ag44
atp1484
bsg15
Nstp1485
Rp1486
a(dp1487
g71
(dp1488
g73
g1460
sg74
(lp1489
(dp1490
g77
g78
(I0
I6
I1
tp1491
Rp1492
sg81
g1473
sasstp1493
bsg83
g84
sg15
NsbsF60.0
g7
(g8
g9
Ntp1494
Rp1495
(dp1496
g13
g14
sg16
g7
(g17
g9
Ntp1497
Rp1498
((lp1499
g21
(g22
(dp1500
g24
g25
(g26
(I0
tp1501
g28
tp1502
Rp1503
(I1
(I6
tp1504
g35
I00
(lp1505
g39
ag40
ag41
ag42
ag43
ag44
atp1506
bsg15
Nstp1507
Rp1508
a(lp1509
g25
(g26
(I0
tp1510
g28
tp1511
Rp1512
(I1
(I6
tp1513
g55
I00
S'\x97j\xb6\x9f\x8bk\xf0?\x83\x9fn\xc5\x81d$@j\xec\x17\x94\x1d\xf80@8t\x1f\r\xca\x1e\xff?\x8c\xd2.3@R\x01@\x10\x8a@\xca\x9d,\xd8?'
p1514
tp1515
ba(lp1516
g21
(g22
(dp1517
g24
g25
(g26
(I0
tp1518
g28
tp1519
Rp1520
(I1
(I6
tp1521
g35
I00
(lp1522
g39
ag40
ag41
ag42
ag43
ag44
atp1523
bsg15
Nstp1524
Rp1525
a(dp1526
g71
(dp1527
g73
g1499
sg74
(lp1528
(dp1529
g77
g78
(I0
I6
I1
tp1530
Rp1531
sg81
g1512
sasstp1532
bsg83
g84
sg15
NsbsF30.0
g7
(g8
g9
Ntp1533
Rp1534
(dp1535
g13
g14
sg16
g7
(g17
g9
Ntp1536
Rp1537
((lp1538
g21
(g22
(dp1539
g24
g25
(g26
(I0
tp1540
g28
tp1541
Rp1542
(I1
(I6
tp1543
g35
I00
(lp1544
g39
ag40
ag41
ag42
ag43
ag44
atp1545
bsg15
Nstp1546
Rp1547
a(lp1548
g25
(g26
(I0
tp1549
g28
tp1550
Rp1551
(I1
(I6
tp1552
g55
I00
S'\xc7y\x11\xe1\x956\xf0?\xa7W\x89\x10\xf05$@\xec\x08V\xa9\x9f\xdc0@\x98\x8f\x8b\xea#\x91\xff?q\xfa\x07H?\xf0\x01@\xaeorw\x93\x9d\xd8?'
p1553
tp1554
ba(lp1555
g21
(g22
(dp1556
g24
g25
(g26
(I0
tp1557
g28
tp1558
Rp1559
(I1
(I6
tp1560
g35
I00
(lp1561
g39
ag40
ag41
ag42
ag43
ag44
atp1562
bsg15
Nstp1563
Rp1564
a(dp1565
g71
(dp1566
g73
g1538
sg74
(lp1567
(dp1568
g77
g78
(I0
I6
I1
tp1569
Rp1570
sg81
g1551
sasstp1571
bsg83
g84
sg15
Nsbssg553
(dp1572
F100.0
g7
(g8
g9
Ntp1573
Rp1574
(dp1575
g13
g14
sg16
g7
(g17
g9
Ntp1576
Rp1577
((lp1578
g21
(g22
(dp1579
g24
g25
(g26
(I0
tp1580
g28
tp1581
Rp1582
(I1
(I6
tp1583
g35
I00
(lp1584
g39
ag40
ag41
ag42
ag43
ag44
atp1585
bsg15
Nstp1586
Rp1587
a(lp1588
g25
(g26
(I0
tp1589
g28
tp1590
Rp1591
(I1
(I6
tp1592
g55
I00
S'K\xa0\x08\x03 \xb5\xf5?\xb8\x1a\\|\t\xe9\x1c@\xa6\x03\xbb\x826[1@K\x99d_\x8fV\xfc?\x9a\xf7ZY@\xd5\x01@\x83\x08\x7f~[\xbe\xd0?'
p1593
tp1594
ba(lp1595
g21
(g22
(dp1596
g24
g25
(g26
(I0
tp1597
g28
tp1598
Rp1599
(I1
(I6
tp1600
g35
I00
(lp1601
g39
ag40
ag41
ag42
ag43
ag44
atp1602
bsg15
Nstp1603
Rp1604
a(dp1605
g71
(dp1606
g73
g1578
sg74
(lp1607
(dp1608
g77
g78
(I0
I6
I1
tp1609
Rp1610
sg81
g1591
sasstp1611
bsg83
g84
sg15
NsbsF70.0
g7
(g8
g9
Ntp1612
Rp1613
(dp1614
g13
g14
sg16
g7
(g17
g9
Ntp1615
Rp1616
((lp1617
g21
(g22
(dp1618
g24
g25
(g26
(I0
tp1619
g28
tp1620
Rp1621
(I1
(I6
tp1622
g35
I00
(lp1623
g39
ag40
ag41
ag42
ag43
ag44
atp1624
bsg15
Nstp1625
Rp1626
a(lp1627
g25
(g26
(I0
tp1628
g28
tp1629
Rp1630
(I1
(I6
tp1631
g55
I00
S'\xe0\xd2\xdc\xdeI\xd0\xf4?\xfaKDd\x85.\x1f@\x90\x94\xd2\x1a\x96\xca1@Vx,K\xb5M\xfd?\r\xe6\ns\xb6\xc2\x01@&7k\x02\xcfD\xd0?'
p1632
tp1633
ba(lp1634
g21
(g22
(dp1635
g24
g25
(g26
(I0
tp1636
g28
tp1637
Rp1638
(I1
(I6
tp1639
g35
I00
(lp1640
g39
ag40
ag41
ag42
ag43
ag44
atp1641
bsg15
Nstp1642
Rp1643
a(dp1644
g71
(dp1645
g73
g1617
sg74
(lp1646
(dp1647
g77
g78
(I0
I6
I1
tp1648
Rp1649
sg81
g1630
sasstp1650
bsg83
g84
sg15
NsbsF6.0
g7
(g8
g9
Ntp1651
Rp1652
(dp1653
g13
g14
sg16
g7
(g17
g9
Ntp1654
Rp1655
((lp1656
g21
(g22
(dp1657
g24
g25
(g26
(I0
tp1658
g28
tp1659
Rp1660
(I1
(I6
tp1661
g35
I00
(lp1662
g39
ag40
ag41
ag42
ag43
ag44
atp1663
bsg15
Nstp1664
Rp1665
a(lp1666
g25
(g26
(I0
tp1667
g28
tp1668
Rp1669
(I1
(I6
tp1670
g55
I00
S"\xeb&\r\x14\xb2;\xff?\x96\x18\xd20\xd4)#@\x80\xca\xc2\xb5\xdc\xed;@\x18\xe2v{\x89'\x03@\x017\xd9\x9f\xf1\xa6\x14@6\xb4\xd7eai\x19@"
p1671
tp1672
ba(lp1673
g21
(g22
(dp1674
g24
g25
(g26
(I0
tp1675
g28
tp1676
Rp1677
(I1
(I6
tp1678
g35
I00
(lp1679
g39
ag40
ag41
ag42
ag43
ag44
atp1680
bsg15
Nstp1681
Rp1682
a(dp1683
g71
(dp1684
g73
g1656
sg74
(lp1685
(dp1686
g77
g78
(I0
I6
I1
tp1687
Rp1688
sg81
g1669
sasstp1689
bsg83
g84
sg15
NsbsF40.0
g7
(g8
g9
Ntp1690
Rp1691
(dp1692
g13
g14
sg16
g7
(g17
g9
Ntp1693
Rp1694
((lp1695
g21
(g22
(dp1696
g24
g25
(g26
(I0
tp1697
g28
tp1698
Rp1699
(I1
(I6
tp1700
g35
I00
(lp1701
g39
ag40
ag41
ag42
ag43
ag44
atp1702
bsg15
Nstp1703
Rp1704
a(lp1705
g25
(g26
(I0
tp1706
g28
tp1707
Rp1708
(I1
(I6
tp1709
g55
I00
S'\xd9\xb7lp\xddN\xf6?j\xc1>\x1e\xc1\xb5\x1f@[\x1bF\xde\xf1I2@\x88\x02*t\x80\x17\xff?v9\xc9\x03\x0c4\x02@\x1d\x02\x1e4\x83k\xda?'
p1710
tp1711
ba(lp1712
g21
(g22
(dp1713
g24
g25
(g26
(I0
tp1714
g28
tp1715
Rp1716
(I1
(I6
tp1717
g35
I00
(lp1718
g39
ag40
ag41
ag42
ag43
ag44
atp1719
bsg15
Nstp1720
Rp1721
a(dp1722
g71
(dp1723
g73
g1695
sg74
(lp1724
(dp1725
g77
g78
(I0
I6
I1
tp1726
Rp1727
sg81
g1708
sasstp1728
bsg83
g84
sg15
NsbsF9.0
g7
(g8
g9
Ntp1729
Rp1730
(dp1731
g13
g14
sg16
g7
(g17
g9
Ntp1732
Rp1733
((lp1734
g21
(g22
(dp1735
g24
g25
(g26
(I0
tp1736
g28
tp1737
Rp1738
(I1
(I6
tp1739
g35
I00
(lp1740
g39
ag40
ag41
ag42
ag43
ag44
atp1741
bsg15
Nstp1742
Rp1743
a(lp1744
g25
(g26
(I0
tp1745
g28
tp1746
Rp1747
(I1
(I6
tp1748
g55
I00
S"\x0b%\xd4VI\xbd\x00@\x9dz\x83\x81\xe1\xe5%@\xf5\x8c\xfdL\xdf\xb99@\xca\x1f\xdb\xb8\xbf\xa9\x04@\xed\xc4'Q\xe3\x80\r@\x8f\xb6\x18h\x02\x0c\x13@"
p1749
tp1750
ba(lp1751
g21
(g22
(dp1752
g24
g25
(g26
(I0
tp1753
g28
tp1754
Rp1755
(I1
(I6
tp1756
g35
I00
(lp1757
g39
ag40
ag41
ag42
ag43
ag44
atp1758
bsg15
Nstp1759
Rp1760
a(dp1761
g71
(dp1762
g73
g1734
sg74
(lp1763
(dp1764
g77
g78
(I0
I6
I1
tp1765
Rp1766
sg81
g1747
sasstp1767
bsg83
g84
sg15
NsbsF10.0
g7
(g8
g9
Ntp1768
Rp1769
(dp1770
g13
g14
sg16
g7
(g17
g9
Ntp1771
Rp1772
((lp1773
g21
(g22
(dp1774
g24
g25
(g26
(I0
tp1775
g28
tp1776
Rp1777
(I1
(I6
tp1778
g35
I00
(lp1779
g39
ag40
ag41
ag42
ag43
ag44
atp1780
bsg15
Nstp1781
Rp1782
a(lp1783
g25
(g26
(I0
tp1784
g28
tp1785
Rp1786
(I1
(I6
tp1787
g55
I00
S"\x0b%\xd4VI\xbd\x00@\x9dz\x83\x81\xe1\xe5%@\xf5\x8c\xfdL\xdf\xb99@\xca\x1f\xdb\xb8\xbf\xa9\x04@\xed\xc4'Q\xe3\x80\r@\x8f\xb6\x18h\x02\x0c\x13@"
p1788
tp1789
ba(lp1790
g21
(g22
(dp1791
g24
g25
(g26
(I0
tp1792
g28
tp1793
Rp1794
(I1
(I6
tp1795
g35
I00
(lp1796
g39
ag40
ag41
ag42
ag43
ag44
atp1797
bsg15
Nstp1798
Rp1799
a(dp1800
g71
(dp1801
g73
g1773
sg74
(lp1802
(dp1803
g77
g78
(I0
I6
I1
tp1804
Rp1805
sg81
g1786
sasstp1806
bsg83
g84
sg15
NsbsF15.0
g7
(g8
g9
Ntp1807
Rp1808
(dp1809
g13
g14
sg16
g7
(g17
g9
Ntp1810
Rp1811
((lp1812
g21
(g22
(dp1813
g24
g25
(g26
(I0
tp1814
g28
tp1815
Rp1816
(I1
(I6
tp1817
g35
I00
(lp1818
g39
ag40
ag41
ag42
ag43
ag44
atp1819
bsg15
Nstp1820
Rp1821
a(lp1822
g25
(g26
(I0
tp1823
g28
tp1824
Rp1825
(I1
(I6
tp1826
g55
I00
S'\xa1Z\x9d)\xd1\x9f\xf8?\xce\xb26\x94\x81\xdf"@\xb6\xcc2f?\xd26@N\xb7Ub\xc0f\xfe?\xc0\x1d\x1d\xe9\x07\x8f\x04@\x84\x96\n\x88\x15\xe6\xe3?'
p1827
tp1828
ba(lp1829
g21
(g22
(dp1830
g24
g25
(g26
(I0
tp1831
g28
tp1832
Rp1833
(I1
(I6
tp1834
g35
I00
(lp1835
g39
ag40
ag41
ag42
ag43
ag44
atp1836
bsg15
Nstp1837
Rp1838
a(dp1839
g71
(dp1840
g73
g1812
sg74
(lp1841
(dp1842
g77
g78
(I0
I6
I1
tp1843
Rp1844
sg81
g1825
sasstp1845
bsg83
g84
sg15
NsbsF80.0
g7
(g8
g9
Ntp1846
Rp1847
(dp1848
g13
g14
sg16
g7
(g17
g9
Ntp1849
Rp1850
((lp1851
g21
(g22
(dp1852
g24
g25
(g26
(I0
tp1853
g28
tp1854
Rp1855
(I1
(I6
tp1856
g35
I00
(lp1857
g39
ag40
ag41
ag42
ag43
ag44
atp1858
bsg15
Nstp1859
Rp1860
a(lp1861
g25
(g26
(I0
tp1862
g28
tp1863
Rp1864
(I1
(I6
tp1865
g55
I00
S'\xca\xb7Q=\x9d*\xf5?FLDez\xf4\x1d@\xd2\x95.C\x00\xfd1@\x90s\x16\x08\xae\xc2\xfb?@k\xbeG\xf3\xda\x01@\xba\x0fq\x98\xff\x01\xd7?'
p1866
tp1867
ba(lp1868
g21
(g22
(dp1869
g24
g25
(g26
(I0
tp1870
g28
tp1871
Rp1872
(I1
(I6
tp1873
g35
I00
(lp1874
g39
ag40
ag41
ag42
ag43
ag44
atp1875
bsg15
Nstp1876
Rp1877
a(dp1878
g71
(dp1879
g73
g1851
sg74
(lp1880
(dp1881
g77
g78
(I0
I6
I1
tp1882
Rp1883
sg81
g1864
sasstp1884
bsg83
g84
sg15
NsbsF50.0
g7
(g8
g9
Ntp1885
Rp1886
(dp1887
g13
g14
sg16
g7
(g17
g9
Ntp1888
Rp1889
((lp1890
g21
(g22
(dp1891
g24
g25
(g26
(I0
tp1892
g28
tp1893
Rp1894
(I1
(I6
tp1895
g35
I00
(lp1896
g39
ag40
ag41
ag42
ag43
ag44
atp1897
bsg15
Nstp1898
Rp1899
a(lp1900
g25
(g26
(I0
tp1901
g28
tp1902
Rp1903
(I1
(I6
tp1904
g55
I00
S'+\xb9\xd0\x90/\xb5\xf5?\xe5d\xfaH/\x10 @9S\x9a\x85He2@\x8e]\xab\x89\xc0\x06\xff?\xd30\xef\xf2\x1d\xe6\x01@\x06_h[Rv\xd7?'
p1905
tp1906
ba(lp1907
g21
(g22
(dp1908
g24
g25
(g26
(I0
tp1909
g28
tp1910
Rp1911
(I1
(I6
tp1912
g35
I00
(lp1913
g39
ag40
ag41
ag42
ag43
ag44
atp1914
bsg15
Nstp1915
Rp1916
a(dp1917
g71
(dp1918
g73
g1890
sg74
(lp1919
(dp1920
g77
g78
(I0
I6
I1
tp1921
Rp1922
sg81
g1903
sasstp1923
bsg83
g84
sg15
NsbsF20.0
g7
(g8
g9
Ntp1924
Rp1925
(dp1926
g13
g14
sg16
g7
(g17
g9
Ntp1927
Rp1928
((lp1929
g21
(g22
(dp1930
g24
g25
(g26
(I0
tp1931
g28
tp1932
Rp1933
(I1
(I6
tp1934
g35
I00
(lp1935
g39
ag40
ag41
ag42
ag43
ag44
atp1936
bsg15
Nstp1937
Rp1938
a(lp1939
g25
(g26
(I0
tp1940
g28
tp1941
Rp1942
(I1
(I6
tp1943
g55
I00
S'\x02\xe3*G\xbb\xfc\xf8?\x10\xb9@\xcf\xb8j!@\xb7o\xe9\x03\xb584@rM*=\x06Z\xff?\\\xc6\x03u\x01\x16\x07@~\xaf\xdd\xe7\x13"\xe9?'
p1944
tp1945
ba(lp1946
g21
(g22
(dp1947
g24
g25
(g26
(I0
tp1948
g28
tp1949
Rp1950
(I1
(I6
tp1951
g35
I00
(lp1952
g39
ag40
ag41
ag42
ag43
ag44
atp1953
bsg15
Nstp1954
Rp1955
a(dp1956
g71
(dp1957
g73
g1929
sg74
(lp1958
(dp1959
g77
g78
(I0
I6
I1
tp1960
Rp1961
sg81
g1942
sasstp1962
bsg83
g84
sg15
NsbsF90.0
g7
(g8
g9
Ntp1963
Rp1964
(dp1965
g13
g14
sg16
g7
(g17
g9
Ntp1966
Rp1967
((lp1968
g21
(g22
(dp1969
g24
g25
(g26
(I0
tp1970
g28
tp1971
Rp1972
(I1
(I6
tp1973
g35
I00
(lp1974
g39
ag40
ag41
ag42
ag43
ag44
atp1975
bsg15
Nstp1976
Rp1977
a(lp1978
g25
(g26
(I0
tp1979
g28
tp1980
Rp1981
(I1
(I6
tp1982
g55
I00
S'\xa1w\x9cX\xec\x8a\xf3?\x95-\x9bF*y\x1f@Q\xb0\x83\x88\x8a\xc51@&%^F\x92\xa1\xfc?=\xd2+\xd8Q\xe5\x01@%dC\x92\x02y\xd3?'
p1983
tp1984
ba(lp1985
g21
(g22
(dp1986
g24
g25
(g26
(I0
tp1987
g28
tp1988
Rp1989
(I1
(I6
tp1990
g35
I00
(lp1991
g39
ag40
ag41
ag42
ag43
ag44
atp1992
bsg15
Nstp1993
Rp1994
a(dp1995
g71
(dp1996
g73
g1968
sg74
(lp1997
(dp1998
g77
g78
(I0
I6
I1
tp1999
Rp2000
sg81
g1981
sasstp2001
bsg83
g84
sg15
NsbsF60.0
g7
(g8
g9
Ntp2002
Rp2003
(dp2004
g13
g14
sg16
g7
(g17
g9
Ntp2005
Rp2006
((lp2007
g21
(g22
(dp2008
g24
g25
(g26
(I0
tp2009
g28
tp2010
Rp2011
(I1
(I6
tp2012
g35
I00
(lp2013
g39
ag40
ag41
ag42
ag43
ag44
atp2014
bsg15
Nstp2015
Rp2016
a(lp2017
g25
(g26
(I0
tp2018
g28
tp2019
Rp2020
(I1
(I6
tp2021
g55
I00
S'1\xe9\x84h\x1c\n\xf5?\xaa\xa15Co[\x1c@8\xa1\xb1+-\xb91@\x8b\xdc\xee\x88\xe5\xe9\xfc?n\xc3\x90f5e\x01@\xf3\xc3\\\x13\xa9\xc0\xdd?'
p2022
tp2023
ba(lp2024
g21
(g22
(dp2025
g24
g25
(g26
(I0
tp2026
g28
tp2027
Rp2028
(I1
(I6
tp2029
g35
I00
(lp2030
g39
ag40
ag41
ag42
ag43
ag44
atp2031
bsg15
Nstp2032
Rp2033
a(dp2034
g71
(dp2035
g73
g2007
sg74
(lp2036
(dp2037
g77
g78
(I0
I6
I1
tp2038
Rp2039
sg81
g2020
sasstp2040
bsg83
g84
sg15
NsbsF30.0
g7
(g8
g9
Ntp2041
Rp2042
(dp2043
g13
g14
sg16
g7
(g17
g9
Ntp2044
Rp2045
((lp2046
g21
(g22
(dp2047
g24
g25
(g26
(I0
tp2048
g28
tp2049
Rp2050
(I1
(I6
tp2051
g35
I00
(lp2052
g39
ag40
ag41
ag42
ag43
ag44
atp2053
bsg15
Nstp2054
Rp2055
a(lp2056
g25
(g26
(I0
tp2057
g28
tp2058
Rp2059
(I1
(I6
tp2060
g55
I00
S'\x13<0\x12\x84\t\xf7?\\\xff\xe9\xcf%\x84!@\x00m#\x15\x04.4@\xd3^\xc1\xb5`\x1e\x01@#\xd5i,\x8ai\x04@\xd3\xcc\xa99\xdeK\xe4?'
p2061
tp2062
ba(lp2063
g21
(g22
(dp2064
g24
g25
(g26
(I0
tp2065
g28
tp2066
Rp2067
(I1
(I6
tp2068
g35
I00
(lp2069
g39
ag40
ag41
ag42
ag43
ag44
atp2070
bsg15
Nstp2071
Rp2072
a(dp2073
g71
(dp2074
g73
g2046
sg74
(lp2075
(dp2076
g77
g78
(I0
I6
I1
tp2077
Rp2078
sg81
g2059
sasstp2079
bsg83
g84
sg15
Nsbssssg1062
(dp2080
g2
(dp2081
g5
(dp2082
F100.0
g7
(g8
g9
Ntp2083
Rp2084
(dp2085
g13
g14
sg16
g7
(g17
g9
Ntp2086
Rp2087
((lp2088
g21
(g22
(dp2089
g24
g25
(g26
(I0
tp2090
g28
tp2091
Rp2092
(I1
(I6
tp2093
g35
I00
(lp2094
g39
ag40
ag41
ag42
ag43
ag44
atp2095
bsg15
Nstp2096
Rp2097
a(lp2098
g25
(g26
(I0
tp2099
g28
tp2100
Rp2101
(I1
(I6
tp2102
g55
I00
S"\xe6\xc5'\x87\xc6\xaf\xf1?\x85\x01Ba\xca\x93$@\xa2\xa3\x84\xbeK\x8a-@\xbc]EF\x9c<\x01@\xbcZa\xd6\xd7`\x01@\x9f\x03\x89\x8dR\x11\xd0?"
p2103
tp2104
ba(lp2105
g21
(g22
(dp2106
g24
g25
(g26
(I0
tp2107
g28
tp2108
Rp2109
(I1
(I6
tp2110
g35
I00
(lp2111
g39
ag40
ag41
ag42
ag43
ag44
atp2112
bsg15
Nstp2113
Rp2114
a(dp2115
g71
(dp2116
g73
g2088
sg74
(lp2117
(dp2118
g77
g78
(I0
I6
I1
tp2119
Rp2120
sg81
g2101
sasstp2121
bsg83
g84
sg15
NsbsF70.0
g7
(g8
g9
Ntp2122
Rp2123
(dp2124
g13
g14
sg16
g7
(g17
g9
Ntp2125
Rp2126
((lp2127
g21
(g22
(dp2128
g24
g25
(g26
(I0
tp2129
g28
tp2130
Rp2131
(I1
(I6
tp2132
g35
I00
(lp2133
g39
ag40
ag41
ag42
ag43
ag44
atp2134
bsg15
Nstp2135
Rp2136
a(lp2137
g25
(g26
(I0
tp2138
g28
tp2139
Rp2140
(I1
(I6
tp2141
g55
I00
S"\x1bn\xc8'Y'\xf3?%*d\x02\x04\x95#@\x9b\x85\x17\xbd\x83\x9b/@\x84\x14l\x81\n\x16\x00@NY\xc6\x04\x19d\x01@c2$\xa9\xd2\xe1\xd0?"
p2142
tp2143
ba(lp2144
g21
(g22
(dp2145
g24
g25
(g26
(I0
tp2146
g28
tp2147
Rp2148
(I1
(I6
tp2149
g35
I00
(lp2150
g39
ag40
ag41
ag42
ag43
ag44
atp2151
bsg15
Nstp2152
Rp2153
a(dp2154
g71
(dp2155
g73
g2127
sg74
(lp2156
(dp2157
g77
g78
(I0
I6
I1
tp2158
Rp2159
sg81
g2140
sasstp2160
bsg83
g84
sg15
NsbsF6.0
g7
(g8
g9
Ntp2161
Rp2162
(dp2163
g13
g14
sg16
g7
(g17
g9
Ntp2164
Rp2165
((lp2166
g21
(g22
(dp2167
g24
g25
(g26
(I0
tp2168
g28
tp2169
Rp2170
(I1
(I6
tp2171
g35
I00
(lp2172
g39
ag40
ag41
ag42
ag43
ag44
atp2173
bsg15
Nstp2174
Rp2175
a(lp2176
g25
(g26
(I0
tp2177
g28
tp2178
Rp2179
(I1
(I6
tp2180
g55
I00
S'\xa1\x8c\x89\xe8\xf0\xdc\xf2?\xd2\xffn\xcd\xd4\xb6"@\xf2\x14\r\x94\xc7<5@@\x9e\x1a\xdb7A\x00@\xa6\xca\xe6\x02\xd1\xe6\x01@\xb8\xe5\xfaG\xb4\xf8\xd4?'
p2181
tp2182
ba(lp2183
g21
(g22
(dp2184
g24
g25
(g26
(I0
tp2185
g28
tp2186
Rp2187
(I1
(I6
tp2188
g35
I00
(lp2189
g39
ag40
ag41
ag42
ag43
ag44
atp2190
bsg15
Nstp2191
Rp2192
a(dp2193
g71
(dp2194
g73
g2166
sg74
(lp2195
(dp2196
g77
g78
(I0
I6
I1
tp2197
Rp2198
sg81
g2179
sasstp2199
bsg83
g84
sg15
NsbsF40.0
g7
(g8
g9
Ntp2200
Rp2201
(dp2202
g13
g14
sg16
g7
(g17
g9
Ntp2203
Rp2204
((lp2205
g21
(g22
(dp2206
g24
g25
(g26
(I0
tp2207
g28
tp2208
Rp2209
(I1
(I6
tp2210
g35
I00
(lp2211
g39
ag40
ag41
ag42
ag43
ag44
atp2212
bsg15
Nstp2213
Rp2214
a(lp2215
g25
(g26
(I0
tp2216
g28
tp2217
Rp2218
(I1
(I6
tp2219
g55
I00
S'S,\xaa\x80`3\xf1?\x86\xc0\xd3\xcdWK#@\xa0<\xd2\xdc\xbe\x03/@fT\xd0\x0fP\x99\xff?.\xc1\xfbq\xa4\xf5\x01@\x04#q\x0b\x93\xf5\xd1?'
p2220
tp2221
ba(lp2222
g21
(g22
(dp2223
g24
g25
(g26
(I0
tp2224
g28
tp2225
Rp2226
(I1
(I6
tp2227
g35
I00
(lp2228
g39
ag40
ag41
ag42
ag43
ag44
atp2229
bsg15
Nstp2230
Rp2231
a(dp2232
g71
(dp2233
g73
g2205
sg74
(lp2234
(dp2235
g77
g78
(I0
I6
I1
tp2236
Rp2237
sg81
g2218
sasstp2238
bsg83
g84
sg15
NsbsF9.0
g7
(g8
g9
Ntp2239
Rp2240
(dp2241
g13
g14
sg16
g7
(g17
g9
Ntp2242
Rp2243
((lp2244
g21
(g22
(dp2245
g24
g25
(g26
(I0
tp2246
g28
tp2247
Rp2248
(I1
(I6
tp2249
g35
I00
(lp2250
g39
ag40
ag41
ag42
ag43
ag44
atp2251
bsg15
Nstp2252
Rp2253
a(lp2254
g25
(g26
(I0
tp2255
g28
tp2256
Rp2257
(I1
(I6
tp2258
g55
I00
S'\xf2\xcf\xf5f\xdc\x07\xf4?]m\xa4q\x0c\x9a"@\x94c\x86-\xd6\r2@\xbe\\%\x13( \xfe?\x8e\x0b\xc3h\xd2\xfd\x02@}\x13ZH\xfe\xcf\xd3?'
p2259
tp2260
ba(lp2261
g21
(g22
(dp2262
g24
g25
(g26
(I0
tp2263
g28
tp2264
Rp2265
(I1
(I6
tp2266
g35
I00
(lp2267
g39
ag40
ag41
ag42
ag43
ag44
atp2268
bsg15
Nstp2269
Rp2270
a(dp2271
g71
(dp2272
g73
g2244
sg74
(lp2273
(dp2274
g77
g78
(I0
I6
I1
tp2275
Rp2276
sg81
g2257
sasstp2277
bsg83
g84
sg15
NsbsF10.0
g7
(g8
g9
Ntp2278
Rp2279
(dp2280
g13
g14
sg16
g7
(g17
g9
Ntp2281
Rp2282
((lp2283
g21
(g22
(dp2284
g24
g25
(g26
(I0
tp2285
g28
tp2286
Rp2287
(I1
(I6
tp2288
g35
I00
(lp2289
g39
ag40
ag41
ag42
ag43
ag44
atp2290
bsg15
Nstp2291
Rp2292
a(lp2293
g25
(g26
(I0
tp2294
g28
tp2295
Rp2296
(I1
(I6
tp2297
g55
I00
S'\xf2\xcf\xf5f\xdc\x07\xf4?]m\xa4q\x0c\x9a"@\x94c\x86-\xd6\r2@\xbe\\%\x13( \xfe?\x8e\x0b\xc3h\xd2\xfd\x02@}\x13ZH\xfe\xcf\xd3?'
p2298
tp2299
ba(lp2300
g21
(g22
(dp2301
g24
g25
(g26
(I0
tp2302
g28
tp2303
Rp2304
(I1
(I6
tp2305
g35
I00
(lp2306
g39
ag40
ag41
ag42
ag43
ag44
atp2307
bsg15
Nstp2308
Rp2309
a(dp2310
g71
(dp2311
g73
g2283
sg74
(lp2312
(dp2313
g77
g78
(I0
I6
I1
tp2314
Rp2315
sg81
g2296
sasstp2316
bsg83
g84
sg15
NsbsF15.0
g7
(g8
g9
Ntp2317
Rp2318
(dp2319
g13
g14
sg16
g7
(g17
g9
Ntp2320
Rp2321
((lp2322
g21
(g22
(dp2323
g24
g25
(g26
(I0
tp2324
g28
tp2325
Rp2326
(I1
(I6
tp2327
g35
I00
(lp2328
g39
ag40
ag41
ag42
ag43
ag44
atp2329
bsg15
Nstp2330
Rp2331
a(lp2332
g25
(g26
(I0
tp2333
g28
tp2334
Rp2335
(I1
(I6
tp2336
g55
I00
S"!Q\x9f\x06\xb0\xcd\xf2?\x98\xd2D<\x8a6#@f\x12Z\x14i\x9a0@f\xc1Y\x9a\xd7\xde\xff?\xff'\xe8\x9b\xcf\x96\x02@\xd4\xc0\x03E\xcf\xff\xd3?"
p2337
tp2338
ba(lp2339
g21
(g22
(dp2340
g24
g25
(g26
(I0
tp2341
g28
tp2342
Rp2343
(I1
(I6
tp2344
g35
I00
(lp2345
g39
ag40
ag41
ag42
ag43
ag44
atp2346
bsg15
Nstp2347
Rp2348
a(dp2349
g71
(dp2350
g73
g2322
sg74
(lp2351
(dp2352
g77
g78
(I0
I6
I1
tp2353
Rp2354
sg81
g2335
sasstp2355
bsg83
g84
sg15
NsbsF80.0
g7
(g8
g9
Ntp2356
Rp2357
(dp2358
g13
g14
sg16
g7
(g17
g9
Ntp2359
Rp2360
((lp2361
g21
(g22
(dp2362
g24
g25
(g26
(I0
tp2363
g28
tp2364
Rp2365
(I1
(I6
tp2366
g35
I00
(lp2367
g39
ag40
ag41
ag42
ag43
ag44
atp2368
bsg15
Nstp2369
Rp2370
a(lp2371
g25
(g26
(I0
tp2372
g28
tp2373
Rp2374
(I1
(I6
tp2375
g55
I00
S"\x08\x84\xb9L\xee\xe4\xf1?\xe6?\xcb\xf4eJ$@\x8d\x1a\x9c#\xa9>.@'gq\xca\x16\xd8\x00@\xbeR\x19\xa5uh\x01@\xd8\x88\\J\x1a\x06\xd1?"
p2376
tp2377
ba(lp2378
g21
(g22
(dp2379
g24
g25
(g26
(I0
tp2380
g28
tp2381
Rp2382
(I1
(I6
tp2383
g35
I00
(lp2384
g39
ag40
ag41
ag42
ag43
ag44
atp2385
bsg15
Nstp2386
Rp2387
a(dp2388
g71
(dp2389
g73
g2361
sg74
(lp2390
(dp2391
g77
g78
(I0
I6
I1
tp2392
Rp2393
sg81
g2374
sasstp2394
bsg83
g84
sg15
NsbsF50.0
g7
(g8
g9
Ntp2395
Rp2396
(dp2397
g13
g14
sg16
g7
(g17
g9
Ntp2398
Rp2399
((lp2400
g21
(g22
(dp2401
g24
g25
(g26
(I0
tp2402
g28
tp2403
Rp2404
(I1
(I6
tp2405
g35
I00
(lp2406
g39
ag40
ag41
ag42
ag43
ag44
atp2407
bsg15
Nstp2408
Rp2409
a(lp2410
g25
(g26
(I0
tp2411
g28
tp2412
Rp2413
(I1
(I6
tp2414
g55
I00
S'\'i\xd4\xe5"\xe4\xf1?\x02Mn\xb3|\xa8"@PP\xba\x89\xeb..@vi\t\xfe\xcep\xff?sk\xa7\x87.\xb1\x01@\xe2\xff\xf9\xb4\xb8\xcd\xd4?'
p2415
tp2416
ba(lp2417
g21
(g22
(dp2418
g24
g25
(g26
(I0
tp2419
g28
tp2420
Rp2421
(I1
(I6
tp2422
g35
I00
(lp2423
g39
ag40
ag41
ag42
ag43
ag44
atp2424
bsg15
Nstp2425
Rp2426
a(dp2427
g71
(dp2428
g73
g2400
sg74
(lp2429
(dp2430
g77
g78
(I0
I6
I1
tp2431
Rp2432
sg81
g2413
sasstp2433
bsg83
g84
sg15
NsbsF20.0
g7
(g8
g9
Ntp2434
Rp2435
(dp2436
g13
g14
sg16
g7
(g17
g9
Ntp2437
Rp2438
((lp2439
g21
(g22
(dp2440
g24
g25
(g26
(I0
tp2441
g28
tp2442
Rp2443
(I1
(I6
tp2444
g35
I00
(lp2445
g39
ag40
ag41
ag42
ag43
ag44
atp2446
bsg15
Nstp2447
Rp2448
a(lp2449
g25
(g26
(I0
tp2450
g28
tp2451
Rp2452
(I1
(I6
tp2453
g55
I00
S'6\x81\x99\xd6\xb9a\xf2?%\t^\xd0\xe0\xc8"@x\xe0\xc2J\xb1\x001@\x9ec\xca\xea#V\xfe?\xbcl\xab\xf55+\x02@J|\xa1Y\xbe\xf4\xd3?'
p2454
tp2455
ba(lp2456
g21
(g22
(dp2457
g24
g25
(g26
(I0
tp2458
g28
tp2459
Rp2460
(I1
(I6
tp2461
g35
I00
(lp2462
g39
ag40
ag41
ag42
ag43
ag44
atp2463
bsg15
Nstp2464
Rp2465
a(dp2466
g71
(dp2467
g73
g2439
sg74
(lp2468
(dp2469
g77
g78
(I0
I6
I1
tp2470
Rp2471
sg81
g2452
sasstp2472
bsg83
g84
sg15
NsbsF90.0
g7
(g8
g9
Ntp2473
Rp2474
(dp2475
g13
g14
sg16
g7
(g17
g9
Ntp2476
Rp2477
((lp2478
g21
(g22
(dp2479
g24
g25
(g26
(I0
tp2480
g28
tp2481
Rp2482
(I1
(I6
tp2483
g35
I00
(lp2484
g39
ag40
ag41
ag42
ag43
ag44
atp2485
bsg15
Nstp2486
Rp2487
a(lp2488
g25
(g26
(I0
tp2489
g28
tp2490
Rp2491
(I1
(I6
tp2492
g55
I00
S'\n\xe76\xbf4Z\xf2?l\x90\xfa\xbe\xc9\x15$@\xf8\x1az\xc0`m.@>}\x9c\xe6\xd2\x81\x00@\xc2+L\x84\x98j\x01@\x8a\xb0\x19H\xf0y\xd9?'
p2493
tp2494
ba(lp2495
g21
(g22
(dp2496
g24
g25
(g26
(I0
tp2497
g28
tp2498
Rp2499
(I1
(I6
tp2500
g35
I00
(lp2501
g39
ag40
ag41
ag42
ag43
ag44
atp2502
bsg15
Nstp2503
Rp2504
a(dp2505
g71
(dp2506
g73
g2478
sg74
(lp2507
(dp2508
g77
g78
(I0
I6
I1
tp2509
Rp2510
sg81
g2491
sasstp2511
bsg83
g84
sg15
NsbsF60.0
g7
(g8
g9
Ntp2512
Rp2513
(dp2514
g13
g14
sg16
g7
(g17
g9
Ntp2515
Rp2516
((lp2517
g21
(g22
(dp2518
g24
g25
(g26
(I0
tp2519
g28
tp2520
Rp2521
(I1
(I6
tp2522
g35
I00
(lp2523
g39
ag40
ag41
ag42
ag43
ag44
atp2524
bsg15
Nstp2525
Rp2526
a(lp2527
g25
(g26
(I0
tp2528
g28
tp2529
Rp2530
(I1
(I6
tp2531
g55
I00
S'\tm-\xe4\xee\xfa\xf0?8\n\xef\xca\x9c\n$@\xce\xe1\xba7\xc4\x8b/@\xbaFO\xfb\xb27\x00@\x15\xb2\xc5\xe9\x0c\x9c\x01@\xd4\xc3\xda?(0\xd3?'
p2532
tp2533
ba(lp2534
g21
(g22
(dp2535
g24
g25
(g26
(I0
tp2536
g28
tp2537
Rp2538
(I1
(I6
tp2539
g35
I00
(lp2540
g39
ag40
ag41
ag42
ag43
ag44
atp2541
bsg15
Nstp2542
Rp2543
a(dp2544
g71
(dp2545
g73
g2517
sg74
(lp2546
(dp2547
g77
g78
(I0
I6
I1
tp2548
Rp2549
sg81
g2530
sasstp2550
bsg83
g84
sg15
NsbsF30.0
g7
(g8
g9
Ntp2551
Rp2552
(dp2553
g13
g14
sg16
g7
(g17
g9
Ntp2554
Rp2555
((lp2556
g21
(g22
(dp2557
g24
g25
(g26
(I0
tp2558
g28
tp2559
Rp2560
(I1
(I6
tp2561
g35
I00
(lp2562
g39
ag40
ag41
ag42
ag43
ag44
atp2563
bsg15
Nstp2564
Rp2565
a(lp2566
g25
(g26
(I0
tp2567
g28
tp2568
Rp2569
(I1
(I6
tp2570
g55
I00
S'\xde|\x1e[b\x87\xf2?"\x1b5\xac2\xc0"@\xb2\xe9\r\x80\xfev.@\xca\xf6\x0er\xc9o\xfe?|\x06\xa8\x02p\xd9\x01@\xea\xea\xa476\x03\xd5?'
p2571
tp2572
ba(lp2573
g21
(g22
(dp2574
g24
g25
(g26
(I0
tp2575
g28
tp2576
Rp2577
(I1
(I6
tp2578
g35
I00
(lp2579
g39
ag40
ag41
ag42
ag43
ag44
atp2580
bsg15
Nstp2581
Rp2582
a(dp2583
g71
(dp2584
g73
g2556
sg74
(lp2585
(dp2586
g77
g78
(I0
I6
I1
tp2587
Rp2588
sg81
g2569
sasstp2589
bsg83
g84
sg15
Nsbssg553
(dp2590
F100.0
g7
(g8
g9
Ntp2591
Rp2592
(dp2593
g13
g14
sg16
g7
(g17
g9
Ntp2594
Rp2595
((lp2596
g21
(g22
(dp2597
g24
g25
(g26
(I0
tp2598
g28
tp2599
Rp2600
(I1
(I6
tp2601
g35
I00
(lp2602
g39
ag40
ag41
ag42
ag43
ag44
atp2603
bsg15
Nstp2604
Rp2605
a(lp2606
g25
(g26
(I0
tp2607
g28
tp2608
Rp2609
(I1
(I6
tp2610
g55
I00
S'h\x8b\t\x0e\xb0\x94\xf2?uX\xbb\x1a \xfc\x1a@\\?\x11\x1b\xbc\xb11@~\xda\xa3f\xa6N\xfb?\xd2\xdd\xd2D!\x89\x01@~\xa4\xce\xc6n\xae\xce?'
p2611
tp2612
ba(lp2613
g21
(g22
(dp2614
g24
g25
(g26
(I0
tp2615
g28
tp2616
Rp2617
(I1
(I6
tp2618
g35
I00
(lp2619
g39
ag40
ag41
ag42
ag43
ag44
atp2620
bsg15
Nstp2621
Rp2622
a(dp2623
g71
(dp2624
g73
g2596
sg74
(lp2625
(dp2626
g77
g78
(I0
I6
I1
tp2627
Rp2628
sg81
g2609
sasstp2629
bsg83
g84
sg15
NsbsF70.0
g7
(g8
g9
Ntp2630
Rp2631
(dp2632
g13
g14
sg16
g7
(g17
g9
Ntp2633
Rp2634
((lp2635
g21
(g22
(dp2636
g24
g25
(g26
(I0
tp2637
g28
tp2638
Rp2639
(I1
(I6
tp2640
g35
I00
(lp2641
g39
ag40
ag41
ag42
ag43
ag44
atp2642
bsg15
Nstp2643
Rp2644
a(lp2645
g25
(g26
(I0
tp2646
g28
tp2647
Rp2648
(I1
(I6
tp2649
g55
I00
S'\xf5;\xeb\x8f\x0e\x83\xf6?\xa8\x10\x8a\x9ak\x84 @\xb7\xe7\xd1\xe0\x96\x183@\xcdq\x9eFP\x97\xfc?\x04o\xf1\xf0\xf8;\x02@\xba\xf5\xdd\x8b\xa2\xf3\xd5?'
p2650
tp2651
ba(lp2652
g21
(g22
(dp2653
g24
g25
(g26
(I0
tp2654
g28
tp2655
Rp2656
(I1
(I6
tp2657
g35
I00
(lp2658
g39
ag40
ag41
ag42
ag43
ag44
atp2659
bsg15
Nstp2660
Rp2661
a(dp2662
g71
(dp2663
g73
g2635
sg74
(lp2664
(dp2665
g77
g78
(I0
I6
I1
tp2666
Rp2667
sg81
g2648
sasstp2668
bsg83
g84
sg15
NsbsF6.0
g7
(g8
g9
Ntp2669
Rp2670
(dp2671
g13
g14
sg16
g7
(g17
g9
Ntp2672
Rp2673
((lp2674
g21
(g22
(dp2675
g24
g25
(g26
(I0
tp2676
g28
tp2677
Rp2678
(I1
(I6
tp2679
g35
I00
(lp2680
g39
ag40
ag41
ag42
ag43
ag44
atp2681
bsg15
Nstp2682
Rp2683
a(lp2684
g25
(g26
(I0
tp2685
g28
tp2686
Rp2687
(I1
(I6
tp2688
g55
I00
S'\x89\xce\n)\xb1\xf0\x01@\r\xff\xea\x92l\xe5#@\x1e\r\x7f\xdc.y<@K\xc1\xce\x0b\x07\x98\x07@QN\xde\xef\xa9\xa8\x11@[\xc5_}BA\x18@'
p2689
tp2690
ba(lp2691
g21
(g22
(dp2692
g24
g25
(g26
(I0
tp2693
g28
tp2694
Rp2695
(I1
(I6
tp2696
g35
I00
(lp2697
g39
ag40
ag41
ag42
ag43
ag44
atp2698
bsg15
Nstp2699
Rp2700
a(dp2701
g71
(dp2702
g73
g2674
sg74
(lp2703
(dp2704
g77
g78
(I0
I6
I1
tp2705
Rp2706
sg81
g2687
sasstp2707
bsg83
g84
sg15
NsbsF40.0
g7
(g8
g9
Ntp2708
Rp2709
(dp2710
g13
g14
sg16
g7
(g17
g9
Ntp2711
Rp2712
((lp2713
g21
(g22
(dp2714
g24
g25
(g26
(I0
tp2715
g28
tp2716
Rp2717
(I1
(I6
tp2718
g35
I00
(lp2719
g39
ag40
ag41
ag42
ag43
ag44
atp2720
bsg15
Nstp2721
Rp2722
a(lp2723
g25
(g26
(I0
tp2724
g28
tp2725
Rp2726
(I1
(I6
tp2727
g55
I00
S'7H\x01\x12\xe1.\xf8?\x8b\xe7r\x1b\xa0\xee\x1c@\xca\x02"[xt3@\xe0\xd6\xdd\x1a\x90\xfa\xfd?S\x15\xa1x5\xbd\x02@^\x95\x89\xd8{p\xde?'
p2728
tp2729
ba(lp2730
g21
(g22
(dp2731
g24
g25
(g26
(I0
tp2732
g28
tp2733
Rp2734
(I1
(I6
tp2735
g35
I00
(lp2736
g39
ag40
ag41
ag42
ag43
ag44
atp2737
bsg15
Nstp2738
Rp2739
a(dp2740
g71
(dp2741
g73
g2713
sg74
(lp2742
(dp2743
g77
g78
(I0
I6
I1
tp2744
Rp2745
sg81
g2726
sasstp2746
bsg83
g84
sg15
NsbsF9.0
g7
(g8
g9
Ntp2747
Rp2748
(dp2749
g13
g14
sg16
g7
(g17
g9
Ntp2750
Rp2751
((lp2752
g21
(g22
(dp2753
g24
g25
(g26
(I0
tp2754
g28
tp2755
Rp2756
(I1
(I6
tp2757
g35
I00
(lp2758
g39
ag40
ag41
ag42
ag43
ag44
atp2759
bsg15
Nstp2760
Rp2761
a(lp2762
g25
(g26
(I0
tp2763
g28
tp2764
Rp2765
(I1
(I6
tp2766
g55
I00
S'\xc0G\xf4\xe6\xa4\x1b\x00@\n\x80\x89^\xba\xa8$@\xa2\xcbz\xab\x18\xc19@T_\x1d\x8av\x93\x05@c\x10#\xc8>\xd0\x0f@3\xc7\xcc\x08\x82\xbd\x11@'
p2767
tp2768
ba(lp2769
g21
(g22
(dp2770
g24
g25
(g26
(I0
tp2771
g28
tp2772
Rp2773
(I1
(I6
tp2774
g35
I00
(lp2775
g39
ag40
ag41
ag42
ag43
ag44
atp2776
bsg15
Nstp2777
Rp2778
a(dp2779
g71
(dp2780
g73
g2752
sg74
(lp2781
(dp2782
g77
g78
(I0
I6
I1
tp2783
Rp2784
sg81
g2765
sasstp2785
bsg83
g84
sg15
NsbsF10.0
g7
(g8
g9
Ntp2786
Rp2787
(dp2788
g13
g14
sg16
g7
(g17
g9
Ntp2789
Rp2790
((lp2791
g21
(g22
(dp2792
g24
g25
(g26
(I0
tp2793
g28
tp2794
Rp2795
(I1
(I6
tp2796
g35
I00
(lp2797
g39
ag40
ag41
ag42
ag43
ag44
atp2798
bsg15
Nstp2799
Rp2800
a(lp2801
g25
(g26
(I0
tp2802
g28
tp2803
Rp2804
(I1
(I6
tp2805
g55
I00
S'\xc0G\xf4\xe6\xa4\x1b\x00@\n\x80\x89^\xba\xa8$@\xa2\xcbz\xab\x18\xc19@T_\x1d\x8av\x93\x05@c\x10#\xc8>\xd0\x0f@3\xc7\xcc\x08\x82\xbd\x11@'
p2806
tp2807
ba(lp2808
g21
(g22
(dp2809
g24
g25
(g26
(I0
tp2810
g28
tp2811
Rp2812
(I1
(I6
tp2813
g35
I00
(lp2814
g39
ag40
ag41
ag42
ag43
ag44
atp2815
bsg15
Nstp2816
Rp2817
a(dp2818
g71
(dp2819
g73
g2791
sg74
(lp2820
(dp2821
g77
g78
(I0
I6
I1
tp2822
Rp2823
sg81
g2804
sasstp2824
bsg83
g84
sg15
NsbsF15.0
g7
(g8
g9
Ntp2825
Rp2826
(dp2827
g13
g14
sg16
g7
(g17
g9
Ntp2828
Rp2829
((lp2830
g21
(g22
(dp2831
g24
g25
(g26
(I0
tp2832
g28
tp2833
Rp2834
(I1
(I6
tp2835
g35
I00
(lp2836
g39
ag40
ag41
ag42
ag43
ag44
atp2837
bsg15
Nstp2838
Rp2839
a(lp2840
g25
(g26
(I0
tp2841
g28
tp2842
Rp2843
(I1
(I6
tp2844
g55
I00
S'Xl\xd7\xed\xaag\xfc?\x8bC&B\xd4\x00 @\xd7\xa3\x97\xe0\xb0\x8b9@%\xdbG\x15\xd9\x8c\xff?!!i\xea\xe3\xe9\x07@Z$\xa61\xc2&\xe4?'
p2845
tp2846
ba(lp2847
g21
(g22
(dp2848
g24
g25
(g26
(I0
tp2849
g28
tp2850
Rp2851
(I1
(I6
tp2852
g35
I00
(lp2853
g39
ag40
ag41
ag42
ag43
ag44
atp2854
bsg15
Nstp2855
Rp2856
a(dp2857
g71
(dp2858
g73
g2830
sg74
(lp2859
(dp2860
g77
g78
(I0
I6
I1
tp2861
Rp2862
sg81
g2843
sasstp2863
bsg83
g84
sg15
NsbsF80.0
g7
(g8
g9
Ntp2864
Rp2865
(dp2866
g13
g14
sg16
g7
(g17
g9
Ntp2867
Rp2868
((lp2869
g21
(g22
(dp2870
g24
g25
(g26
(I0
tp2871
g28
tp2872
Rp2873
(I1
(I6
tp2874
g35
I00
(lp2875
g39
ag40
ag41
ag42
ag43
ag44
atp2876
bsg15
Nstp2877
Rp2878
a(lp2879
g25
(g26
(I0
tp2880
g28
tp2881
Rp2882
(I1
(I6
tp2883
g55
I00
S'P\xb7\xbfZd\x0f\xf6?c\x9d\xf7,?2\x1c@\x01\xaa\xf4H\\S2@\x9b\r\xf2\x93Ro\xfb?\xe2\xb6\xf8{\x0b[\x02@\xaf\xcf\xe8x{\x8b\xd9?'
p2884
tp2885
ba(lp2886
g21
(g22
(dp2887
g24
g25
(g26
(I0
tp2888
g28
tp2889
Rp2890
(I1
(I6
tp2891
g35
I00
(lp2892
g39
ag40
ag41
ag42
ag43
ag44
atp2893
bsg15
Nstp2894
Rp2895
a(dp2896
g71
(dp2897
g73
g2869
sg74
(lp2898
(dp2899
g77
g78
(I0
I6
I1
tp2900
Rp2901
sg81
g2882
sasstp2902
bsg83
g84
sg15
NsbsF50.0
g7
(g8
g9
Ntp2903
Rp2904
(dp2905
g13
g14
sg16
g7
(g17
g9
Ntp2906
Rp2907
((lp2908
g21
(g22
(dp2909
g24
g25
(g26
(I0
tp2910
g28
tp2911
Rp2912
(I1
(I6
tp2913
g35
I00
(lp2914
g39
ag40
ag41
ag42
ag43
ag44
atp2915
bsg15
Nstp2916
Rp2917
a(lp2918
g25
(g26
(I0
tp2919
g28
tp2920
Rp2921
(I1
(I6
tp2922
g55
I00
S'\xb82\x1b\x18\xa23\xf6?J\xcfG\x021\xc2\x1e@\xc3\xf9Y\xa6d\xe01@\xdb\xb3\xcc)\xeaH\xfd?\xdch\xf6\x9a\x94\x92\x01@\xee\x87\xda\x02\xfck\xd6?'
p2923
tp2924
ba(lp2925
g21
(g22
(dp2926
g24
g25
(g26
(I0
tp2927
g28
tp2928
Rp2929
(I1
(I6
tp2930
g35
I00
(lp2931
g39
ag40
ag41
ag42
ag43
ag44
atp2932
bsg15
Nstp2933
Rp2934
a(dp2935
g71
(dp2936
g73
g2908
sg74
(lp2937
(dp2938
g77
g78
(I0
I6
I1
tp2939
Rp2940
sg81
g2921
sasstp2941
bsg83
g84
sg15
NsbsF20.0
g7
(g8
g9
Ntp2942
Rp2943
(dp2944
g13
g14
sg16
g7
(g17
g9
Ntp2945
Rp2946
((lp2947
g21
(g22
(dp2948
g24
g25
(g26
(I0
tp2949
g28
tp2950
Rp2951
(I1
(I6
tp2952
g35
I00
(lp2953
g39
ag40
ag41
ag42
ag43
ag44
atp2954
bsg15
Nstp2955
Rp2956
a(lp2957
g25
(g26
(I0
tp2958
g28
tp2959
Rp2960
(I1
(I6
tp2961
g55
I00
S'-\x1f<\x9d0\xe4\xfd?\x94X\xc4<\x07\xfd!@b?\xcc\xdf\xd4\n6@\xe5\xfb\xc3W\xca\xe0\xfe?dXJ\xee\xc5\x95\x06@(8\xe5\xfcI\xac\xe3?'
p2962
tp2963
ba(lp2964
g21
(g22
(dp2965
g24
g25
(g26
(I0
tp2966
g28
tp2967
Rp2968
(I1
(I6
tp2969
g35
I00
(lp2970
g39
ag40
ag41
ag42
ag43
ag44
atp2971
bsg15
Nstp2972
Rp2973
a(dp2974
g71
(dp2975
g73
g2947
sg74
(lp2976
(dp2977
g77
g78
(I0
I6
I1
tp2978
Rp2979
sg81
g2960
sasstp2980
bsg83
g84
sg15
NsbsF90.0
g7
(g8
g9
Ntp2981
Rp2982
(dp2983
g13
g14
sg16
g7
(g17
g9
Ntp2984
Rp2985
((lp2986
g21
(g22
(dp2987
g24
g25
(g26
(I0
tp2988
g28
tp2989
Rp2990
(I1
(I6
tp2991
g35
I00
(lp2992
g39
ag40
ag41
ag42
ag43
ag44
atp2993
bsg15
Nstp2994
Rp2995
a(lp2996
g25
(g26
(I0
tp2997
g28
tp2998
Rp2999
(I1
(I6
tp3000
g55
I00
S'\x81\xacn\x9d\xa5\x83\xf3?\xb1\x8a\x86kX\x9d @!\xa1\x1e!i\xf00@\x13\xca.w\xac\x0c\xff?\xdc\x9f\xec\xff\xbab\x01@lQW\xf0,%\xd3?'
p3001
tp3002
ba(lp3003
g21
(g22
(dp3004
g24
g25
(g26
(I0
tp3005
g28
tp3006
Rp3007
(I1
(I6
tp3008
g35
I00
(lp3009
g39
ag40
ag41
ag42
ag43
ag44
atp3010
bsg15
Nstp3011
Rp3012
a(dp3013
g71
(dp3014
g73
g2986
sg74
(lp3015
(dp3016
g77
g78
(I0
I6
I1
tp3017
Rp3018
sg81
g2999
sasstp3019
bsg83
g84
sg15
NsbsF60.0
g7
(g8
g9
Ntp3020
Rp3021
(dp3022
g13
g14
sg16
g7
(g17
g9
Ntp3023
Rp3024
((lp3025
g21
(g22
(dp3026
g24
g25
(g26
(I0
tp3027
g28
tp3028
Rp3029
(I1
(I6
tp3030
g35
I00
(lp3031
g39
ag40
ag41
ag42
ag43
ag44
atp3032
bsg15
Nstp3033
Rp3034
a(lp3035
g25
(g26
(I0
tp3036
g28
tp3037
Rp3038
(I1
(I6
tp3039
g55
I00
S'\xd5\xde\xdc\xcf\xcf^\xf6?\xcb\xf6nT\xf6\x0b\x1f@\xe2\xe9\x98\xff\x96\xcd0@\xe6\xfb\x8e\x04\t\x9c\xfd?.D\x06,\x9c\xb7\x02@\xea\x14.\xef\xc2\xa6\xdd?'
p3040
tp3041
ba(lp3042
g21
(g22
(dp3043
g24
g25
(g26
(I0
tp3044
g28
tp3045
Rp3046
(I1
(I6
tp3047
g35
I00
(lp3048
g39
ag40
ag41
ag42
ag43
ag44
atp3049
bsg15
Nstp3050
Rp3051
a(dp3052
g71
(dp3053
g73
g3025
sg74
(lp3054
(dp3055
g77
g78
(I0
I6
I1
tp3056
Rp3057
sg81
g3038
sasstp3058
bsg83
g84
sg15
NsbsF30.0
g7
(g8
g9
Ntp3059
Rp3060
(dp3061
g13
g14
sg16
g7
(g17
g9
Ntp3062
Rp3063
((lp3064
g21
(g22
(dp3065
g24
g25
(g26
(I0
tp3066
g28
tp3067
Rp3068
(I1
(I6
tp3069
g35
I00
(lp3070
g39
ag40
ag41
ag42
ag43
ag44
atp3071
bsg15
Nstp3072
Rp3073
a(lp3074
g25
(g26
(I0
tp3075
g28
tp3076
Rp3077
(I1
(I6
tp3078
g55
I00
S'b1}\x9a\xee\x84\xf5?\xdb\xaf\xd4\xa8\\\xfc @\xc5B\n\x8eTc3@\xc8\x1de0\xb9t\xff?\x16\xee\x1f\xe2\xb3}\x03@\n\x1b\xf01m\x83\xe8?'
p3079
tp3080
ba(lp3081
g21
(g22
(dp3082
g24
g25
(g26
(I0
tp3083
g28
tp3084
Rp3085
(I1
(I6
tp3086
g35
I00
(lp3087
g39
ag40
ag41
ag42
ag43
ag44
atp3088
bsg15
Nstp3089
Rp3090
a(dp3091
g71
(dp3092
g73
g3064
sg74
(lp3093
(dp3094
g77
g78
(I0
I6
I1
tp3095
Rp3096
sg81
g3077
sasstp3097
bsg83
g84
sg15
Nsbsssg1062
(dp3098
g5
(dp3099
F100.0
g7
(g8
g9
Ntp3100
Rp3101
(dp3102
g13
g14
sg16
g7
(g17
g9
Ntp3103
Rp3104
((lp3105
g21
(g22
(dp3106
g24
g25
(g26
(I0
tp3107
g28
tp3108
Rp3109
(I1
(I6
tp3110
g35
I00
(lp3111
g39
ag40
ag41
ag42
ag43
ag44
atp3112
bsg15
Nstp3113
Rp3114
a(lp3115
g25
(g26
(I0
tp3116
g28
tp3117
Rp3118
(I1
(I6
tp3119
g55
I00
S'\xabu,PK|\xf2?T(GT\x01(%@\xb5o\x07\x02\x9f\x97-@\x00\xd1\xbff\xef\xd1\x00@\xf7\xab;t\xb3\x01\x02@{\xde[\xd4\xd8\xe1\xd3?'
p3120
tp3121
ba(lp3122
g21
(g22
(dp3123
g24
g25
(g26
(I0
tp3124
g28
tp3125
Rp3126
(I1
(I6
tp3127
g35
I00
(lp3128
g39
ag40
ag41
ag42
ag43
ag44
atp3129
bsg15
Nstp3130
Rp3131
a(dp3132
g71
(dp3133
g73
g3105
sg74
(lp3134
(dp3135
g77
g78
(I0
I6
I1
tp3136
Rp3137
sg81
g3118
sasstp3138
bsg83
g84
sg15
NsbsF70.0
g7
(g8
g9
Ntp3139
Rp3140
(dp3141
g13
g14
sg16
g7
(g17
g9
Ntp3142
Rp3143
((lp3144
g21
(g22
(dp3145
g24
g25
(g26
(I0
tp3146
g28
tp3147
Rp3148
(I1
(I6
tp3149
g35
I00
(lp3150
g39
ag40
ag41
ag42
ag43
ag44
atp3151
bsg15
Nstp3152
Rp3153
a(lp3154
g25
(g26
(I0
tp3155
g28
tp3156
Rp3157
(I1
(I6
tp3158
g55
I00
S'\x83/\xff\x88\xe0\x96\xf5?\xc4\xd21\xb2\xd7\x01"@\xc5\x18\xf5\xa2"\xc8-@\x13\xba\x8f\r\x07k\xff?\x8e\xa2\xec\xe0`\xca\x02@\xbdG{Ypp\xd0?'
p3159
tp3160
ba(lp3161
g21
(g22
(dp3162
g24
g25
(g26
(I0
tp3163
g28
tp3164
Rp3165
(I1
(I6
tp3166
g35
I00
(lp3167
g39
ag40
ag41
ag42
ag43
ag44
atp3168
bsg15
Nstp3169
Rp3170
a(dp3171
g71
(dp3172
g73
g3144
sg74
(lp3173
(dp3174
g77
g78
(I0
I6
I1
tp3175
Rp3176
sg81
g3157
sasstp3177
bsg83
g84
sg15
NsbsF6.0
g7
(g8
g9
Ntp3178
Rp3179
(dp3180
g13
g14
sg16
g7
(g17
g9
Ntp3181
Rp3182
((lp3183
g21
(g22
(dp3184
g24
g25
(g26
(I0
tp3185
g28
tp3186
Rp3187
(I1
(I6
tp3188
g35
I00
(lp3189
g39
ag40
ag41
ag42
ag43
ag44
atp3190
bsg15
Nstp3191
Rp3192
a(lp3193
g25
(g26
(I0
tp3194
g28
tp3195
Rp3196
(I1
(I6
tp3197
g55
I00
S'unO\x9c\xc0X\xfc?\xfa\x16/3Z\x16#@\x15=\xf2\xd4\nl3@\x188\xc0\xd2\x08k\xfe?y\x86\x00\x8b~w\x05@\x82\x83\xe9} \xec\xd5?'
p3198
tp3199
ba(lp3200
g21
(g22
(dp3201
g24
g25
(g26
(I0
tp3202
g28
tp3203
Rp3204
(I1
(I6
tp3205
g35
I00
(lp3206
g39
ag40
ag41
ag42
ag43
ag44
atp3207
bsg15
Nstp3208
Rp3209
a(dp3210
g71
(dp3211
g73
g3183
sg74
(lp3212
(dp3213
g77
g78
(I0
I6
I1
tp3214
Rp3215
sg81
g3196
sasstp3216
bsg83
g84
sg15
NsbsF40.0
g7
(g8
g9
Ntp3217
Rp3218
(dp3219
g13
g14
sg16
g7
(g17
g9
Ntp3220
Rp3221
((lp3222
g21
(g22
(dp3223
g24
g25
(g26
(I0
tp3224
g28
tp3225
Rp3226
(I1
(I6
tp3227
g35
I00
(lp3228
g39
ag40
ag41
ag42
ag43
ag44
atp3229
bsg15
Nstp3230
Rp3231
a(lp3232
g25
(g26
(I0
tp3233
g28
tp3234
Rp3235
(I1
(I6
tp3236
g55
I00
S'/\\N\x83\x84\xcd\xf8?Su\xcc\\3\x96"@\xfet\x11\x07\xed\xa3/@h\x90\xdf\x08\xdd\x90\xff?\x02\xb9bc\xd4\xe3\x04@\xd2\x9a-\xc0\xbaw\xd1?'
p3237
tp3238
ba(lp3239
g21
(g22
(dp3240
g24
g25
(g26
(I0
tp3241
g28
tp3242
Rp3243
(I1
(I6
tp3244
g35
I00
(lp3245
g39
ag40
ag41
ag42
ag43
ag44
atp3246
bsg15
Nstp3247
Rp3248
a(dp3249
g71
(dp3250
g73
g3222
sg74
(lp3251
(dp3252
g77
g78
(I0
I6
I1
tp3253
Rp3254
sg81
g3235
sasstp3255
bsg83
g84
sg15
NsbsF9.0
g7
(g8
g9
Ntp3256
Rp3257
(dp3258
g13
g14
sg16
g7
(g17
g9
Ntp3259
Rp3260
((lp3261
g21
(g22
(dp3262
g24
g25
(g26
(I0
tp3263
g28
tp3264
Rp3265
(I1
(I6
tp3266
g35
I00
(lp3267
g39
ag40
ag41
ag42
ag43
ag44
atp3268
bsg15
Nstp3269
Rp3270
a(lp3271
g25
(g26
(I0
tp3272
g28
tp3273
Rp3274
(I1
(I6
tp3275
g55
I00
S'\xfdv\x041\xf8X\xfb?\xaa:\xadT\xfd\xce!@\xc7+\xafU\xaa(2@\x8e\xfc\xc3\x92\xdb&\xff?\x88[\x12\xf6$5\x06@\t\xf5U\x13\xd1\xbf\xd4?'
p3276
tp3277
ba(lp3278
g21
(g22
(dp3279
g24
g25
(g26
(I0
tp3280
g28
tp3281
Rp3282
(I1
(I6
tp3283
g35
I00
(lp3284
g39
ag40
ag41
ag42
ag43
ag44
atp3285
bsg15
Nstp3286
Rp3287
a(dp3288
g71
(dp3289
g73
g3261
sg74
(lp3290
(dp3291
g77
g78
(I0
I6
I1
tp3292
Rp3293
sg81
g3274
sasstp3294
bsg83
g84
sg15
NsbsF10.0
g7
(g8
g9
Ntp3295
Rp3296
(dp3297
g13
g14
sg16
g7
(g17
g9
Ntp3298
Rp3299
((lp3300
g21
(g22
(dp3301
g24
g25
(g26
(I0
tp3302
g28
tp3303
Rp3304
(I1
(I6
tp3305
g35
I00
(lp3306
g39
ag40
ag41
ag42
ag43
ag44
atp3307
bsg15
Nstp3308
Rp3309
a(lp3310
g25
(g26
(I0
tp3311
g28
tp3312
Rp3313
(I1
(I6
tp3314
g55
I00
S'\x1e\xdb44\xf8X\xfb?JO\xcfT\xfd\xce!@~\xcbST\xaa(2@0\xc8\x04\x92\xdb&\xff?\xa9i\x90\xf4$5\x06@\xf4\xf4U\x13\xd1\xbf\xd4?'
p3315
tp3316
ba(lp3317
g21
(g22
(dp3318
g24
g25
(g26
(I0
tp3319
g28
tp3320
Rp3321
(I1
(I6
tp3322
g35
I00
(lp3323
g39
ag40
ag41
ag42
ag43
ag44
atp3324
bsg15
Nstp3325
Rp3326
a(dp3327
g71
(dp3328
g73
g3300
sg74
(lp3329
(dp3330
g77
g78
(I0
I6
I1
tp3331
Rp3332
sg81
g3313
sasstp3333
bsg83
g84
sg15
NsbsF15.0
g7
(g8
g9
Ntp3334
Rp3335
(dp3336
g13
g14
sg16
g7
(g17
g9
Ntp3337
Rp3338
((lp3339
g21
(g22
(dp3340
g24
g25
(g26
(I0
tp3341
g28
tp3342
Rp3343
(I1
(I6
tp3344
g35
I00
(lp3345
g39
ag40
ag41
ag42
ag43
ag44
atp3346
bsg15
Nstp3347
Rp3348
a(lp3349
g25
(g26
(I0
tp3350
g28
tp3351
Rp3352
(I1
(I6
tp3353
g55
I00
S'\xb8\x00\x13N\\\xf9\xfd?\x1aV\xa8\x1e\x83\x00"@\x83]\x9c\xc7Rv1@\xa0\xde\x154\xad\x00\xff?2\x97\xfbNG\xd4\x05@\xc6\x142\xdca5\xda?'
p3354
tp3355
ba(lp3356
g21
(g22
(dp3357
g24
g25
(g26
(I0
tp3358
g28
tp3359
Rp3360
(I1
(I6
tp3361
g35
I00
(lp3362
g39
ag40
ag41
ag42
ag43
ag44
atp3363
bsg15
Nstp3364
Rp3365
a(dp3366
g71
(dp3367
g73
g3339
sg74
(lp3368
(dp3369
g77
g78
(I0
I6
I1
tp3370
Rp3371
sg81
g3352
sasstp3372
bsg83
g84
sg15
NsbsF80.0
g7
(g8
g9
Ntp3373
Rp3374
(dp3375
g13
g14
sg16
g7
(g17
g9
Ntp3376
Rp3377
((lp3378
g21
(g22
(dp3379
g24
g25
(g26
(I0
tp3380
g28
tp3381
Rp3382
(I1
(I6
tp3383
g35
I00
(lp3384
g39
ag40
ag41
ag42
ag43
ag44
atp3385
bsg15
Nstp3386
Rp3387
a(lp3388
g25
(g26
(I0
tp3389
g28
tp3390
Rp3391
(I1
(I6
tp3392
g55
I00
S'3\xb3\xe8\xe8P\xa3\xf5?\x18\x95\xdeB;\x15$@&\xe6D;\xfb\xc9.@\xfd3\x04\xaa\xac\x15\x00@\x901\xe9\xc5\xa5\xf8\x02@*/\xea\xd8\x1f\xe5\xd1?'
p3393
tp3394
ba(lp3395
g21
(g22
(dp3396
g24
g25
(g26
(I0
tp3397
g28
tp3398
Rp3399
(I1
(I6
tp3400
g35
I00
(lp3401
g39
ag40
ag41
ag42
ag43
ag44
atp3402
bsg15
Nstp3403
Rp3404
a(dp3405
g71
(dp3406
g73
g3378
sg74
(lp3407
(dp3408
g77
g78
(I0
I6
I1
tp3409
Rp3410
sg81
g3391
sasstp3411
bsg83
g84
sg15
NsbsF50.0
g7
(g8
g9
Ntp3412
Rp3413
(dp3414
g13
g14
sg16
g7
(g17
g9
Ntp3415
Rp3416
((lp3417
g21
(g22
(dp3418
g24
g25
(g26
(I0
tp3419
g28
tp3420
Rp3421
(I1
(I6
tp3422
g35
I00
(lp3423
g39
ag40
ag41
ag42
ag43
ag44
atp3424
bsg15
Nstp3425
Rp3426
a(lp3427
g25
(g26
(I0
tp3428
g28
tp3429
Rp3430
(I1
(I6
tp3431
g55
I00
S'\xc4\'\xc2z\xcbA\xf8?O\x82"l:}!@:\xdd\xc8Zm\x000@\xd8\xe8\xdf\xac(\x8f\xfe?\xf8nz,E*\x03@1W\xd0\xcdi\xc1\xd3?'
p3432
tp3433
ba(lp3434
g21
(g22
(dp3435
g24
g25
(g26
(I0
tp3436
g28
tp3437
Rp3438
(I1
(I6
tp3439
g35
I00
(lp3440
g39
ag40
ag41
ag42
ag43
ag44
atp3441
bsg15
Nstp3442
Rp3443
a(dp3444
g71
(dp3445
g73
g3417
sg74
(lp3446
(dp3447
g77
g78
(I0
I6
I1
tp3448
Rp3449
sg81
g3430
sasstp3450
bsg83
g84
sg15
NsbsF20.0
g7
(g8
g9
Ntp3451
Rp3452
(dp3453
g13
g14
sg16
g7
(g17
g9
Ntp3454
Rp3455
((lp3456
g21
(g22
(dp3457
g24
g25
(g26
(I0
tp3458
g28
tp3459
Rp3460
(I1
(I6
tp3461
g35
I00
(lp3462
g39
ag40
ag41
ag42
ag43
ag44
atp3463
bsg15
Nstp3464
Rp3465
a(lp3466
g25
(g26
(I0
tp3467
g28
tp3468
Rp3469
(I1
(I6
tp3470
g55
I00
S"U\xe9I\xa0l=\xfc?N\x80'\xf9\xff\xe5 @OC\x1f\xab\xd171@\x86\xeb\x846zl\xfd?\xe6O\xb6=@\xb8\x07@\xd7\x0f\xe3\x89\xe4\xe8\xd3?"
p3471
tp3472
ba(lp3473
g21
(g22
(dp3474
g24
g25
(g26
(I0
tp3475
g28
tp3476
Rp3477
(I1
(I6
tp3478
g35
I00
(lp3479
g39
ag40
ag41
ag42
ag43
ag44
atp3480
bsg15
Nstp3481
Rp3482
a(dp3483
g71
(dp3484
g73
g3456
sg74
(lp3485
(dp3486
g77
g78
(I0
I6
I1
tp3487
Rp3488
sg81
g3469
sasstp3489
bsg83
g84
sg15
NsbsF90.0
g7
(g8
g9
Ntp3490
Rp3491
(dp3492
g13
g14
sg16
g7
(g17
g9
Ntp3493
Rp3494
((lp3495
g21
(g22
(dp3496
g24
g25
(g26
(I0
tp3497
g28
tp3498
Rp3499
(I1
(I6
tp3500
g35
I00
(lp3501
g39
ag40
ag41
ag42
ag43
ag44
atp3502
bsg15
Nstp3503
Rp3504
a(lp3505
g25
(g26
(I0
tp3506
g28
tp3507
Rp3508
(I1
(I6
tp3509
g55
I00
S'\xac\xb6\xe1\xfe+`\xf3?\xc0\xbdW\xe4\xfb\xaa#@@\x81\xa63\x9f</@\xa8\x90\xd8T\x82\x1d\xff?\xdc\xab\xc2.`\x0f\x02@\xb2\xd9\xd2893\xd3?'
p3510
tp3511
ba(lp3512
g21
(g22
(dp3513
g24
g25
(g26
(I0
tp3514
g28
tp3515
Rp3516
(I1
(I6
tp3517
g35
I00
(lp3518
g39
ag40
ag41
ag42
ag43
ag44
atp3519
bsg15
Nstp3520
Rp3521
a(dp3522
g71
(dp3523
g73
g3495
sg74
(lp3524
(dp3525
g77
g78
(I0
I6
I1
tp3526
Rp3527
sg81
g3508
sasstp3528
bsg83
g84
sg15
NsbsF60.0
g7
(g8
g9
Ntp3529
Rp3530
(dp3531
g13
g14
sg16
g7
(g17
g9
Ntp3532
Rp3533
((lp3534
g21
(g22
(dp3535
g24
g25
(g26
(I0
tp3536
g28
tp3537
Rp3538
(I1
(I6
tp3539
g35
I00
(lp3540
g39
ag40
ag41
ag42
ag43
ag44
atp3541
bsg15
Nstp3542
Rp3543
a(lp3544
g25
(g26
(I0
tp3545
g28
tp3546
Rp3547
(I1
(I6
tp3548
g55
I00
S'U\xcd\x8a\xbe,f\xf8?\xf7_]\x1a\xc4\xd7!@n\xda\x92u\xc210@ `\xbfB\x84\x82\xfe?33~\xd7\xeb\xb1\x03@\xa3E\xc4\xd1^\x12\xd1?'
p3549
tp3550
ba(lp3551
g21
(g22
(dp3552
g24
g25
(g26
(I0
tp3553
g28
tp3554
Rp3555
(I1
(I6
tp3556
g35
I00
(lp3557
g39
ag40
ag41
ag42
ag43
ag44
atp3558
bsg15
Nstp3559
Rp3560
a(dp3561
g71
(dp3562
g73
g3534
sg74
(lp3563
(dp3564
g77
g78
(I0
I6
I1
tp3565
Rp3566
sg81
g3547
sasstp3567
bsg83
g84
sg15
NsbsF30.0
g7
(g8
g9
Ntp3568
Rp3569
(dp3570
g13
g14
sg16
g7
(g17
g9
Ntp3571
Rp3572
((lp3573
g21
(g22
(dp3574
g24
g25
(g26
(I0
tp3575
g28
tp3576
Rp3577
(I1
(I6
tp3578
g35
I00
(lp3579
g39
ag40
ag41
ag42
ag43
ag44
atp3580
bsg15
Nstp3581
Rp3582
a(lp3583
g25
(g26
(I0
tp3584
g28
tp3585
Rp3586
(I1
(I6
tp3587
g55
I00
S'#\x97\xfaw\xf8\x84\xf8?\xec\xe3ET\x00\xa1"@\xbdma\xbfD\x10/@\xa6d~7J\x95\xfd?U\x94)Y\xe6\x15\x04@V,\xd0^c\x80\xd3?'
p3588
tp3589
ba(lp3590
g21
(g22
(dp3591
g24
g25
(g26
(I0
tp3592
g28
tp3593
Rp3594
(I1
(I6
tp3595
g35
I00
(lp3596
g39
ag40
ag41
ag42
ag43
ag44
atp3597
bsg15
Nstp3598
Rp3599
a(dp3600
g71
(dp3601
g73
g3573
sg74
(lp3602
(dp3603
g77
g78
(I0
I6
I1
tp3604
Rp3605
sg81
g3586
sasstp3606
bsg83
g84
sg15
Nsbssg553
(dp3607
F100.0
g7
(g8
g9
Ntp3608
Rp3609
(dp3610
g13
g14
sg16
g7
(g17
g9
Ntp3611
Rp3612
((lp3613
g21
(g22
(dp3614
g24
g25
(g26
(I0
tp3615
g28
tp3616
Rp3617
(I1
(I6
tp3618
g35
I00
(lp3619
g39
ag40
ag41
ag42
ag43
ag44
atp3620
bsg15
Nstp3621
Rp3622
a(lp3623
g25
(g26
(I0
tp3624
g28
tp3625
Rp3626
(I1
(I6
tp3627
g55
I00
S'\x10X%H\xbd\x8d\xf2?\x1e\x9fD\xd8\xd0U\x1a@\xfd \xd2\xe0>P1@\x92E@\x13\x8bH\xfb?\x18:e \xe3\x1d\x01@%\xc5\xfe\xc9\xbe-\xcc?'
p3628
tp3629
ba(lp3630
g21
(g22
(dp3631
g24
g25
(g26
(I0
tp3632
g28
tp3633
Rp3634
(I1
(I6
tp3635
g35
I00
(lp3636
g39
ag40
ag41
ag42
ag43
ag44
atp3637
bsg15
Nstp3638
Rp3639
a(dp3640
g71
(dp3641
g73
g3613
sg74
(lp3642
(dp3643
g77
g78
(I0
I6
I1
tp3644
Rp3645
sg81
g3626
sasstp3646
bsg83
g84
sg15
NsbsF70.0
g7
(g8
g9
Ntp3647
Rp3648
(dp3649
g13
g14
sg16
g7
(g17
g9
Ntp3650
Rp3651
((lp3652
g21
(g22
(dp3653
g24
g25
(g26
(I0
tp3654
g28
tp3655
Rp3656
(I1
(I6
tp3657
g35
I00
(lp3658
g39
ag40
ag41
ag42
ag43
ag44
atp3659
bsg15
Nstp3660
Rp3661
a(lp3662
g25
(g26
(I0
tp3663
g28
tp3664
Rp3665
(I1
(I6
tp3666
g55
I00
S'A\x91\x18\x9cK\xcc\xf5?\x82J\x13>r\xb6\x1d@\xe9[\x08\xfe\r\xf51@c\x9a\xacfil\xfc?\n\x8cd\x1c\x8a-\x02@u\xfb\x18\xbb\xdcv\xd1?'
p3667
tp3668
ba(lp3669
g21
(g22
(dp3670
g24
g25
(g26
(I0
tp3671
g28
tp3672
Rp3673
(I1
(I6
tp3674
g35
I00
(lp3675
g39
ag40
ag41
ag42
ag43
ag44
atp3676
bsg15
Nstp3677
Rp3678
a(dp3679
g71
(dp3680
g73
g3652
sg74
(lp3681
(dp3682
g77
g78
(I0
I6
I1
tp3683
Rp3684
sg81
g3665
sasstp3685
bsg83
g84
sg15
NsbsF6.0
g7
(g8
g9
Ntp3686
Rp3687
(dp3688
g13
g14
sg16
g7
(g17
g9
Ntp3689
Rp3690
((lp3691
g21
(g22
(dp3692
g24
g25
(g26
(I0
tp3693
g28
tp3694
Rp3695
(I1
(I6
tp3696
g35
I00
(lp3697
g39
ag40
ag41
ag42
ag43
ag44
atp3698
bsg15
Nstp3699
Rp3700
a(lp3701
g25
(g26
(I0
tp3702
g28
tp3703
Rp3704
(I1
(I6
tp3705
g55
I00
S'\x89\xce\n)\xb1\xf0\x01@\r\xff\xea\x92l\xe5#@\x1e\r\x7f\xdc.y<@K\xc1\xce\x0b\x07\x98\x07@QN\xde\xef\xa9\xa8\x11@[\xc5_}BA\x18@'
p3706
tp3707
ba(lp3708
g21
(g22
(dp3709
g24
g25
(g26
(I0
tp3710
g28
tp3711
Rp3712
(I1
(I6
tp3713
g35
I00
(lp3714
g39
ag40
ag41
ag42
ag43
ag44
atp3715
bsg15
Nstp3716
Rp3717
a(dp3718
g71
(dp3719
g73
g3691
sg74
(lp3720
(dp3721
g77
g78
(I0
I6
I1
tp3722
Rp3723
sg81
g3704
sasstp3724
bsg83
g84
sg15
NsbsF40.0
g7
(g8
g9
Ntp3725
Rp3726
(dp3727
g13
g14
sg16
g7
(g17
g9
Ntp3728
Rp3729
((lp3730
g21
(g22
(dp3731
g24
g25
(g26
(I0
tp3732
g28
tp3733
Rp3734
(I1
(I6
tp3735
g35
I00
(lp3736
g39
ag40
ag41
ag42
ag43
ag44
atp3737
bsg15
Nstp3738
Rp3739
a(lp3740
g25
(g26
(I0
tp3741
g28
tp3742
Rp3743
(I1
(I6
tp3744
g55
I00
S'\xb6\xb9y\x08[\xa0\xf7?@,5\xe5\xe6]\x1d@\x8d\xf3\x8d\xe6q\xcf1@\xb5c\xce\x06\x04\t\xfe?\xd0\xaa9[\xde\xa5\x02@\x1b\xdaz\x85~\x88\xde?'
p3745
tp3746
ba(lp3747
g21
(g22
(dp3748
g24
g25
(g26
(I0
tp3749
g28
tp3750
Rp3751
(I1
(I6
tp3752
g35
I00
(lp3753
g39
ag40
ag41
ag42
ag43
ag44
atp3754
bsg15
Nstp3755
Rp3756
a(dp3757
g71
(dp3758
g73
g3730
sg74
(lp3759
(dp3760
g77
g78
(I0
I6
I1
tp3761
Rp3762
sg81
g3743
sasstp3763
bsg83
g84
sg15
NsbsF9.0
g7
(g8
g9
Ntp3764
Rp3765
(dp3766
g13
g14
sg16
g7
(g17
g9
Ntp3767
Rp3768
((lp3769
g21
(g22
(dp3770
g24
g25
(g26
(I0
tp3771
g28
tp3772
Rp3773
(I1
(I6
tp3774
g35
I00
(lp3775
g39
ag40
ag41
ag42
ag43
ag44
atp3776
bsg15
Nstp3777
Rp3778
a(lp3779
g25
(g26
(I0
tp3780
g28
tp3781
Rp3782
(I1
(I6
tp3783
g55
I00
S'\xc0G\xf4\xe6\xa4\x1b\x00@\n\x80\x89^\xba\xa8$@\xa2\xcbz\xab\x18\xc19@T_\x1d\x8av\x93\x05@c\x10#\xc8>\xd0\x0f@3\xc7\xcc\x08\x82\xbd\x11@'
p3784
tp3785
ba(lp3786
g21
(g22
(dp3787
g24
g25
(g26
(I0
tp3788
g28
tp3789
Rp3790
(I1
(I6
tp3791
g35
I00
(lp3792
g39
ag40
ag41
ag42
ag43
ag44
atp3793
bsg15
Nstp3794
Rp3795
a(dp3796
g71
(dp3797
g73
g3769
sg74
(lp3798
(dp3799
g77
g78
(I0
I6
I1
tp3800
Rp3801
sg81
g3782
sasstp3802
bsg83
g84
sg15
NsbsF10.0
g7
(g8
g9
Ntp3803
Rp3804
(dp3805
g13
g14
sg16
g7
(g17
g9
Ntp3806
Rp3807
((lp3808
g21
(g22
(dp3809
g24
g25
(g26
(I0
tp3810
g28
tp3811
Rp3812
(I1
(I6
tp3813
g35
I00
(lp3814
g39
ag40
ag41
ag42
ag43
ag44
atp3815
bsg15
Nstp3816
Rp3817
a(lp3818
g25
(g26
(I0
tp3819
g28
tp3820
Rp3821
(I1
(I6
tp3822
g55
I00
S'\xc0G\xf4\xe6\xa4\x1b\x00@\n\x80\x89^\xba\xa8$@\xa2\xcbz\xab\x18\xc19@T_\x1d\x8av\x93\x05@c\x10#\xc8>\xd0\x0f@3\xc7\xcc\x08\x82\xbd\x11@'
p3823
tp3824
ba(lp3825
g21
(g22
(dp3826
g24
g25
(g26
(I0
tp3827
g28
tp3828
Rp3829
(I1
(I6
tp3830
g35
I00
(lp3831
g39
ag40
ag41
ag42
ag43
ag44
atp3832
bsg15
Nstp3833
Rp3834
a(dp3835
g71
(dp3836
g73
g3808
sg74
(lp3837
(dp3838
g77
g78
(I0
I6
I1
tp3839
Rp3840
sg81
g3821
sasstp3841
bsg83
g84
sg15
NsbsF15.0
g7
(g8
g9
Ntp3842
Rp3843
(dp3844
g13
g14
sg16
g7
(g17
g9
Ntp3845
Rp3846
((lp3847
g21
(g22
(dp3848
g24
g25
(g26
(I0
tp3849
g28
tp3850
Rp3851
(I1
(I6
tp3852
g35
I00
(lp3853
g39
ag40
ag41
ag42
ag43
ag44
atp3854
bsg15
Nstp3855
Rp3856
a(lp3857
g25
(g26
(I0
tp3858
g28
tp3859
Rp3860
(I1
(I6
tp3861
g55
I00
S'Xl\xd7\xed\xaag\xfc?\x8bC&B\xd4\x00 @\xd7\xa3\x97\xe0\xb0\x8b9@%\xdbG\x15\xd9\x8c\xff?!!i\xea\xe3\xe9\x07@Z$\xa61\xc2&\xe4?'
p3862
tp3863
ba(lp3864
g21
(g22
(dp3865
g24
g25
(g26
(I0
tp3866
g28
tp3867
Rp3868
(I1
(I6
tp3869
g35
I00
(lp3870
g39
ag40
ag41
ag42
ag43
ag44
atp3871
bsg15
Nstp3872
Rp3873
a(dp3874
g71
(dp3875
g73
g3847
sg74
(lp3876
(dp3877
g77
g78
(I0
I6
I1
tp3878
Rp3879
sg81
g3860
sasstp3880
bsg83
g84
sg15
NsbsF80.0
g7
(g8
g9
Ntp3881
Rp3882
(dp3883
g13
g14
sg16
g7
(g17
g9
Ntp3884
Rp3885
((lp3886
g21
(g22
(dp3887
g24
g25
(g26
(I0
tp3888
g28
tp3889
Rp3890
(I1
(I6
tp3891
g35
I00
(lp3892
g39
ag40
ag41
ag42
ag43
ag44
atp3893
bsg15
Nstp3894
Rp3895
a(lp3896
g25
(g26
(I0
tp3897
g28
tp3898
Rp3899
(I1
(I6
tp3900
g55
I00
S'\xa4hM`\x1ch\xf4?\xca?\xd7\x89\xe2K\x1b@\x93\xb0Vr\x9b\xb01@\xa3\xac\xabF&\xa7\xfa?\xca6|lK\xdd\x01@\xf0\xd3l\xf2\x9a\x8a\xd7?'
p3901
tp3902
ba(lp3903
g21
(g22
(dp3904
g24
g25
(g26
(I0
tp3905
g28
tp3906
Rp3907
(I1
(I6
tp3908
g35
I00
(lp3909
g39
ag40
ag41
ag42
ag43
ag44
atp3910
bsg15
Nstp3911
Rp3912
a(dp3913
g71
(dp3914
g73
g3886
sg74
(lp3915
(dp3916
g77
g78
(I0
I6
I1
tp3917
Rp3918
sg81
g3899
sasstp3919
bsg83
g84
sg15
NsbsF50.0
g7
(g8
g9
Ntp3920
Rp3921
(dp3922
g13
g14
sg16
g7
(g17
g9
Ntp3923
Rp3924
((lp3925
g21
(g22
(dp3926
g24
g25
(g26
(I0
tp3927
g28
tp3928
Rp3929
(I1
(I6
tp3930
g35
I00
(lp3931
g39
ag40
ag41
ag42
ag43
ag44
atp3932
bsg15
Nstp3933
Rp3934
a(lp3935
g25
(g26
(I0
tp3936
g28
tp3937
Rp3938
(I1
(I6
tp3939
g55
I00
S'`m\x1a\x0e\n3\xf6?pN\x15\xe52Q\x1d@\x02l\xf7\x98gd2@\xe5\x9d\xbf\xa0\xea$\xff?v-\xd2\xe9\xd5\xc8\x01@&\xfb\xceg\xf0H\xd4?'
p3940
tp3941
ba(lp3942
g21
(g22
(dp3943
g24
g25
(g26
(I0
tp3944
g28
tp3945
Rp3946
(I1
(I6
tp3947
g35
I00
(lp3948
g39
ag40
ag41
ag42
ag43
ag44
atp3949
bsg15
Nstp3950
Rp3951
a(dp3952
g71
(dp3953
g73
g3925
sg74
(lp3954
(dp3955
g77
g78
(I0
I6
I1
tp3956
Rp3957
sg81
g3938
sasstp3958
bsg83
g84
sg15
NsbsF20.0
g7
(g8
g9
Ntp3959
Rp3960
(dp3961
g13
g14
sg16
g7
(g17
g9
Ntp3962
Rp3963
((lp3964
g21
(g22
(dp3965
g24
g25
(g26
(I0
tp3966
g28
tp3967
Rp3968
(I1
(I6
tp3969
g35
I00
(lp3970
g39
ag40
ag41
ag42
ag43
ag44
atp3971
bsg15
Nstp3972
Rp3973
a(lp3974
g25
(g26
(I0
tp3975
g28
tp3976
Rp3977
(I1
(I6
tp3978
g55
I00
S'X\x0ck\x13.\xea\xfb?<\xf21\x9eB;!@\x1f5\x00\xf6\xf9\xcc5@\xd3\xef\n\x91\x07O\x00@\xcbA\x1biW\x02\x06@\xdc\xf9\xe7\xfc\xdd\x83\xe5?'
p3979
tp3980
ba(lp3981
g21
(g22
(dp3982
g24
g25
(g26
(I0
tp3983
g28
tp3984
Rp3985
(I1
(I6
tp3986
g35
I00
(lp3987
g39
ag40
ag41
ag42
ag43
ag44
atp3988
bsg15
Nstp3989
Rp3990
a(dp3991
g71
(dp3992
g73
g3964
sg74
(lp3993
(dp3994
g77
g78
(I0
I6
I1
tp3995
Rp3996
sg81
g3977
sasstp3997
bsg83
g84
sg15
NsbsF90.0
g7
(g8
g9
Ntp3998
Rp3999
(dp4000
g13
g14
sg16
g7
(g17
g9
Ntp4001
Rp4002
((lp4003
g21
(g22
(dp4004
g24
g25
(g26
(I0
tp4005
g28
tp4006
Rp4007
(I1
(I6
tp4008
g35
I00
(lp4009
g39
ag40
ag41
ag42
ag43
ag44
atp4010
bsg15
Nstp4011
Rp4012
a(lp4013
g25
(g26
(I0
tp4014
g28
tp4015
Rp4016
(I1
(I6
tp4017
g55
I00
S'*\xdb\x88\x93]M\xf3?\x86\xac\x1e\x82\xf1\xdc\x1e@\xc8\xf9Bc9\x8a0@\xa3E\xa6Z\xd9,\xfe?p\xd2CjTy\x01@q\xbc\x89\x17%\xb4\xd1?'
p4018
tp4019
ba(lp4020
g21
(g22
(dp4021
g24
g25
(g26
(I0
tp4022
g28
tp4023
Rp4024
(I1
(I6
tp4025
g35
I00
(lp4026
g39
ag40
ag41
ag42
ag43
ag44
atp4027
bsg15
Nstp4028
Rp4029
a(dp4030
g71
(dp4031
g73
g4003
sg74
(lp4032
(dp4033
g77
g78
(I0
I6
I1
tp4034
Rp4035
sg81
g4016
sasstp4036
bsg83
g84
sg15
NsbsF60.0
g7
(g8
g9
Ntp4037
Rp4038
(dp4039
g13
g14
sg16
g7
(g17
g9
Ntp4040
Rp4041
((lp4042
g21
(g22
(dp4043
g24
g25
(g26
(I0
tp4044
g28
tp4045
Rp4046
(I1
(I6
tp4047
g35
I00
(lp4048
g39
ag40
ag41
ag42
ag43
ag44
atp4049
bsg15
Nstp4050
Rp4051
a(lp4052
g25
(g26
(I0
tp4053
g28
tp4054
Rp4055
(I1
(I6
tp4056
g55
I00
S'\x9d\td!\x9d\x0c\xf5?\xe8z\x1f\xf7D\x07\x1d@\x14e\r\xdf\xeb\x0c1@\nv\xb8\xe0W\xa7\xfb?\x93E=\x12\xbb\xd5\x01@ \xd5a\x9a\xc8D\xd9?'
p4057
tp4058
ba(lp4059
g21
(g22
(dp4060
g24
g25
(g26
(I0
tp4061
g28
tp4062
Rp4063
(I1
(I6
tp4064
g35
I00
(lp4065
g39
ag40
ag41
ag42
ag43
ag44
atp4066
bsg15
Nstp4067
Rp4068
a(dp4069
g71
(dp4070
g73
g4042
sg74
(lp4071
(dp4072
g77
g78
(I0
I6
I1
tp4073
Rp4074
sg81
g4055
sasstp4075
bsg83
g84
sg15
NsbsF30.0
g7
(g8
g9
Ntp4076
Rp4077
(dp4078
g13
g14
sg16
g7
(g17
g9
Ntp4079
Rp4080
((lp4081
g21
(g22
(dp4082
g24
g25
(g26
(I0
tp4083
g28
tp4084
Rp4085
(I1
(I6
tp4086
g35
I00
(lp4087
g39
ag40
ag41
ag42
ag43
ag44
atp4088
bsg15
Nstp4089
Rp4090
a(lp4091
g25
(g26
(I0
tp4092
g28
tp4093
Rp4094
(I1
(I6
tp4095
g55
I00
S'\n|\x12\xecRs\xf5?\xf9\xf2XU\xdec @\xa3\xa6*\x9d\xf0{2@\xb8\xbf\xf7}\x1d\xc2\xfe?\xaa|\xb0\xa0\x8f\xd3\x02@\xcf\xd8\xd0\xd1<]\xe3?'
p4096
tp4097
ba(lp4098
g21
(g22
(dp4099
g24
g25
(g26
(I0
tp4100
g28
tp4101
Rp4102
(I1
(I6
tp4103
g35
I00
(lp4104
g39
ag40
ag41
ag42
ag43
ag44
atp4105
bsg15
Nstp4106
Rp4107
a(dp4108
g71
(dp4109
g73
g4081
sg74
(lp4110
(dp4111
g77
g78
(I0
I6
I1
tp4112
Rp4113
sg81
g4094
sasstp4114
bsg83
g84
sg15
NsbsssssI4
(dp4115
g2
(dp4116
g2
(dp4117
g5
(dp4118
F100.0
g7
(g8
g9
Ntp4119
Rp4120
(dp4121
g13
g14
sg16
g7
(g17
g9
Ntp4122
Rp4123
((lp4124
g21
(g22
(dp4125
g24
g25
(g26
(I0
tp4126
g28
tp4127
Rp4128
(I1
(I6
tp4129
g35
I00
(lp4130
g39
ag40
ag41
ag42
ag43
ag44
atp4131
bsg15
Nstp4132
Rp4133
a(lp4134
g25
(g26
(I0
tp4135
g28
tp4136
Rp4137
(I1
(I6
tp4138
g55
I00
S'\xcaV\xeb\xa4\xc7\x96\xee?:\xfe\xaa\xea\xd4U"@\x98\xba:i\xcb\x04.@\xfb|*\xfcp\x14\xfe?\xd4j\x92),J\x03@\x90\xba76\xac\xcc\xdf?'
p4139
tp4140
ba(lp4141
g21
(g22
(dp4142
g24
g25
(g26
(I0
tp4143
g28
tp4144
Rp4145
(I1
(I6
tp4146
g35
I00
(lp4147
g39
ag40
ag41
ag42
ag43
ag44
atp4148
bsg15
Nstp4149
Rp4150
a(dp4151
g71
(dp4152
g73
g4124
sg74
(lp4153
(dp4154
g77
g78
(I0
I6
I1
tp4155
Rp4156
sg81
g4137
sasstp4157
bsg83
g84
sg15
NsbsF70.0
g7
(g8
g9
Ntp4158
Rp4159
(dp4160
g13
g14
sg16
g7
(g17
g9
Ntp4161
Rp4162
((lp4163
g21
(g22
(dp4164
g24
g25
(g26
(I0
tp4165
g28
tp4166
Rp4167
(I1
(I6
tp4168
g35
I00
(lp4169
g39
ag40
ag41
ag42
ag43
ag44
atp4170
bsg15
Nstp4171
Rp4172
a(lp4173
g25
(g26
(I0
tp4174
g28
tp4175
Rp4176
(I1
(I6
tp4177
g55
I00
S'\xcb\xdcY\xd6\xd0\x0b\xf2?\x96\xc2\x9a\x07\x9a\xe7%@\x15\xc3\xc4\xae\xda\xc2.@\xb8\x9e`\xf4\xe7\xdc\x01@~"\xa7\x12\xc7\xf9\x02@\xbad\xfc\xac\xfb\xeb\xd9?'
p4178
tp4179
ba(lp4180
g21
(g22
(dp4181
g24
g25
(g26
(I0
tp4182
g28
tp4183
Rp4184
(I1
(I6
tp4185
g35
I00
(lp4186
g39
ag40
ag41
ag42
ag43
ag44
atp4187
bsg15
Nstp4188
Rp4189
a(dp4190
g71
(dp4191
g73
g4163
sg74
(lp4192
(dp4193
g77
g78
(I0
I6
I1
tp4194
Rp4195
sg81
g4176
sasstp4196
bsg83
g84
sg15
NsbsF6.0
g7
(g8
g9
Ntp4197
Rp4198
(dp4199
g13
g14
sg16
g7
(g17
g9
Ntp4200
Rp4201
((lp4202
g21
(g22
(dp4203
g24
g25
(g26
(I0
tp4204
g28
tp4205
Rp4206
(I1
(I6
tp4207
g35
I00
(lp4208
g39
ag40
ag41
ag42
ag43
ag44
atp4209
bsg15
Nstp4210
Rp4211
a(lp4212
g25
(g26
(I0
tp4213
g28
tp4214
Rp4215
(I1
(I6
tp4216
g55
I00
S'\x8a\xc4G\x83]:\xf1?\x95\x1db\x02*\xd6#@Vk\x96#\xbb\x1f9@\x96\x96u\xd2\xfa\xf0\x00@\xc9\xb4q\x1d\xf52\x04@\xeex\x19\xdf\xff<\xdb?'
p4217
tp4218
ba(lp4219
g21
(g22
(dp4220
g24
g25
(g26
(I0
tp4221
g28
tp4222
Rp4223
(I1
(I6
tp4224
g35
I00
(lp4225
g39
ag40
ag41
ag42
ag43
ag44
atp4226
bsg15
Nstp4227
Rp4228
a(dp4229
g71
(dp4230
g73
g4202
sg74
(lp4231
(dp4232
g77
g78
(I0
I6
I1
tp4233
Rp4234
sg81
g4215
sasstp4235
bsg83
g84
sg15
NsbsF40.0
g7
(g8
g9
Ntp4236
Rp4237
(dp4238
g13
g14
sg16
g7
(g17
g9
Ntp4239
Rp4240
((lp4241
g21
(g22
(dp4242
g24
g25
(g26
(I0
tp4243
g28
tp4244
Rp4245
(I1
(I6
tp4246
g35
I00
(lp4247
g39
ag40
ag41
ag42
ag43
ag44
atp4248
bsg15
Nstp4249
Rp4250
a(lp4251
g25
(g26
(I0
tp4252
g28
tp4253
Rp4254
(I1
(I6
tp4255
g55
I00
S'x\xab\xe0\xd5\x0e\xcb\xf2?F\xfa\x80Pk\xcc$@\xba\x8f\xdb(\x9d20@\x8dc\x80\x1c\xa0\x8b\x01@\xbb\x14q\xce\xd8|\x02@\x0e\x13\xab}TD\xd9?'
p4256
tp4257
ba(lp4258
g21
(g22
(dp4259
g24
g25
(g26
(I0
tp4260
g28
tp4261
Rp4262
(I1
(I6
tp4263
g35
I00
(lp4264
g39
ag40
ag41
ag42
ag43
ag44
atp4265
bsg15
Nstp4266
Rp4267
a(dp4268
g71
(dp4269
g73
g4241
sg74
(lp4270
(dp4271
g77
g78
(I0
I6
I1
tp4272
Rp4273
sg81
g4254
sasstp4274
bsg83
g84
sg15
NsbsF9.0
g7
(g8
g9
Ntp4275
Rp4276
(dp4277
g13
g14
sg16
g7
(g17
g9
Ntp4278
Rp4279
((lp4280
g21
(g22
(dp4281
g24
g25
(g26
(I0
tp4282
g28
tp4283
Rp4284
(I1
(I6
tp4285
g35
I00
(lp4286
g39
ag40
ag41
ag42
ag43
ag44
atp4287
bsg15
Nstp4288
Rp4289
a(lp4290
g25
(g26
(I0
tp4291
g28
tp4292
Rp4293
(I1
(I6
tp4294
g55
I00
S'"\xd1U@\x03\xf0\xf0?\xa7\x93\x80\xa7B\xc4"@8\xf2\ts\xf1e6@0}b\x9e\xee\x14\x00@\x82\xbc\xcd?\x9f\xc5\x03@\xbd\xa8V\xea\xaa"\xd7?'
p4295
tp4296
ba(lp4297
g21
(g22
(dp4298
g24
g25
(g26
(I0
tp4299
g28
tp4300
Rp4301
(I1
(I6
tp4302
g35
I00
(lp4303
g39
ag40
ag41
ag42
ag43
ag44
atp4304
bsg15
Nstp4305
Rp4306
a(dp4307
g71
(dp4308
g73
g4280
sg74
(lp4309
(dp4310
g77
g78
(I0
I6
I1
tp4311
Rp4312
sg81
g4293
sasstp4313
bsg83
g84
sg15
NsbsF10.0
g7
(g8
g9
Ntp4314
Rp4315
(dp4316
g13
g14
sg16
g7
(g17
g9
Ntp4317
Rp4318
((lp4319
g21
(g22
(dp4320
g24
g25
(g26
(I0
tp4321
g28
tp4322
Rp4323
(I1
(I6
tp4324
g35
I00
(lp4325
g39
ag40
ag41
ag42
ag43
ag44
atp4326
bsg15
Nstp4327
Rp4328
a(lp4329
g25
(g26
(I0
tp4330
g28
tp4331
Rp4332
(I1
(I6
tp4333
g55
I00
S'"\xd1U@\x03\xf0\xf0?\xa7\x93\x80\xa7B\xc4"@8\xf2\ts\xf1e6@0}b\x9e\xee\x14\x00@\x82\xbc\xcd?\x9f\xc5\x03@\xbd\xa8V\xea\xaa"\xd7?'
p4334
tp4335
ba(lp4336
g21
(g22
(dp4337
g24
g25
(g26
(I0
tp4338
g28
tp4339
Rp4340
(I1
(I6
tp4341
g35
I00
(lp4342
g39
ag40
ag41
ag42
ag43
ag44
atp4343
bsg15
Nstp4344
Rp4345
a(dp4346
g71
(dp4347
g73
g4319
sg74
(lp4348
(dp4349
g77
g78
(I0
I6
I1
tp4350
Rp4351
sg81
g4332
sasstp4352
bsg83
g84
sg15
NsbsF15.0
g7
(g8
g9
Ntp4353
Rp4354
(dp4355
g13
g14
sg16
g7
(g17
g9
Ntp4356
Rp4357
((lp4358
g21
(g22
(dp4359
g24
g25
(g26
(I0
tp4360
g28
tp4361
Rp4362
(I1
(I6
tp4363
g35
I00
(lp4364
g39
ag40
ag41
ag42
ag43
ag44
atp4365
bsg15
Nstp4366
Rp4367
a(lp4368
g25
(g26
(I0
tp4369
g28
tp4370
Rp4371
(I1
(I6
tp4372
g55
I00
S'Z\xd3h\xf0?n\xf1?\xc31\xe7\xae\xd3\xc3"@\x8a\x9a\xe2\xdd\xccm2@U\xb8\xc5yw\xa0\xff?\x9e\x14S\xe7V\xef\x03@\xb8Lf/\xd1;\xda?'
p4373
tp4374
ba(lp4375
g21
(g22
(dp4376
g24
g25
(g26
(I0
tp4377
g28
tp4378
Rp4379
(I1
(I6
tp4380
g35
I00
(lp4381
g39
ag40
ag41
ag42
ag43
ag44
atp4382
bsg15
Nstp4383
Rp4384
a(dp4385
g71
(dp4386
g73
g4358
sg74
(lp4387
(dp4388
g77
g78
(I0
I6
I1
tp4389
Rp4390
sg81
g4371
sasstp4391
bsg83
g84
sg15
NsbsF80.0
g7
(g8
g9
Ntp4392
Rp4393
(dp4394
g13
g14
sg16
g7
(g17
g9
Ntp4395
Rp4396
((lp4397
g21
(g22
(dp4398
g24
g25
(g26
(I0
tp4399
g28
tp4400
Rp4401
(I1
(I6
tp4402
g35
I00
(lp4403
g39
ag40
ag41
ag42
ag43
ag44
atp4404
bsg15
Nstp4405
Rp4406
a(lp4407
g25
(g26
(I0
tp4408
g28
tp4409
Rp4410
(I1
(I6
tp4411
g55
I00
S'\x85Qo\xe8\xcdP\xf0?\xfeHK\x16\x01\x83!@b+I\xc3\x9e\xcc-@\x1dJ{\x00\x85\x1a\xfd?\xc288~\xd6\xf4\x03@\xb2&\xaf\xd5\xf6\xd0\xda?'
p4412
tp4413
ba(lp4414
g21
(g22
(dp4415
g24
g25
(g26
(I0
tp4416
g28
tp4417
Rp4418
(I1
(I6
tp4419
g35
I00
(lp4420
g39
ag40
ag41
ag42
ag43
ag44
atp4421
bsg15
Nstp4422
Rp4423
a(dp4424
g71
(dp4425
g73
g4397
sg74
(lp4426
(dp4427
g77
g78
(I0
I6
I1
tp4428
Rp4429
sg81
g4410
sasstp4430
bsg83
g84
sg15
NsbsF50.0
g7
(g8
g9
Ntp4431
Rp4432
(dp4433
g13
g14
sg16
g7
(g17
g9
Ntp4434
Rp4435
((lp4436
g21
(g22
(dp4437
g24
g25
(g26
(I0
tp4438
g28
tp4439
Rp4440
(I1
(I6
tp4441
g35
I00
(lp4442
g39
ag40
ag41
ag42
ag43
ag44
atp4443
bsg15
Nstp4444
Rp4445
a(lp4446
g25
(g26
(I0
tp4447
g28
tp4448
Rp4449
(I1
(I6
tp4450
g55
I00
S'\xf2z\xad;\xaf_\xf1?\x83I@\xa3\xb7M"@\xb5q\x9f\x9d\x14\xc1/@^M\xa7G\x98F\xff?b\\\xae\xf5\x87e\x03@\xde\xce}s\x1f\xd7\xd7?'
p4451
tp4452
ba(lp4453
g21
(g22
(dp4454
g24
g25
(g26
(I0
tp4455
g28
tp4456
Rp4457
(I1
(I6
tp4458
g35
I00
(lp4459
g39
ag40
ag41
ag42
ag43
ag44
atp4460
bsg15
Nstp4461
Rp4462
a(dp4463
g71
(dp4464
g73
g4436
sg74
(lp4465
(dp4466
g77
g78
(I0
I6
I1
tp4467
Rp4468
sg81
g4449
sasstp4469
bsg83
g84
sg15
NsbsF20.0
g7
(g8
g9
Ntp4470
Rp4471
(dp4472
g13
g14
sg16
g7
(g17
g9
Ntp4473
Rp4474
((lp4475
g21
(g22
(dp4476
g24
g25
(g26
(I0
tp4477
g28
tp4478
Rp4479
(I1
(I6
tp4480
g35
I00
(lp4481
g39
ag40
ag41
ag42
ag43
ag44
atp4482
bsg15
Nstp4483
Rp4484
a(lp4485
g25
(g26
(I0
tp4486
g28
tp4487
Rp4488
(I1
(I6
tp4489
g55
I00
S'\xec\xda\x97\xf2\xe2L\xf0?P\x02_\r\xd5\x86"@\xee*0Q\x0b\xd41@\x80\xac\x83\xfb8\x89\xff?\x91K\xad\x9e\xfa\x98\x03@\x92\x15\xea\x10\xde\xea\xd9?'
p4490
tp4491
ba(lp4492
g21
(g22
(dp4493
g24
g25
(g26
(I0
tp4494
g28
tp4495
Rp4496
(I1
(I6
tp4497
g35
I00
(lp4498
g39
ag40
ag41
ag42
ag43
ag44
atp4499
bsg15
Nstp4500
Rp4501
a(dp4502
g71
(dp4503
g73
g4475
sg74
(lp4504
(dp4505
g77
g78
(I0
I6
I1
tp4506
Rp4507
sg81
g4488
sasstp4508
bsg83
g84
sg15
NsbsF90.0
g7
(g8
g9
Ntp4509
Rp4510
(dp4511
g13
g14
sg16
g7
(g17
g9
Ntp4512
Rp4513
((lp4514
g21
(g22
(dp4515
g24
g25
(g26
(I0
tp4516
g28
tp4517
Rp4518
(I1
(I6
tp4519
g35
I00
(lp4520
g39
ag40
ag41
ag42
ag43
ag44
atp4521
bsg15
Nstp4522
Rp4523
a(lp4524
g25
(g26
(I0
tp4525
g28
tp4526
Rp4527
(I1
(I6
tp4528
g55
I00
S'\xb5Q~\xdcF+\xef?\xa7\x14P\x97!9"@~\x03\xfd\xa4~\t.@\xad\x17\x18fBF\xfe?\xe6T`\xdc\x0c\xa7\x03@0\xfcw\xc7O\x97\xdf?'
p4529
tp4530
ba(lp4531
g21
(g22
(dp4532
g24
g25
(g26
(I0
tp4533
g28
tp4534
Rp4535
(I1
(I6
tp4536
g35
I00
(lp4537
g39
ag40
ag41
ag42
ag43
ag44
atp4538
bsg15
Nstp4539
Rp4540
a(dp4541
g71
(dp4542
g73
g4514
sg74
(lp4543
(dp4544
g77
g78
(I0
I6
I1
tp4545
Rp4546
sg81
g4527
sasstp4547
bsg83
g84
sg15
NsbsF60.0
g7
(g8
g9
Ntp4548
Rp4549
(dp4550
g13
g14
sg16
g7
(g17
g9
Ntp4551
Rp4552
((lp4553
g21
(g22
(dp4554
g24
g25
(g26
(I0
tp4555
g28
tp4556
Rp4557
(I1
(I6
tp4558
g35
I00
(lp4559
g39
ag40
ag41
ag42
ag43
ag44
atp4560
bsg15
Nstp4561
Rp4562
a(lp4563
g25
(g26
(I0
tp4564
g28
tp4565
Rp4566
(I1
(I6
tp4567
g55
I00
S'\xeb\xde\t\x98\x8eU\xf1?X\xcaa\x9d\xa7\x1d#@\x16\xb2\xf9-\xa9)0@\x8ex\xd7\xebd\x87\xff?\xf4`\x8b\t\xc5\x94\x03@\xea\x01h,s~\xdb?'
p4568
tp4569
ba(lp4570
g21
(g22
(dp4571
g24
g25
(g26
(I0
tp4572
g28
tp4573
Rp4574
(I1
(I6
tp4575
g35
I00
(lp4576
g39
ag40
ag41
ag42
ag43
ag44
atp4577
bsg15
Nstp4578
Rp4579
a(dp4580
g71
(dp4581
g73
g4553
sg74
(lp4582
(dp4583
g77
g78
(I0
I6
I1
tp4584
Rp4585
sg81
g4566
sasstp4586
bsg83
g84
sg15
NsbsF30.0
g7
(g8
g9
Ntp4587
Rp4588
(dp4589
g13
g14
sg16
g7
(g17
g9
Ntp4590
Rp4591
((lp4592
g21
(g22
(dp4593
g24
g25
(g26
(I0
tp4594
g28
tp4595
Rp4596
(I1
(I6
tp4597
g35
I00
(lp4598
g39
ag40
ag41
ag42
ag43
ag44
atp4599
bsg15
Nstp4600
Rp4601
a(lp4602
g25
(g26
(I0
tp4603
g28
tp4604
Rp4605
(I1
(I6
tp4606
g55
I00
S'F6\xd6\x81\xf5\xa9\xf1?\xd4\x9e\xae\xe2P\x92 @dNrSw"0@c\xe9\xddk\xe9\x8c\xfd?\xaa\xabI\x8c#[\x03@r\xc5\x04\xd2RG\xd1?'
p4607
tp4608
ba(lp4609
g21
(g22
(dp4610
g24
g25
(g26
(I0
tp4611
g28
tp4612
Rp4613
(I1
(I6
tp4614
g35
I00
(lp4615
g39
ag40
ag41
ag42
ag43
ag44
atp4616
bsg15
Nstp4617
Rp4618
a(dp4619
g71
(dp4620
g73
g4592
sg74
(lp4621
(dp4622
g77
g78
(I0
I6
I1
tp4623
Rp4624
sg81
g4605
sasstp4625
bsg83
g84
sg15
Nsbssg553
(dp4626
F100.0
g7
(g8
g9
Ntp4627
Rp4628
(dp4629
g13
g14
sg16
g7
(g17
g9
Ntp4630
Rp4631
((lp4632
g21
(g22
(dp4633
g24
g25
(g26
(I0
tp4634
g28
tp4635
Rp4636
(I1
(I6
tp4637
g35
I00
(lp4638
g39
ag40
ag41
ag42
ag43
ag44
atp4639
bsg15
Nstp4640
Rp4641
a(lp4642
g25
(g26
(I0
tp4643
g28
tp4644
Rp4645
(I1
(I6
tp4646
g55
I00
S"\xb9\x1a\x13_\x96\x19\xf4?\xfe]4'\xde)\x1a@\xda\x11\xcf\xc5O\xc00@\x9e\x10\xc1\xd3\x9b*\xf8?,\xefW\xb2\x96C\x03@\xf6\r\x9dQOV\xd7?"
p4647
tp4648
ba(lp4649
g21
(g22
(dp4650
g24
g25
(g26
(I0
tp4651
g28
tp4652
Rp4653
(I1
(I6
tp4654
g35
I00
(lp4655
g39
ag40
ag41
ag42
ag43
ag44
atp4656
bsg15
Nstp4657
Rp4658
a(dp4659
g71
(dp4660
g73
g4632
sg74
(lp4661
(dp4662
g77
g78
(I0
I6
I1
tp4663
Rp4664
sg81
g4645
sasstp4665
bsg83
g84
sg15
NsbsF70.0
g7
(g8
g9
Ntp4666
Rp4667
(dp4668
g13
g14
sg16
g7
(g17
g9
Ntp4669
Rp4670
((lp4671
g21
(g22
(dp4672
g24
g25
(g26
(I0
tp4673
g28
tp4674
Rp4675
(I1
(I6
tp4676
g35
I00
(lp4677
g39
ag40
ag41
ag42
ag43
ag44
atp4678
bsg15
Nstp4679
Rp4680
a(lp4681
g25
(g26
(I0
tp4682
g28
tp4683
Rp4684
(I1
(I6
tp4685
g55
I00
S'\x06\xfa\n\x0c\xc2\x01\xf7?\xa6f\x16\x13\xfe\xf9\x1b@]\xf9\x94\xd8\x96\xf2/@\x11G\xf3\x9f\x07\x8b\xf9?\xd1\\=\x06j\xf8\x02@\x9d\x82\xd1\x9e[\xf8\xdc?'
p4686
tp4687
ba(lp4688
g21
(g22
(dp4689
g24
g25
(g26
(I0
tp4690
g28
tp4691
Rp4692
(I1
(I6
tp4693
g35
I00
(lp4694
g39
ag40
ag41
ag42
ag43
ag44
atp4695
bsg15
Nstp4696
Rp4697
a(dp4698
g71
(dp4699
g73
g4671
sg74
(lp4700
(dp4701
g77
g78
(I0
I6
I1
tp4702
Rp4703
sg81
g4684
sasstp4704
bsg83
g84
sg15
NsbsF6.0
g7
(g8
g9
Ntp4705
Rp4706
(dp4707
g13
g14
sg16
g7
(g17
g9
Ntp4708
Rp4709
((lp4710
g21
(g22
(dp4711
g24
g25
(g26
(I0
tp4712
g28
tp4713
Rp4714
(I1
(I6
tp4715
g35
I00
(lp4716
g39
ag40
ag41
ag42
ag43
ag44
atp4717
bsg15
Nstp4718
Rp4719
a(lp4720
g25
(g26
(I0
tp4721
g28
tp4722
Rp4723
(I1
(I6
tp4724
g55
I00
S'Eq\xab\xde\xeb\xaf\x00@\xad\xd3\r\x8fV\xd8 @\x02[\xa9\xdd>\xa77@\xc5\xa6\xc0\xd2\x9f\x86\x01@U"\xa0qm\x12\x12@\x14H\xaf^\xd7y\x07@'
p4725
tp4726
ba(lp4727
g21
(g22
(dp4728
g24
g25
(g26
(I0
tp4729
g28
tp4730
Rp4731
(I1
(I6
tp4732
g35
I00
(lp4733
g39
ag40
ag41
ag42
ag43
ag44
atp4734
bsg15
Nstp4735
Rp4736
a(dp4737
g71
(dp4738
g73
g4710
sg74
(lp4739
(dp4740
g77
g78
(I0
I6
I1
tp4741
Rp4742
sg81
g4723
sasstp4743
bsg83
g84
sg15
NsbsF40.0
g7
(g8
g9
Ntp4744
Rp4745
(dp4746
g13
g14
sg16
g7
(g17
g9
Ntp4747
Rp4748
((lp4749
g21
(g22
(dp4750
g24
g25
(g26
(I0
tp4751
g28
tp4752
Rp4753
(I1
(I6
tp4754
g35
I00
(lp4755
g39
ag40
ag41
ag42
ag43
ag44
atp4756
bsg15
Nstp4757
Rp4758
a(lp4759
g25
(g26
(I0
tp4760
g28
tp4761
Rp4762
(I1
(I6
tp4763
g55
I00
S'^\x9e\xa8V\xc8&\xf8?X-j\x16_I\x1f@\xee\xdb4=\xb0\xad0@\xe0\x9b2\xbeJt\xfa?5UgJt]\x04@p\xbd\xa2|\x0ff\xe2?'
p4764
tp4765
ba(lp4766
g21
(g22
(dp4767
g24
g25
(g26
(I0
tp4768
g28
tp4769
Rp4770
(I1
(I6
tp4771
g35
I00
(lp4772
g39
ag40
ag41
ag42
ag43
ag44
atp4773
bsg15
Nstp4774
Rp4775
a(dp4776
g71
(dp4777
g73
g4749
sg74
(lp4778
(dp4779
g77
g78
(I0
I6
I1
tp4780
Rp4781
sg81
g4762
sasstp4782
bsg83
g84
sg15
NsbsF9.0
g7
(g8
g9
Ntp4783
Rp4784
(dp4785
g13
g14
sg16
g7
(g17
g9
Ntp4786
Rp4787
((lp4788
g21
(g22
(dp4789
g24
g25
(g26
(I0
tp4790
g28
tp4791
Rp4792
(I1
(I6
tp4793
g35
I00
(lp4794
g39
ag40
ag41
ag42
ag43
ag44
atp4795
bsg15
Nstp4796
Rp4797
a(lp4798
g25
(g26
(I0
tp4799
g28
tp4800
Rp4801
(I1
(I6
tp4802
g55
I00
S'\xdd\x05\x0e\x97\xf8X\x00@\xeb\xc4>R\xe3\x84!@\xea!#s\xe4\x014@\xceiT9xe\x03@3\x16=O\xf3O\x0b@\xcf\xafV\xbf\xe95\x03@'
p4803
tp4804
ba(lp4805
g21
(g22
(dp4806
g24
g25
(g26
(I0
tp4807
g28
tp4808
Rp4809
(I1
(I6
tp4810
g35
I00
(lp4811
g39
ag40
ag41
ag42
ag43
ag44
atp4812
bsg15
Nstp4813
Rp4814
a(dp4815
g71
(dp4816
g73
g4788
sg74
(lp4817
(dp4818
g77
g78
(I0
I6
I1
tp4819
Rp4820
sg81
g4801
sasstp4821
bsg83
g84
sg15
NsbsF10.0
g7
(g8
g9
Ntp4822
Rp4823
(dp4824
g13
g14
sg16
g7
(g17
g9
Ntp4825
Rp4826
((lp4827
g21
(g22
(dp4828
g24
g25
(g26
(I0
tp4829
g28
tp4830
Rp4831
(I1
(I6
tp4832
g35
I00
(lp4833
g39
ag40
ag41
ag42
ag43
ag44
atp4834
bsg15
Nstp4835
Rp4836
a(lp4837
g25
(g26
(I0
tp4838
g28
tp4839
Rp4840
(I1
(I6
tp4841
g55
I00
S'\xdd\x05\x0e\x97\xf8X\x00@\xeb\xc4>R\xe3\x84!@\xea!#s\xe4\x014@\xceiT9xe\x03@3\x16=O\xf3O\x0b@\xcf\xafV\xbf\xe95\x03@'
p4842
tp4843
ba(lp4844
g21
(g22
(dp4845
g24
g25
(g26
(I0
tp4846
g28
tp4847
Rp4848
(I1
(I6
tp4849
g35
I00
(lp4850
g39
ag40
ag41
ag42
ag43
ag44
atp4851
bsg15
Nstp4852
Rp4853
a(dp4854
g71
(dp4855
g73
g4827
sg74
(lp4856
(dp4857
g77
g78
(I0
I6
I1
tp4858
Rp4859
sg81
g4840
sasstp4860
bsg83
g84
sg15
NsbsF15.0
g7
(g8
g9
Ntp4861
Rp4862
(dp4863
g13
g14
sg16
g7
(g17
g9
Ntp4864
Rp4865
((lp4866
g21
(g22
(dp4867
g24
g25
(g26
(I0
tp4868
g28
tp4869
Rp4870
(I1
(I6
tp4871
g35
I00
(lp4872
g39
ag40
ag41
ag42
ag43
ag44
atp4873
bsg15
Nstp4874
Rp4875
a(lp4876
g25
(g26
(I0
tp4877
g28
tp4878
Rp4879
(I1
(I6
tp4880
g55
I00
S'\xd4J*\xe7\x87\x19\xf9?\x9eb+m>\x1f!@\xe31\xe4\xd6!\xcc2@\x1d\x0fn\x9a\xf3\x15\xfb?\xc7U\x15D\xf7]\x04@\x8b\xb0\x90)&\x87\xf1?'
p4881
tp4882
ba(lp4883
g21
(g22
(dp4884
g24
g25
(g26
(I0
tp4885
g28
tp4886
Rp4887
(I1
(I6
tp4888
g35
I00
(lp4889
g39
ag40
ag41
ag42
ag43
ag44
atp4890
bsg15
Nstp4891
Rp4892
a(dp4893
g71
(dp4894
g73
g4866
sg74
(lp4895
(dp4896
g77
g78
(I0
I6
I1
tp4897
Rp4898
sg81
g4879
sasstp4899
bsg83
g84
sg15
NsbsF80.0
g7
(g8
g9
Ntp4900
Rp4901
(dp4902
g13
g14
sg16
g7
(g17
g9
Ntp4903
Rp4904
((lp4905
g21
(g22
(dp4906
g24
g25
(g26
(I0
tp4907
g28
tp4908
Rp4909
(I1
(I6
tp4910
g35
I00
(lp4911
g39
ag40
ag41
ag42
ag43
ag44
atp4912
bsg15
Nstp4913
Rp4914
a(lp4915
g25
(g26
(I0
tp4916
g28
tp4917
Rp4918
(I1
(I6
tp4919
g55
I00
S'I\xfd9\xa2\x10\xf1\xf5?s,\xeb:E\x9f\x1c@\xfc\x1e}]\xc6B0@\x0b\xa1\xd0\xa0V\xd6\xfa? \x89\xe1\xfca\xee\x02@\x0e\xb4=\xf6\x1b\x1f\xd7?'
p4920
tp4921
ba(lp4922
g21
(g22
(dp4923
g24
g25
(g26
(I0
tp4924
g28
tp4925
Rp4926
(I1
(I6
tp4927
g35
I00
(lp4928
g39
ag40
ag41
ag42
ag43
ag44
atp4929
bsg15
Nstp4930
Rp4931
a(dp4932
g71
(dp4933
g73
g4905
sg74
(lp4934
(dp4935
g77
g78
(I0
I6
I1
tp4936
Rp4937
sg81
g4918
sasstp4938
bsg83
g84
sg15
NsbsF50.0
g7
(g8
g9
Ntp4939
Rp4940
(dp4941
g13
g14
sg16
g7
(g17
g9
Ntp4942
Rp4943
((lp4944
g21
(g22
(dp4945
g24
g25
(g26
(I0
tp4946
g28
tp4947
Rp4948
(I1
(I6
tp4949
g35
I00
(lp4950
g39
ag40
ag41
ag42
ag43
ag44
atp4951
bsg15
Nstp4952
Rp4953
a(lp4954
g25
(g26
(I0
tp4955
g28
tp4956
Rp4957
(I1
(I6
tp4958
g55
I00
S'\x9bA\xcc\\\xb1\xef\xf6?k\x13\x1cA8K\x1a@:\xa9\xbe\x12\x0c\xa40@\x9b\x9a\xf1\xd194\xfa?\xe9P\xf3\x10\xf0+\x03@\xf2\x0b\rv\xdeD\xd8?'
p4959
tp4960
ba(lp4961
g21
(g22
(dp4962
g24
g25
(g26
(I0
tp4963
g28
tp4964
Rp4965
(I1
(I6
tp4966
g35
I00
(lp4967
g39
ag40
ag41
ag42
ag43
ag44
atp4968
bsg15
Nstp4969
Rp4970
a(dp4971
g71
(dp4972
g73
g4944
sg74
(lp4973
(dp4974
g77
g78
(I0
I6
I1
tp4975
Rp4976
sg81
g4957
sasstp4977
bsg83
g84
sg15
NsbsF20.0
g7
(g8
g9
Ntp4978
Rp4979
(dp4980
g13
g14
sg16
g7
(g17
g9
Ntp4981
Rp4982
((lp4983
g21
(g22
(dp4984
g24
g25
(g26
(I0
tp4985
g28
tp4986
Rp4987
(I1
(I6
tp4988
g35
I00
(lp4989
g39
ag40
ag41
ag42
ag43
ag44
atp4990
bsg15
Nstp4991
Rp4992
a(lp4993
g25
(g26
(I0
tp4994
g28
tp4995
Rp4996
(I1
(I6
tp4997
g55
I00
S'\x96\xe1+\xc3\xf2&\xfa?2\xbc\xc5\xd1d\\\x1e@\x8d*\xa0y\xb8\xc42@\xd2\xfa\xe1l\x95j\xfa?RM\xcbq\xa9|\x05@\xd3\xee\xd7\x00m4\xe7?'
p4998
tp4999
ba(lp5000
g21
(g22
(dp5001
g24
g25
(g26
(I0
tp5002
g28
tp5003
Rp5004
(I1
(I6
tp5005
g35
I00
(lp5006
g39
ag40
ag41
ag42
ag43
ag44
atp5007
bsg15
Nstp5008
Rp5009
a(dp5010
g71
(dp5011
g73
g4983
sg74
(lp5012
(dp5013
g77
g78
(I0
I6
I1
tp5014
Rp5015
sg81
g4996
sasstp5016
bsg83
g84
sg15
NsbsF90.0
g7
(g8
g9
Ntp5017
Rp5018
(dp5019
g13
g14
sg16
g7
(g17
g9
Ntp5020
Rp5021
((lp5022
g21
(g22
(dp5023
g24
g25
(g26
(I0
tp5024
g28
tp5025
Rp5026
(I1
(I6
tp5027
g35
I00
(lp5028
g39
ag40
ag41
ag42
ag43
ag44
atp5029
bsg15
Nstp5030
Rp5031
a(lp5032
g25
(g26
(I0
tp5033
g28
tp5034
Rp5035
(I1
(I6
tp5036
g55
I00
S"\xeaC\xefo?\x88\xf5?\x96\xa0\xedd\xe06\x1c@\xc2\xf8\t\x1b^74@\xbf\xf3\xa5g\xc8\xed\xf7?n\xd8\x8f\xd4\xfd\xff\x02@\xd6\x91'R\x85s\xdd?"
p5037
tp5038
ba(lp5039
g21
(g22
(dp5040
g24
g25
(g26
(I0
tp5041
g28
tp5042
Rp5043
(I1
(I6
tp5044
g35
I00
(lp5045
g39
ag40
ag41
ag42
ag43
ag44
atp5046
bsg15
Nstp5047
Rp5048
a(dp5049
g71
(dp5050
g73
g5022
sg74
(lp5051
(dp5052
g77
g78
(I0
I6
I1
tp5053
Rp5054
sg81
g5035
sasstp5055
bsg83
g84
sg15
NsbsF60.0
g7
(g8
g9
Ntp5056
Rp5057
(dp5058
g13
g14
sg16
g7
(g17
g9
Ntp5059
Rp5060
((lp5061
g21
(g22
(dp5062
g24
g25
(g26
(I0
tp5063
g28
tp5064
Rp5065
(I1
(I6
tp5066
g35
I00
(lp5067
g39
ag40
ag41
ag42
ag43
ag44
atp5068
bsg15
Nstp5069
Rp5070
a(lp5071
g25
(g26
(I0
tp5072
g28
tp5073
Rp5074
(I1
(I6
tp5075
g55
I00
S"\xbb.\xe7\xae\xeb\x1a\xf6?\xf8\x88\xa8~\xba'\x1c@s\xaej\xa4\x06\x890@\xa35\x8c\xa8Mp\xf9?\xceD40\x9c\xb5\x02@\xad\x10Z~O\xec\xd8?"
p5076
tp5077
ba(lp5078
g21
(g22
(dp5079
g24
g25
(g26
(I0
tp5080
g28
tp5081
Rp5082
(I1
(I6
tp5083
g35
I00
(lp5084
g39
ag40
ag41
ag42
ag43
ag44
atp5085
bsg15
Nstp5086
Rp5087
a(dp5088
g71
(dp5089
g73
g5061
sg74
(lp5090
(dp5091
g77
g78
(I0
I6
I1
tp5092
Rp5093
sg81
g5074
sasstp5094
bsg83
g84
sg15
NsbsF30.0
g7
(g8
g9
Ntp5095
Rp5096
(dp5097
g13
g14
sg16
g7
(g17
g9
Ntp5098
Rp5099
((lp5100
g21
(g22
(dp5101
g24
g25
(g26
(I0
tp5102
g28
tp5103
Rp5104
(I1
(I6
tp5105
g35
I00
(lp5106
g39
ag40
ag41
ag42
ag43
ag44
atp5107
bsg15
Nstp5108
Rp5109
a(lp5110
g25
(g26
(I0
tp5111
g28
tp5112
Rp5113
(I1
(I6
tp5114
g55
I00
S'{\xd1\x08\x9a?\x18\xf8?\xf8}\x07\x96\x02I\x1c@\xae\t\xc2\xf8Js1@\x08\xc8\x9a\xfc\xe8\x81\xfb?b\x92\xaa\xae\x92Z\x04@\x19\x0cC\x16J\t\xe4?'
p5115
tp5116
ba(lp5117
g21
(g22
(dp5118
g24
g25
(g26
(I0
tp5119
g28
tp5120
Rp5121
(I1
(I6
tp5122
g35
I00
(lp5123
g39
ag40
ag41
ag42
ag43
ag44
atp5124
bsg15
Nstp5125
Rp5126
a(dp5127
g71
(dp5128
g73
g5100
sg74
(lp5129
(dp5130
g77
g78
(I0
I6
I1
tp5131
Rp5132
sg81
g5113
sasstp5133
bsg83
g84
sg15
Nsbsssg1062
(dp5134
g5
(dp5135
F100.0
g7
(g8
g9
Ntp5136
Rp5137
(dp5138
g13
g14
sg16
g7
(g17
g9
Ntp5139
Rp5140
((lp5141
g21
(g22
(dp5142
g24
g25
(g26
(I0
tp5143
g28
tp5144
Rp5145
(I1
(I6
tp5146
g35
I00
(lp5147
g39
ag40
ag41
ag42
ag43
ag44
atp5148
bsg15
Nstp5149
Rp5150
a(lp5151
g25
(g26
(I0
tp5152
g28
tp5153
Rp5154
(I1
(I6
tp5155
g55
I00
S'o\\\x04\xf6j+\xf0?(\xb12UGD"@\xdb\x8c\x81\x1b\x1d\xeb-@J\x90\x7fkl\xb4\xfe?w\xa2i\xbar\xf3\x02@R\x8e\x81\xd5\x86\xf3\xd7?'
p5156
tp5157
ba(lp5158
g21
(g22
(dp5159
g24
g25
(g26
(I0
tp5160
g28
tp5161
Rp5162
(I1
(I6
tp5163
g35
I00
(lp5164
g39
ag40
ag41
ag42
ag43
ag44
atp5165
bsg15
Nstp5166
Rp5167
a(dp5168
g71
(dp5169
g73
g5141
sg74
(lp5170
(dp5171
g77
g78
(I0
I6
I1
tp5172
Rp5173
sg81
g5154
sasstp5174
bsg83
g84
sg15
NsbsF70.0
g7
(g8
g9
Ntp5175
Rp5176
(dp5177
g13
g14
sg16
g7
(g17
g9
Ntp5178
Rp5179
((lp5180
g21
(g22
(dp5181
g24
g25
(g26
(I0
tp5182
g28
tp5183
Rp5184
(I1
(I6
tp5185
g35
I00
(lp5186
g39
ag40
ag41
ag42
ag43
ag44
atp5187
bsg15
Nstp5188
Rp5189
a(lp5190
g25
(g26
(I0
tp5191
g28
tp5192
Rp5193
(I1
(I6
tp5194
g55
I00
S'\\\xfe\xdc\xec\x1f>\xf2?\xb3h\x9f\xdde\xda#@\x98Ut2\x9f\n1@M\xde\xa0\x8cO\xa0\x00@|@\xa5a\xa6\x80\x02@\x812\xe4\xe8\xc3v\xd5?'
p5195
tp5196
ba(lp5197
g21
(g22
(dp5198
g24
g25
(g26
(I0
tp5199
g28
tp5200
Rp5201
(I1
(I6
tp5202
g35
I00
(lp5203
g39
ag40
ag41
ag42
ag43
ag44
atp5204
bsg15
Nstp5205
Rp5206
a(dp5207
g71
(dp5208
g73
g5180
sg74
(lp5209
(dp5210
g77
g78
(I0
I6
I1
tp5211
Rp5212
sg81
g5193
sasstp5213
bsg83
g84
sg15
NsbsF6.0
g7
(g8
g9
Ntp5214
Rp5215
(dp5216
g13
g14
sg16
g7
(g17
g9
Ntp5217
Rp5218
((lp5219
g21
(g22
(dp5220
g24
g25
(g26
(I0
tp5221
g28
tp5222
Rp5223
(I1
(I6
tp5224
g35
I00
(lp5225
g39
ag40
ag41
ag42
ag43
ag44
atp5226
bsg15
Nstp5227
Rp5228
a(lp5229
g25
(g26
(I0
tp5230
g28
tp5231
Rp5232
(I1
(I6
tp5233
g55
I00
S'(\xfb@"\xe4\x06\xf0?\x1e\xbbLI\xfd\xc7$@jfg\xd6d\xb39@\xb24DSE\xe5\x01@\x16\x99\x8c\xb5\xe7s\x03@\xe1\x1e_\xdb[\xe2\xd8?'
p5234
tp5235
ba(lp5236
g21
(g22
(dp5237
g24
g25
(g26
(I0
tp5238
g28
tp5239
Rp5240
(I1
(I6
tp5241
g35
I00
(lp5242
g39
ag40
ag41
ag42
ag43
ag44
atp5243
bsg15
Nstp5244
Rp5245
a(dp5246
g71
(dp5247
g73
g5219
sg74
(lp5248
(dp5249
g77
g78
(I0
I6
I1
tp5250
Rp5251
sg81
g5232
sasstp5252
bsg83
g84
sg15
NsbsF40.0
g7
(g8
g9
Ntp5253
Rp5254
(dp5255
g13
g14
sg16
g7
(g17
g9
Ntp5256
Rp5257
((lp5258
g21
(g22
(dp5259
g24
g25
(g26
(I0
tp5260
g28
tp5261
Rp5262
(I1
(I6
tp5263
g35
I00
(lp5264
g39
ag40
ag41
ag42
ag43
ag44
atp5265
bsg15
Nstp5266
Rp5267
a(lp5268
g25
(g26
(I0
tp5269
g28
tp5270
Rp5271
(I1
(I6
tp5272
g55
I00
S'\xba24s\xb1#\xf3?\xee\x14\xc7U\x11\x91#@H{\xf8/?j/@\xaffQ\xa0C\xed\x00@\x9a\xcb\x80=n@\x02@\xa2O5\xd6\xc0\xcc\xd4?'
p5273
tp5274
ba(lp5275
g21
(g22
(dp5276
g24
g25
(g26
(I0
tp5277
g28
tp5278
Rp5279
(I1
(I6
tp5280
g35
I00
(lp5281
g39
ag40
ag41
ag42
ag43
ag44
atp5282
bsg15
Nstp5283
Rp5284
a(dp5285
g71
(dp5286
g73
g5258
sg74
(lp5287
(dp5288
g77
g78
(I0
I6
I1
tp5289
Rp5290
sg81
g5271
sasstp5291
bsg83
g84
sg15
NsbsF9.0
g7
(g8
g9
Ntp5292
Rp5293
(dp5294
g13
g14
sg16
g7
(g17
g9
Ntp5295
Rp5296
((lp5297
g21
(g22
(dp5298
g24
g25
(g26
(I0
tp5299
g28
tp5300
Rp5301
(I1
(I6
tp5302
g35
I00
(lp5303
g39
ag40
ag41
ag42
ag43
ag44
atp5304
bsg15
Nstp5305
Rp5306
a(lp5307
g25
(g26
(I0
tp5308
g28
tp5309
Rp5310
(I1
(I6
tp5311
g55
I00
S'H\x89\x9d\xa8DI\xf0?E\xbd\xe0\xd8\xab\xe2"@F\x0e\x0cV\xab\xc25@\x01\x80\xca\xe7\xc7\t\x01@\xc4#\xa3b\x1f\x16\x03@\xba4`\x17\xb4\x92\xd5?'
p5312
tp5313
ba(lp5314
g21
(g22
(dp5315
g24
g25
(g26
(I0
tp5316
g28
tp5317
Rp5318
(I1
(I6
tp5319
g35
I00
(lp5320
g39
ag40
ag41
ag42
ag43
ag44
atp5321
bsg15
Nstp5322
Rp5323
a(dp5324
g71
(dp5325
g73
g5297
sg74
(lp5326
(dp5327
g77
g78
(I0
I6
I1
tp5328
Rp5329
sg81
g5310
sasstp5330
bsg83
g84
sg15
NsbsF10.0
g7
(g8
g9
Ntp5331
Rp5332
(dp5333
g13
g14
sg16
g7
(g17
g9
Ntp5334
Rp5335
((lp5336
g21
(g22
(dp5337
g24
g25
(g26
(I0
tp5338
g28
tp5339
Rp5340
(I1
(I6
tp5341
g35
I00
(lp5342
g39
ag40
ag41
ag42
ag43
ag44
atp5343
bsg15
Nstp5344
Rp5345
a(lp5346
g25
(g26
(I0
tp5347
g28
tp5348
Rp5349
(I1
(I6
tp5350
g55
I00
S'B@\x9c\xa8DI\xf0?\xdb\x8d\xe2\xd8\xab\xe2"@{\xef\x0bV\xab\xc25@\x8e\x08\xcb\xe7\xc7\t\x01@=O\xa3b\x1f\x16\x03@\x835`\x17\xb4\x92\xd5?'
p5351
tp5352
ba(lp5353
g21
(g22
(dp5354
g24
g25
(g26
(I0
tp5355
g28
tp5356
Rp5357
(I1
(I6
tp5358
g35
I00
(lp5359
g39
ag40
ag41
ag42
ag43
ag44
atp5360
bsg15
Nstp5361
Rp5362
a(dp5363
g71
(dp5364
g73
g5336
sg74
(lp5365
(dp5366
g77
g78
(I0
I6
I1
tp5367
Rp5368
sg81
g5349
sasstp5369
bsg83
g84
sg15
NsbsF15.0
g7
(g8
g9
Ntp5370
Rp5371
(dp5372
g13
g14
sg16
g7
(g17
g9
Ntp5373
Rp5374
((lp5375
g21
(g22
(dp5376
g24
g25
(g26
(I0
tp5377
g28
tp5378
Rp5379
(I1
(I6
tp5380
g35
I00
(lp5381
g39
ag40
ag41
ag42
ag43
ag44
atp5382
bsg15
Nstp5383
Rp5384
a(lp5385
g25
(g26
(I0
tp5386
g28
tp5387
Rp5388
(I1
(I6
tp5389
g55
I00
S'\x04C\x8b+c\xbd\xf1?G\x1e\xb5\xcb\x0f+#@\x9e\xb0 \xc8v$2@\xc6c\xa4RB\xe7\xff?1\xd3IG\xd9\xe8\x03@\xa3\xf6{;\xce\x89\xd8?'
p5390
tp5391
ba(lp5392
g21
(g22
(dp5393
g24
g25
(g26
(I0
tp5394
g28
tp5395
Rp5396
(I1
(I6
tp5397
g35
I00
(lp5398
g39
ag40
ag41
ag42
ag43
ag44
atp5399
bsg15
Nstp5400
Rp5401
a(dp5402
g71
(dp5403
g73
g5375
sg74
(lp5404
(dp5405
g77
g78
(I0
I6
I1
tp5406
Rp5407
sg81
g5388
sasstp5408
bsg83
g84
sg15
NsbsF80.0
g7
(g8
g9
Ntp5409
Rp5410
(dp5411
g13
g14
sg16
g7
(g17
g9
Ntp5412
Rp5413
((lp5414
g21
(g22
(dp5415
g24
g25
(g26
(I0
tp5416
g28
tp5417
Rp5418
(I1
(I6
tp5419
g35
I00
(lp5420
g39
ag40
ag41
ag42
ag43
ag44
atp5421
bsg15
Nstp5422
Rp5423
a(lp5424
g25
(g26
(I0
tp5425
g28
tp5426
Rp5427
(I1
(I6
tp5428
g55
I00
S'df\x8a\xe2\xa8/\xf2?\x06\x80\xce11d!@R-X\xb3\xb5\xfa.@\x9b-G\x94\xc7\x1d\xfe?\xdfu(\x8b\xbb\xe8\x02@c\xb4\x16\xed\x97\xf3\xd2?'
p5429
tp5430
ba(lp5431
g21
(g22
(dp5432
g24
g25
(g26
(I0
tp5433
g28
tp5434
Rp5435
(I1
(I6
tp5436
g35
I00
(lp5437
g39
ag40
ag41
ag42
ag43
ag44
atp5438
bsg15
Nstp5439
Rp5440
a(dp5441
g71
(dp5442
g73
g5414
sg74
(lp5443
(dp5444
g77
g78
(I0
I6
I1
tp5445
Rp5446
sg81
g5427
sasstp5447
bsg83
g84
sg15
NsbsF50.0
g7
(g8
g9
Ntp5448
Rp5449
(dp5450
g13
g14
sg16
g7
(g17
g9
Ntp5451
Rp5452
((lp5453
g21
(g22
(dp5454
g24
g25
(g26
(I0
tp5455
g28
tp5456
Rp5457
(I1
(I6
tp5458
g35
I00
(lp5459
g39
ag40
ag41
ag42
ag43
ag44
atp5460
bsg15
Nstp5461
Rp5462
a(lp5463
g25
(g26
(I0
tp5464
g28
tp5465
Rp5466
(I1
(I6
tp5467
g55
I00
S'\xe3t\xa7T\x81\x0c\xf2?\x03\x97\xe6\x1b-\x9a"@u\x96`\x0f\x96\xbb.@\xda\x87\xad\xa2\xb60\xff?\x82\xa4\xfep\x00\x85\x03@l\x03\xe1\xab\xff\xf6\xd5?'
p5468
tp5469
ba(lp5470
g21
(g22
(dp5471
g24
g25
(g26
(I0
tp5472
g28
tp5473
Rp5474
(I1
(I6
tp5475
g35
I00
(lp5476
g39
ag40
ag41
ag42
ag43
ag44
atp5477
bsg15
Nstp5478
Rp5479
a(dp5480
g71
(dp5481
g73
g5453
sg74
(lp5482
(dp5483
g77
g78
(I0
I6
I1
tp5484
Rp5485
sg81
g5466
sasstp5486
bsg83
g84
sg15
NsbsF20.0
g7
(g8
g9
Ntp5487
Rp5488
(dp5489
g13
g14
sg16
g7
(g17
g9
Ntp5490
Rp5491
((lp5492
g21
(g22
(dp5493
g24
g25
(g26
(I0
tp5494
g28
tp5495
Rp5496
(I1
(I6
tp5497
g35
I00
(lp5498
g39
ag40
ag41
ag42
ag43
ag44
atp5499
bsg15
Nstp5500
Rp5501
a(lp5502
g25
(g26
(I0
tp5503
g28
tp5504
Rp5505
(I1
(I6
tp5506
g55
I00
S'\xf3\xc41/H\xaf\xf0?\xf2\x89\xc1\xd2\xc4A"@\x0e\x18\xb0Hg\x9e0@\x1d\xfdQ\xe1X\x1b\xff?\xb7\x13I\x85To\x03@\xfbg\xaeO=\xb1\xd6?'
p5507
tp5508
ba(lp5509
g21
(g22
(dp5510
g24
g25
(g26
(I0
tp5511
g28
tp5512
Rp5513
(I1
(I6
tp5514
g35
I00
(lp5515
g39
ag40
ag41
ag42
ag43
ag44
atp5516
bsg15
Nstp5517
Rp5518
a(dp5519
g71
(dp5520
g73
g5492
sg74
(lp5521
(dp5522
g77
g78
(I0
I6
I1
tp5523
Rp5524
sg81
g5505
sasstp5525
bsg83
g84
sg15
NsbsF90.0
g7
(g8
g9
Ntp5526
Rp5527
(dp5528
g13
g14
sg16
g7
(g17
g9
Ntp5529
Rp5530
((lp5531
g21
(g22
(dp5532
g24
g25
(g26
(I0
tp5533
g28
tp5534
Rp5535
(I1
(I6
tp5536
g35
I00
(lp5537
g39
ag40
ag41
ag42
ag43
ag44
atp5538
bsg15
Nstp5539
Rp5540
a(lp5541
g25
(g26
(I0
tp5542
g28
tp5543
Rp5544
(I1
(I6
tp5545
g55
I00
S'\x15>\xdfR\xff@\xf0?6\x9d3D\x1b\x92!@\x83\xa3\x1f\xb8\xb4\xbf-@\xca\x99\xe6j\x89$\xfe?\xaa\xaaA\x99\xbd`\x03@\xae\xb2"\x00&\xd2\xd4?'
p5546
tp5547
ba(lp5548
g21
(g22
(dp5549
g24
g25
(g26
(I0
tp5550
g28
tp5551
Rp5552
(I1
(I6
tp5553
g35
I00
(lp5554
g39
ag40
ag41
ag42
ag43
ag44
atp5555
bsg15
Nstp5556
Rp5557
a(dp5558
g71
(dp5559
g73
g5531
sg74
(lp5560
(dp5561
g77
g78
(I0
I6
I1
tp5562
Rp5563
sg81
g5544
sasstp5564
bsg83
g84
sg15
NsbsF60.0
g7
(g8
g9
Ntp5565
Rp5566
(dp5567
g13
g14
sg16
g7
(g17
g9
Ntp5568
Rp5569
((lp5570
g21
(g22
(dp5571
g24
g25
(g26
(I0
tp5572
g28
tp5573
Rp5574
(I1
(I6
tp5575
g35
I00
(lp5576
g39
ag40
ag41
ag42
ag43
ag44
atp5577
bsg15
Nstp5578
Rp5579
a(lp5580
g25
(g26
(I0
tp5581
g28
tp5582
Rp5583
(I1
(I6
tp5584
g55
I00
S'\x82\xd7\xa1n\xf5%\xf2?^X\x99M\xcdH"@s\xc7\rl\xf8\x06/@v9\r\x8d\xf5\x80\xff?\xa0\xdf\xac\xe5G\t\x03@\n\xe6%\xf4;\xf9\xd4?'
p5585
tp5586
ba(lp5587
g21
(g22
(dp5588
g24
g25
(g26
(I0
tp5589
g28
tp5590
Rp5591
(I1
(I6
tp5592
g35
I00
(lp5593
g39
ag40
ag41
ag42
ag43
ag44
atp5594
bsg15
Nstp5595
Rp5596
a(dp5597
g71
(dp5598
g73
g5570
sg74
(lp5599
(dp5600
g77
g78
(I0
I6
I1
tp5601
Rp5602
sg81
g5583
sasstp5603
bsg83
g84
sg15
NsbsF30.0
g7
(g8
g9
Ntp5604
Rp5605
(dp5606
g13
g14
sg16
g7
(g17
g9
Ntp5607
Rp5608
((lp5609
g21
(g22
(dp5610
g24
g25
(g26
(I0
tp5611
g28
tp5612
Rp5613
(I1
(I6
tp5614
g35
I00
(lp5615
g39
ag40
ag41
ag42
ag43
ag44
atp5616
bsg15
Nstp5617
Rp5618
a(lp5619
g25
(g26
(I0
tp5620
g28
tp5621
Rp5622
(I1
(I6
tp5623
g55
I00
S'\x1c\xc6X.<\xfc\xf1?9\xa0\xe8\xe5\x9aN"@\xad#\xdd\x90\xdd\r0@\x1bX\xdd^\xef\\\xff?\xfa\x0cL\xa9\x9c\xfa\x02@8,\xfc\xdd/\xd9\xd3?'
p5624
tp5625
ba(lp5626
g21
(g22
(dp5627
g24
g25
(g26
(I0
tp5628
g28
tp5629
Rp5630
(I1
(I6
tp5631
g35
I00
(lp5632
g39
ag40
ag41
ag42
ag43
ag44
atp5633
bsg15
Nstp5634
Rp5635
a(dp5636
g71
(dp5637
g73
g5609
sg74
(lp5638
(dp5639
g77
g78
(I0
I6
I1
tp5640
Rp5641
sg81
g5622
sasstp5642
bsg83
g84
sg15
Nsbssg553
(dp5643
F100.0
g7
(g8
g9
Ntp5644
Rp5645
(dp5646
g13
g14
sg16
g7
(g17
g9
Ntp5647
Rp5648
((lp5649
g21
(g22
(dp5650
g24
g25
(g26
(I0
tp5651
g28
tp5652
Rp5653
(I1
(I6
tp5654
g35
I00
(lp5655
g39
ag40
ag41
ag42
ag43
ag44
atp5656
bsg15
Nstp5657
Rp5658
a(lp5659
g25
(g26
(I0
tp5660
g28
tp5661
Rp5662
(I1
(I6
tp5663
g55
I00
S'\x006M\xc2l\x10\xf5?\xea\xc8\xd1\xc8\x9f\x14\x1b@\xa5\x8b\xd8P\x9c\x1b0@\xd3\x0e\xdc\x86\x08\xee\xf8?G-~_6\xe4\x02@\xeb<\xaf\xa5\xb4s\xd7?'
p5664
tp5665
ba(lp5666
g21
(g22
(dp5667
g24
g25
(g26
(I0
tp5668
g28
tp5669
Rp5670
(I1
(I6
tp5671
g35
I00
(lp5672
g39
ag40
ag41
ag42
ag43
ag44
atp5673
bsg15
Nstp5674
Rp5675
a(dp5676
g71
(dp5677
g73
g5649
sg74
(lp5678
(dp5679
g77
g78
(I0
I6
I1
tp5680
Rp5681
sg81
g5662
sasstp5682
bsg83
g84
sg15
NsbsF70.0
g7
(g8
g9
Ntp5683
Rp5684
(dp5685
g13
g14
sg16
g7
(g17
g9
Ntp5686
Rp5687
((lp5688
g21
(g22
(dp5689
g24
g25
(g26
(I0
tp5690
g28
tp5691
Rp5692
(I1
(I6
tp5693
g35
I00
(lp5694
g39
ag40
ag41
ag42
ag43
ag44
atp5695
bsg15
Nstp5696
Rp5697
a(lp5698
g25
(g26
(I0
tp5699
g28
tp5700
Rp5701
(I1
(I6
tp5702
g55
I00
S'C\x1d\x0b\xfa\xbe\x9e\xf6?]\n\x99\xbd\xf6\xfc\x1c@~\x93\xd3\xaf\xea\x180@k|\x08\x88?\xcd\xfa?\xf6JY\xcb\x1f3\x02@\x86\xee\x983\x98N\xda?'
p5703
tp5704
ba(lp5705
g21
(g22
(dp5706
g24
g25
(g26
(I0
tp5707
g28
tp5708
Rp5709
(I1
(I6
tp5710
g35
I00
(lp5711
g39
ag40
ag41
ag42
ag43
ag44
atp5712
bsg15
Nstp5713
Rp5714
a(dp5715
g71
(dp5716
g73
g5688
sg74
(lp5717
(dp5718
g77
g78
(I0
I6
I1
tp5719
Rp5720
sg81
g5701
sasstp5721
bsg83
g84
sg15
NsbsF6.0
g7
(g8
g9
Ntp5722
Rp5723
(dp5724
g13
g14
sg16
g7
(g17
g9
Ntp5725
Rp5726
((lp5727
g21
(g22
(dp5728
g24
g25
(g26
(I0
tp5729
g28
tp5730
Rp5731
(I1
(I6
tp5732
g35
I00
(lp5733
g39
ag40
ag41
ag42
ag43
ag44
atp5734
bsg15
Nstp5735
Rp5736
a(lp5737
g25
(g26
(I0
tp5738
g28
tp5739
Rp5740
(I1
(I6
tp5741
g55
I00
S'Eq\xab\xde\xeb\xaf\x00@\xad\xd3\r\x8fV\xd8 @\x02[\xa9\xdd>\xa77@\xc5\xa6\xc0\xd2\x9f\x86\x01@U"\xa0qm\x12\x12@\x14H\xaf^\xd7y\x07@'
p5742
tp5743
ba(lp5744
g21
(g22
(dp5745
g24
g25
(g26
(I0
tp5746
g28
tp5747
Rp5748
(I1
(I6
tp5749
g35
I00
(lp5750
g39
ag40
ag41
ag42
ag43
ag44
atp5751
bsg15
Nstp5752
Rp5753
a(dp5754
g71
(dp5755
g73
g5727
sg74
(lp5756
(dp5757
g77
g78
(I0
I6
I1
tp5758
Rp5759
sg81
g5740
sasstp5760
bsg83
g84
sg15
NsbsF40.0
g7
(g8
g9
Ntp5761
Rp5762
(dp5763
g13
g14
sg16
g7
(g17
g9
Ntp5764
Rp5765
((lp5766
g21
(g22
(dp5767
g24
g25
(g26
(I0
tp5768
g28
tp5769
Rp5770
(I1
(I6
tp5771
g35
I00
(lp5772
g39
ag40
ag41
ag42
ag43
ag44
atp5773
bsg15
Nstp5774
Rp5775
a(lp5776
g25
(g26
(I0
tp5777
g28
tp5778
Rp5779
(I1
(I6
tp5780
g55
I00
S'2\x9e\xffw+\xbd\xf7?\xaaC\x8a\xdc\xf1\xed\x1b@\x10}\xe6\xb7\x84H0@Z\xc1\xb6q\xac\xac\xfb?b\xd7\x05\xaeO{\x03@\xe0&\xf3\x97\xee\xd1\xda?'
p5781
tp5782
ba(lp5783
g21
(g22
(dp5784
g24
g25
(g26
(I0
tp5785
g28
tp5786
Rp5787
(I1
(I6
tp5788
g35
I00
(lp5789
g39
ag40
ag41
ag42
ag43
ag44
atp5790
bsg15
Nstp5791
Rp5792
a(dp5793
g71
(dp5794
g73
g5766
sg74
(lp5795
(dp5796
g77
g78
(I0
I6
I1
tp5797
Rp5798
sg81
g5779
sasstp5799
bsg83
g84
sg15
NsbsF9.0
g7
(g8
g9
Ntp5800
Rp5801
(dp5802
g13
g14
sg16
g7
(g17
g9
Ntp5803
Rp5804
((lp5805
g21
(g22
(dp5806
g24
g25
(g26
(I0
tp5807
g28
tp5808
Rp5809
(I1
(I6
tp5810
g35
I00
(lp5811
g39
ag40
ag41
ag42
ag43
ag44
atp5812
bsg15
Nstp5813
Rp5814
a(lp5815
g25
(g26
(I0
tp5816
g28
tp5817
Rp5818
(I1
(I6
tp5819
g55
I00
S'\xdd\x05\x0e\x97\xf8X\x00@\xeb\xc4>R\xe3\x84!@\xea!#s\xe4\x014@\xceiT9xe\x03@3\x16=O\xf3O\x0b@\xcf\xafV\xbf\xe95\x03@'
p5820
tp5821
ba(lp5822
g21
(g22
(dp5823
g24
g25
(g26
(I0
tp5824
g28
tp5825
Rp5826
(I1
(I6
tp5827
g35
I00
(lp5828
g39
ag40
ag41
ag42
ag43
ag44
atp5829
bsg15
Nstp5830
Rp5831
a(dp5832
g71
(dp5833
g73
g5805
sg74
(lp5834
(dp5835
g77
g78
(I0
I6
I1
tp5836
Rp5837
sg81
g5818
sasstp5838
bsg83
g84
sg15
NsbsF10.0
g7
(g8
g9
Ntp5839
Rp5840
(dp5841
g13
g14
sg16
g7
(g17
g9
Ntp5842
Rp5843
((lp5844
g21
(g22
(dp5845
g24
g25
(g26
(I0
tp5846
g28
tp5847
Rp5848
(I1
(I6
tp5849
g35
I00
(lp5850
g39
ag40
ag41
ag42
ag43
ag44
atp5851
bsg15
Nstp5852
Rp5853
a(lp5854
g25
(g26
(I0
tp5855
g28
tp5856
Rp5857
(I1
(I6
tp5858
g55
I00
S'\xdd\x05\x0e\x97\xf8X\x00@\xeb\xc4>R\xe3\x84!@\xea!#s\xe4\x014@\xceiT9xe\x03@3\x16=O\xf3O\x0b@\xcf\xafV\xbf\xe95\x03@'
p5859
tp5860
ba(lp5861
g21
(g22
(dp5862
g24
g25
(g26
(I0
tp5863
g28
tp5864
Rp5865
(I1
(I6
tp5866
g35
I00
(lp5867
g39
ag40
ag41
ag42
ag43
ag44
atp5868
bsg15
Nstp5869
Rp5870
a(dp5871
g71
(dp5872
g73
g5844
sg74
(lp5873
(dp5874
g77
g78
(I0
I6
I1
tp5875
Rp5876
sg81
g5857
sasstp5877
bsg83
g84
sg15
NsbsF15.0
g7
(g8
g9
Ntp5878
Rp5879
(dp5880
g13
g14
sg16
g7
(g17
g9
Ntp5881
Rp5882
((lp5883
g21
(g22
(dp5884
g24
g25
(g26
(I0
tp5885
g28
tp5886
Rp5887
(I1
(I6
tp5888
g35
I00
(lp5889
g39
ag40
ag41
ag42
ag43
ag44
atp5890
bsg15
Nstp5891
Rp5892
a(lp5893
g25
(g26
(I0
tp5894
g28
tp5895
Rp5896
(I1
(I6
tp5897
g55
I00
S'\xd4J*\xe7\x87\x19\xf9?\x9eb+m>\x1f!@\xe31\xe4\xd6!\xcc2@\x1d\x0fn\x9a\xf3\x15\xfb?\xc7U\x15D\xf7]\x04@\x8b\xb0\x90)&\x87\xf1?'
p5898
tp5899
ba(lp5900
g21
(g22
(dp5901
g24
g25
(g26
(I0
tp5902
g28
tp5903
Rp5904
(I1
(I6
tp5905
g35
I00
(lp5906
g39
ag40
ag41
ag42
ag43
ag44
atp5907
bsg15
Nstp5908
Rp5909
a(dp5910
g71
(dp5911
g73
g5883
sg74
(lp5912
(dp5913
g77
g78
(I0
I6
I1
tp5914
Rp5915
sg81
g5896
sasstp5916
bsg83
g84
sg15
NsbsF80.0
g7
(g8
g9
Ntp5917
Rp5918
(dp5919
g13
g14
sg16
g7
(g17
g9
Ntp5920
Rp5921
((lp5922
g21
(g22
(dp5923
g24
g25
(g26
(I0
tp5924
g28
tp5925
Rp5926
(I1
(I6
tp5927
g35
I00
(lp5928
g39
ag40
ag41
ag42
ag43
ag44
atp5929
bsg15
Nstp5930
Rp5931
a(lp5932
g25
(g26
(I0
tp5933
g28
tp5934
Rp5935
(I1
(I6
tp5936
g55
I00
S'";vS2c\xf5?\xeb\xc6\xb0\xb8\xf2\xd3\x1c@\xcd\xddNwf\xa0/@(\x7f\xbd\x89\x17D\xfa?1A\x8a\xc4\xe1\xe0\x02@\xbe\xbb\xday#\x7f\xd6?'
p5937
tp5938
ba(lp5939
g21
(g22
(dp5940
g24
g25
(g26
(I0
tp5941
g28
tp5942
Rp5943
(I1
(I6
tp5944
g35
I00
(lp5945
g39
ag40
ag41
ag42
ag43
ag44
atp5946
bsg15
Nstp5947
Rp5948
a(dp5949
g71
(dp5950
g73
g5922
sg74
(lp5951
(dp5952
g77
g78
(I0
I6
I1
tp5953
Rp5954
sg81
g5935
sasstp5955
bsg83
g84
sg15
NsbsF50.0
g7
(g8
g9
Ntp5956
Rp5957
(dp5958
g13
g14
sg16
g7
(g17
g9
Ntp5959
Rp5960
((lp5961
g21
(g22
(dp5962
g24
g25
(g26
(I0
tp5963
g28
tp5964
Rp5965
(I1
(I6
tp5966
g35
I00
(lp5967
g39
ag40
ag41
ag42
ag43
ag44
atp5968
bsg15
Nstp5969
Rp5970
a(lp5971
g25
(g26
(I0
tp5972
g28
tp5973
Rp5974
(I1
(I6
tp5975
g55
I00
S'\xba\xcb@mZ\x0f\xf6?b\x9d\x81p\xa8\x16\x1c@\xb4m\x08\xb0\x91Q0@p,-n\x92\x86\xfa?\xda\xc7x\xd5\x1a8\x03@{\x8b2\xd5pm\xdb?'
p5976
tp5977
ba(lp5978
g21
(g22
(dp5979
g24
g25
(g26
(I0
tp5980
g28
tp5981
Rp5982
(I1
(I6
tp5983
g35
I00
(lp5984
g39
ag40
ag41
ag42
ag43
ag44
atp5985
bsg15
Nstp5986
Rp5987
a(dp5988
g71
(dp5989
g73
g5961
sg74
(lp5990
(dp5991
g77
g78
(I0
I6
I1
tp5992
Rp5993
sg81
g5974
sasstp5994
bsg83
g84
sg15
NsbsF20.0
g7
(g8
g9
Ntp5995
Rp5996
(dp5997
g13
g14
sg16
g7
(g17
g9
Ntp5998
Rp5999
((lp6000
g21
(g22
(dp6001
g24
g25
(g26
(I0
tp6002
g28
tp6003
Rp6004
(I1
(I6
tp6005
g35
I00
(lp6006
g39
ag40
ag41
ag42
ag43
ag44
atp6007
bsg15
Nstp6008
Rp6009
a(lp6010
g25
(g26
(I0
tp6011
g28
tp6012
Rp6013
(I1
(I6
tp6014
g55
I00
S'\xce\x83\x05\xdc>\xad\xf8?F\xd1;!\xf6=\x1d@\x86\xda\xa1\x97\xfd\xd81@&\xf1\xd1m\xad\x9e\xfa?\x88\xa2\n\xfe~d\x04@Q\xcf%\xd3X\xfd\xe1?'
p6015
tp6016
ba(lp6017
g21
(g22
(dp6018
g24
g25
(g26
(I0
tp6019
g28
tp6020
Rp6021
(I1
(I6
tp6022
g35
I00
(lp6023
g39
ag40
ag41
ag42
ag43
ag44
atp6024
bsg15
Nstp6025
Rp6026
a(dp6027
g71
(dp6028
g73
g6000
sg74
(lp6029
(dp6030
g77
g78
(I0
I6
I1
tp6031
Rp6032
sg81
g6013
sasstp6033
bsg83
g84
sg15
NsbsF90.0
g7
(g8
g9
Ntp6034
Rp6035
(dp6036
g13
g14
sg16
g7
(g17
g9
Ntp6037
Rp6038
((lp6039
g21
(g22
(dp6040
g24
g25
(g26
(I0
tp6041
g28
tp6042
Rp6043
(I1
(I6
tp6044
g35
I00
(lp6045
g39
ag40
ag41
ag42
ag43
ag44
atp6046
bsg15
Nstp6047
Rp6048
a(lp6049
g25
(g26
(I0
tp6050
g28
tp6051
Rp6052
(I1
(I6
tp6053
g55
I00
S'\xea"\xd1\x19\\<\xf5?\x00\x00\xfb\xf3\rp\x1c@-r\x94\xb5}`2@A\x04uz\x8e\xf5\xf8?\xff$\xab\x13T\xae\x02@\xa0 x\xba\xa3+\xda?'
p6054
tp6055
ba(lp6056
g21
(g22
(dp6057
g24
g25
(g26
(I0
tp6058
g28
tp6059
Rp6060
(I1
(I6
tp6061
g35
I00
(lp6062
g39
ag40
ag41
ag42
ag43
ag44
atp6063
bsg15
Nstp6064
Rp6065
a(dp6066
g71
(dp6067
g73
g6039
sg74
(lp6068
(dp6069
g77
g78
(I0
I6
I1
tp6070
Rp6071
sg81
g6052
sasstp6072
bsg83
g84
sg15
NsbsF60.0
g7
(g8
g9
Ntp6073
Rp6074
(dp6075
g13
g14
sg16
g7
(g17
g9
Ntp6076
Rp6077
((lp6078
g21
(g22
(dp6079
g24
g25
(g26
(I0
tp6080
g28
tp6081
Rp6082
(I1
(I6
tp6083
g35
I00
(lp6084
g39
ag40
ag41
ag42
ag43
ag44
atp6085
bsg15
Nstp6086
Rp6087
a(lp6088
g25
(g26
(I0
tp6089
g28
tp6090
Rp6091
(I1
(I6
tp6092
g55
I00
S's#-\x82O\x1a\xf6?>\x17\x13\x89L2\x1c@\xe0|\xe4\xa5So/@y9\xec\xacF=\xf9?T7Ae\\\xbb\x02@\xedq\xc8\x0e71\xd9?'
p6093
tp6094
ba(lp6095
g21
(g22
(dp6096
g24
g25
(g26
(I0
tp6097
g28
tp6098
Rp6099
(I1
(I6
tp6100
g35
I00
(lp6101
g39
ag40
ag41
ag42
ag43
ag44
atp6102
bsg15
Nstp6103
Rp6104
a(dp6105
g71
(dp6106
g73
g6078
sg74
(lp6107
(dp6108
g77
g78
(I0
I6
I1
tp6109
Rp6110
sg81
g6091
sasstp6111
bsg83
g84
sg15
NsbsF30.0
g7
(g8
g9
Ntp6112
Rp6113
(dp6114
g13
g14
sg16
g7
(g17
g9
Ntp6115
Rp6116
((lp6117
g21
(g22
(dp6118
g24
g25
(g26
(I0
tp6119
g28
tp6120
Rp6121
(I1
(I6
tp6122
g35
I00
(lp6123
g39
ag40
ag41
ag42
ag43
ag44
atp6124
bsg15
Nstp6125
Rp6126
a(lp6127
g25
(g26
(I0
tp6128
g28
tp6129
Rp6130
(I1
(I6
tp6131
g55
I00
S'\xae\x85\xfd7\x8c\x80\xf6?((-\xe5h\xfe\x1d@S!\x0fA\xfd\xa81@\xc5,U\xfbJ\xaa\xfa?o\x06\xeb\x87\xd3l\x03@\xb0\x88\x8dW\xcc\xdb\xde?'
p6132
tp6133
ba(lp6134
g21
(g22
(dp6135
g24
g25
(g26
(I0
tp6136
g28
tp6137
Rp6138
(I1
(I6
tp6139
g35
I00
(lp6140
g39
ag40
ag41
ag42
ag43
ag44
atp6141
bsg15
Nstp6142
Rp6143
a(dp6144
g71
(dp6145
g73
g6117
sg74
(lp6146
(dp6147
g77
g78
(I0
I6
I1
tp6148
Rp6149
sg81
g6130
sasstp6150
bsg83
g84
sg15
Nsbssssg1062
(dp6151
g2
(dp6152
g5
(dp6153
F100.0
g7
(g8
g9
Ntp6154
Rp6155
(dp6156
g13
g14
sg16
g7
(g17
g9
Ntp6157
Rp6158
((lp6159
g21
(g22
(dp6160
g24
g25
(g26
(I0
tp6161
g28
tp6162
Rp6163
(I1
(I6
tp6164
g35
I00
(lp6165
g39
ag40
ag41
ag42
ag43
ag44
atp6166
bsg15
Nstp6167
Rp6168
a(lp6169
g25
(g26
(I0
tp6170
g28
tp6171
Rp6172
(I1
(I6
tp6173
g55
I00
S'\xbd\xc7\t\x01OY\xf3?\xad\xccw\xd0&\xa1 @\xf3\xf1H -\xfb-@\xa2\xb0w;1\x85\xfa?\x8ca\x9f\xf5P\x1f\x05@\xeb\xb9\xb8\xb1\x1d=\xcc?'
p6174
tp6175
ba(lp6176
g21
(g22
(dp6177
g24
g25
(g26
(I0
tp6178
g28
tp6179
Rp6180
(I1
(I6
tp6181
g35
I00
(lp6182
g39
ag40
ag41
ag42
ag43
ag44
atp6183
bsg15
Nstp6184
Rp6185
a(dp6186
g71
(dp6187
g73
g6159
sg74
(lp6188
(dp6189
g77
g78
(I0
I6
I1
tp6190
Rp6191
sg81
g6172
sasstp6192
bsg83
g84
sg15
NsbsF70.0
g7
(g8
g9
Ntp6193
Rp6194
(dp6195
g13
g14
sg16
g7
(g17
g9
Ntp6196
Rp6197
((lp6198
g21
(g22
(dp6199
g24
g25
(g26
(I0
tp6200
g28
tp6201
Rp6202
(I1
(I6
tp6203
g35
I00
(lp6204
g39
ag40
ag41
ag42
ag43
ag44
atp6205
bsg15
Nstp6206
Rp6207
a(lp6208
g25
(g26
(I0
tp6209
g28
tp6210
Rp6211
(I1
(I6
tp6212
g55
I00
S'Z\t\xff\xc6\xf4\xa6\xf8?\xf0n;\xb7H+ @6"(\x0e\x0c\x1d/@\xd9\xd1\xc1\x83]:\xf8?2(\x0c\'\xea\x19\x08@\x9e\x05\xf2_k\xac\xcc?'
p6213
tp6214
ba(lp6215
g21
(g22
(dp6216
g24
g25
(g26
(I0
tp6217
g28
tp6218
Rp6219
(I1
(I6
tp6220
g35
I00
(lp6221
g39
ag40
ag41
ag42
ag43
ag44
atp6222
bsg15
Nstp6223
Rp6224
a(dp6225
g71
(dp6226
g73
g6198
sg74
(lp6227
(dp6228
g77
g78
(I0
I6
I1
tp6229
Rp6230
sg81
g6211
sasstp6231
bsg83
g84
sg15
NsbsF6.0
g7
(g8
g9
Ntp6232
Rp6233
(dp6234
g13
g14
sg16
g7
(g17
g9
Ntp6235
Rp6236
((lp6237
g21
(g22
(dp6238
g24
g25
(g26
(I0
tp6239
g28
tp6240
Rp6241
(I1
(I6
tp6242
g35
I00
(lp6243
g39
ag40
ag41
ag42
ag43
ag44
atp6244
bsg15
Nstp6245
Rp6246
a(lp6247
g25
(g26
(I0
tp6248
g28
tp6249
Rp6250
(I1
(I6
tp6251
g55
I00
S'\xaf2\xdagyL\xf8?\x14\xb2Eo\x9f\xd2 @\x8a1\x1e\xe1\xdb\xc76@\xa8\x13\x87\x84\xa2\xfe\xfb?\x9e\xb1\x0e\xa8\x95R\x06@\x9e\xe5\xd6\xa6\xdfs\xd4?'
p6252
tp6253
ba(lp6254
g21
(g22
(dp6255
g24
g25
(g26
(I0
tp6256
g28
tp6257
Rp6258
(I1
(I6
tp6259
g35
I00
(lp6260
g39
ag40
ag41
ag42
ag43
ag44
atp6261
bsg15
Nstp6262
Rp6263
a(dp6264
g71
(dp6265
g73
g6237
sg74
(lp6266
(dp6267
g77
g78
(I0
I6
I1
tp6268
Rp6269
sg81
g6250
sasstp6270
bsg83
g84
sg15
NsbsF40.0
g7
(g8
g9
Ntp6271
Rp6272
(dp6273
g13
g14
sg16
g7
(g17
g9
Ntp6274
Rp6275
((lp6276
g21
(g22
(dp6277
g24
g25
(g26
(I0
tp6278
g28
tp6279
Rp6280
(I1
(I6
tp6281
g35
I00
(lp6282
g39
ag40
ag41
ag42
ag43
ag44
atp6283
bsg15
Nstp6284
Rp6285
a(lp6286
g25
(g26
(I0
tp6287
g28
tp6288
Rp6289
(I1
(I6
tp6290
g55
I00
S'VI\x9f\x7f\x8b/\xf6?&\xed*\x04L{ @\x167\xae?\xe3\xc3/@k\xaf\x9a\x9f\xd2\xb1\xfa?\x1dlP\x19\xe11\x06@x\xad\n\x16\x0c\x87\xcd?'
p6291
tp6292
ba(lp6293
g21
(g22
(dp6294
g24
g25
(g26
(I0
tp6295
g28
tp6296
Rp6297
(I1
(I6
tp6298
g35
I00
(lp6299
g39
ag40
ag41
ag42
ag43
ag44
atp6300
bsg15
Nstp6301
Rp6302
a(dp6303
g71
(dp6304
g73
g6276
sg74
(lp6305
(dp6306
g77
g78
(I0
I6
I1
tp6307
Rp6308
sg81
g6289
sasstp6309
bsg83
g84
sg15
NsbsF9.0
g7
(g8
g9
Ntp6310
Rp6311
(dp6312
g13
g14
sg16
g7
(g17
g9
Ntp6313
Rp6314
((lp6315
g21
(g22
(dp6316
g24
g25
(g26
(I0
tp6317
g28
tp6318
Rp6319
(I1
(I6
tp6320
g35
I00
(lp6321
g39
ag40
ag41
ag42
ag43
ag44
atp6322
bsg15
Nstp6323
Rp6324
a(lp6325
g25
(g26
(I0
tp6326
g28
tp6327
Rp6328
(I1
(I6
tp6329
g55
I00
S'>\xd4ws\xfb\xa2\xf8?J\xf1x-\x1cr\x1f@u\x83\x8aA\xf7\xfa3@\x85\x0e\xd1\n\xae\xe7\xf9?W\x81\\SY9\x07@r\xc5\xb1i\xb4>\xd0?'
p6330
tp6331
ba(lp6332
g21
(g22
(dp6333
g24
g25
(g26
(I0
tp6334
g28
tp6335
Rp6336
(I1
(I6
tp6337
g35
I00
(lp6338
g39
ag40
ag41
ag42
ag43
ag44
atp6339
bsg15
Nstp6340
Rp6341
a(dp6342
g71
(dp6343
g73
g6315
sg74
(lp6344
(dp6345
g77
g78
(I0
I6
I1
tp6346
Rp6347
sg81
g6328
sasstp6348
bsg83
g84
sg15
NsbsF10.0
g7
(g8
g9
Ntp6349
Rp6350
(dp6351
g13
g14
sg16
g7
(g17
g9
Ntp6352
Rp6353
((lp6354
g21
(g22
(dp6355
g24
g25
(g26
(I0
tp6356
g28
tp6357
Rp6358
(I1
(I6
tp6359
g35
I00
(lp6360
g39
ag40
ag41
ag42
ag43
ag44
atp6361
bsg15
Nstp6362
Rp6363
a(lp6364
g25
(g26
(I0
tp6365
g28
tp6366
Rp6367
(I1
(I6
tp6368
g55
I00
S'>\xd4ws\xfb\xa2\xf8?J\xf1x-\x1cr\x1f@u\x83\x8aA\xf7\xfa3@\x85\x0e\xd1\n\xae\xe7\xf9?W\x81\\SY9\x07@r\xc5\xb1i\xb4>\xd0?'
p6369
tp6370
ba(lp6371
g21
(g22
(dp6372
g24
g25
(g26
(I0
tp6373
g28
tp6374
Rp6375
(I1
(I6
tp6376
g35
I00
(lp6377
g39
ag40
ag41
ag42
ag43
ag44
atp6378
bsg15
Nstp6379
Rp6380
a(dp6381
g71
(dp6382
g73
g6354
sg74
(lp6383
(dp6384
g77
g78
(I0
I6
I1
tp6385
Rp6386
sg81
g6367
sasstp6387
bsg83
g84
sg15
NsbsF15.0
g7
(g8
g9
Ntp6388
Rp6389
(dp6390
g13
g14
sg16
g7
(g17
g9
Ntp6391
Rp6392
((lp6393
g21
(g22
(dp6394
g24
g25
(g26
(I0
tp6395
g28
tp6396
Rp6397
(I1
(I6
tp6398
g35
I00
(lp6399
g39
ag40
ag41
ag42
ag43
ag44
atp6400
bsg15
Nstp6401
Rp6402
a(lp6403
g25
(g26
(I0
tp6404
g28
tp6405
Rp6406
(I1
(I6
tp6407
g55
I00
S'\x10\xda\xb4\xa4\x13\xa6\xf7?\xb5\x15\rT\x042 @\xd6\xa2q\x10\xf1\xf81@\xf2\xf2nP\x89\x99\xfa?\x0c\xe1"\x03\x9cr\x06@\xcfg|\x93\x1fn\xd0?'
p6408
tp6409
ba(lp6410
g21
(g22
(dp6411
g24
g25
(g26
(I0
tp6412
g28
tp6413
Rp6414
(I1
(I6
tp6415
g35
I00
(lp6416
g39
ag40
ag41
ag42
ag43
ag44
atp6417
bsg15
Nstp6418
Rp6419
a(dp6420
g71
(dp6421
g73
g6393
sg74
(lp6422
(dp6423
g77
g78
(I0
I6
I1
tp6424
Rp6425
sg81
g6406
sasstp6426
bsg83
g84
sg15
NsbsF80.0
g7
(g8
g9
Ntp6427
Rp6428
(dp6429
g13
g14
sg16
g7
(g17
g9
Ntp6430
Rp6431
((lp6432
g21
(g22
(dp6433
g24
g25
(g26
(I0
tp6434
g28
tp6435
Rp6436
(I1
(I6
tp6437
g35
I00
(lp6438
g39
ag40
ag41
ag42
ag43
ag44
atp6439
bsg15
Nstp6440
Rp6441
a(lp6442
g25
(g26
(I0
tp6443
g28
tp6444
Rp6445
(I1
(I6
tp6446
g55
I00
S'\xa2\x8d\xff\xf8\x8e\x13\xf5?\x0b\rx\x04\xd3[\x1e@:\xe0\xc4\xda\xd4".@\x91\xcb\x7f\x13\xb8-\xf9?$\x83\xe1\x03\xee<\x07@\xaea\xa8q\xc2|\xcb?'
p6447
tp6448
ba(lp6449
g21
(g22
(dp6450
g24
g25
(g26
(I0
tp6451
g28
tp6452
Rp6453
(I1
(I6
tp6454
g35
I00
(lp6455
g39
ag40
ag41
ag42
ag43
ag44
atp6456
bsg15
Nstp6457
Rp6458
a(dp6459
g71
(dp6460
g73
g6432
sg74
(lp6461
(dp6462
g77
g78
(I0
I6
I1
tp6463
Rp6464
sg81
g6445
sasstp6465
bsg83
g84
sg15
NsbsF50.0
g7
(g8
g9
Ntp6466
Rp6467
(dp6468
g13
g14
sg16
g7
(g17
g9
Ntp6469
Rp6470
((lp6471
g21
(g22
(dp6472
g24
g25
(g26
(I0
tp6473
g28
tp6474
Rp6475
(I1
(I6
tp6476
g35
I00
(lp6477
g39
ag40
ag41
ag42
ag43
ag44
atp6478
bsg15
Nstp6479
Rp6480
a(lp6481
g25
(g26
(I0
tp6482
g28
tp6483
Rp6484
(I1
(I6
tp6485
g55
I00
S'\x98\xce\xa2Q[\xad\xf4?\xa7\xa67\xdf\xb6\xe2 @\xeas\x1dA\xc0\xd4.@rLk\xb9\xe5t\xfb?3\xc4\xb6\xb3\xc8\xae\x04@\xfa\xb9)V\x93\x89\xcc?'
p6486
tp6487
ba(lp6488
g21
(g22
(dp6489
g24
g25
(g26
(I0
tp6490
g28
tp6491
Rp6492
(I1
(I6
tp6493
g35
I00
(lp6494
g39
ag40
ag41
ag42
ag43
ag44
atp6495
bsg15
Nstp6496
Rp6497
a(dp6498
g71
(dp6499
g73
g6471
sg74
(lp6500
(dp6501
g77
g78
(I0
I6
I1
tp6502
Rp6503
sg81
g6484
sasstp6504
bsg83
g84
sg15
NsbsF20.0
g7
(g8
g9
Ntp6505
Rp6506
(dp6507
g13
g14
sg16
g7
(g17
g9
Ntp6508
Rp6509
((lp6510
g21
(g22
(dp6511
g24
g25
(g26
(I0
tp6512
g28
tp6513
Rp6514
(I1
(I6
tp6515
g35
I00
(lp6516
g39
ag40
ag41
ag42
ag43
ag44
atp6517
bsg15
Nstp6518
Rp6519
a(lp6520
g25
(g26
(I0
tp6521
g28
tp6522
Rp6523
(I1
(I6
tp6524
g55
I00
S'r\xc8\xdb\x9d\x96\xd3\xf5?\xc2+\xdf\xe0u\x03 @]\xea\xe4_\xc5!1@\xa2k\xe0\x1fh\xac\xfa?\x89\x9ai\x8a\xfb\x9f\x05@\xedL\xc2\xc7\x88\xfb\xcc?'
p6525
tp6526
ba(lp6527
g21
(g22
(dp6528
g24
g25
(g26
(I0
tp6529
g28
tp6530
Rp6531
(I1
(I6
tp6532
g35
I00
(lp6533
g39
ag40
ag41
ag42
ag43
ag44
atp6534
bsg15
Nstp6535
Rp6536
a(dp6537
g71
(dp6538
g73
g6510
sg74
(lp6539
(dp6540
g77
g78
(I0
I6
I1
tp6541
Rp6542
sg81
g6523
sasstp6543
bsg83
g84
sg15
NsbsF90.0
g7
(g8
g9
Ntp6544
Rp6545
(dp6546
g13
g14
sg16
g7
(g17
g9
Ntp6547
Rp6548
((lp6549
g21
(g22
(dp6550
g24
g25
(g26
(I0
tp6551
g28
tp6552
Rp6553
(I1
(I6
tp6554
g35
I00
(lp6555
g39
ag40
ag41
ag42
ag43
ag44
atp6556
bsg15
Nstp6557
Rp6558
a(lp6559
g25
(g26
(I0
tp6560
g28
tp6561
Rp6562
(I1
(I6
tp6563
g55
I00
S'\x044icml\xf4?ZD\xe6+\xc2a @\xa6\x02\xe2\xaa\xed\xe3-@\xc64\x03x7\x08\xfa?\xe4\xa8\x1f\x96\xd7\xac\x05@\x12M\x13Y\xceR\xcb?'
p6564
tp6565
ba(lp6566
g21
(g22
(dp6567
g24
g25
(g26
(I0
tp6568
g28
tp6569
Rp6570
(I1
(I6
tp6571
g35
I00
(lp6572
g39
ag40
ag41
ag42
ag43
ag44
atp6573
bsg15
Nstp6574
Rp6575
a(dp6576
g71
(dp6577
g73
g6549
sg74
(lp6578
(dp6579
g77
g78
(I0
I6
I1
tp6580
Rp6581
sg81
g6562
sasstp6582
bsg83
g84
sg15
NsbsF60.0
g7
(g8
g9
Ntp6583
Rp6584
(dp6585
g13
g14
sg16
g7
(g17
g9
Ntp6586
Rp6587
((lp6588
g21
(g22
(dp6589
g24
g25
(g26
(I0
tp6590
g28
tp6591
Rp6592
(I1
(I6
tp6593
g35
I00
(lp6594
g39
ag40
ag41
ag42
ag43
ag44
atp6595
bsg15
Nstp6596
Rp6597
a(lp6598
g25
(g26
(I0
tp6599
g28
tp6600
Rp6601
(I1
(I6
tp6602
g55
I00
S'\x00\r\x9b\xd6q[\xf6?\x06\xfe\xa1\x9a\x9a\x8e\x1f@\x18uj\x04N\x100@\xd3\x85\xde\x17\x06"\xfa?N\x8cBv\xc5:\x07@rx\xa1\xbfiY\xcb?'
p6603
tp6604
ba(lp6605
g21
(g22
(dp6606
g24
g25
(g26
(I0
tp6607
g28
tp6608
Rp6609
(I1
(I6
tp6610
g35
I00
(lp6611
g39
ag40
ag41
ag42
ag43
ag44
atp6612
bsg15
Nstp6613
Rp6614
a(dp6615
g71
(dp6616
g73
g6588
sg74
(lp6617
(dp6618
g77
g78
(I0
I6
I1
tp6619
Rp6620
sg81
g6601
sasstp6621
bsg83
g84
sg15
NsbsF30.0
g7
(g8
g9
Ntp6622
Rp6623
(dp6624
g13
g14
sg16
g7
(g17
g9
Ntp6625
Rp6626
((lp6627
g21
(g22
(dp6628
g24
g25
(g26
(I0
tp6629
g28
tp6630
Rp6631
(I1
(I6
tp6632
g35
I00
(lp6633
g39
ag40
ag41
ag42
ag43
ag44
atp6634
bsg15
Nstp6635
Rp6636
a(lp6637
g25
(g26
(I0
tp6638
g28
tp6639
Rp6640
(I1
(I6
tp6641
g55
I00
S'\xf0\xda\x1ba\xc7\\\xf4?\xfb;j\xc5X\x84\x1f@ng\xf7\x8e\xd1 0@S4\xe7AV\x80\xfb?6Iq\x08\xc6\xfa\x05@\xf3\rO\xdc\xc8\xe0\xc9?'
p6642
tp6643
ba(lp6644
g21
(g22
(dp6645
g24
g25
(g26
(I0
tp6646
g28
tp6647
Rp6648
(I1
(I6
tp6649
g35
I00
(lp6650
g39
ag40
ag41
ag42
ag43
ag44
atp6651
bsg15
Nstp6652
Rp6653
a(dp6654
g71
(dp6655
g73
g6627
sg74
(lp6656
(dp6657
g77
g78
(I0
I6
I1
tp6658
Rp6659
sg81
g6640
sasstp6660
bsg83
g84
sg15
Nsbssg553
(dp6661
F100.0
g7
(g8
g9
Ntp6662
Rp6663
(dp6664
g13
g14
sg16
g7
(g17
g9
Ntp6665
Rp6666
((lp6667
g21
(g22
(dp6668
g24
g25
(g26
(I0
tp6669
g28
tp6670
Rp6671
(I1
(I6
tp6672
g35
I00
(lp6673
g39
ag40
ag41
ag42
ag43
ag44
atp6674
bsg15
Nstp6675
Rp6676
a(lp6677
g25
(g26
(I0
tp6678
g28
tp6679
Rp6680
(I1
(I6
tp6681
g55
I00
S'u\xa6\x9d\x97\xbf*\xf5?\xbe\x98:U\xdc\x9c\x1b@\x08\x14\x9a\xd5X\xb30@\xd8\x92\xce|\xf6R\xf9?US\xaf\xde\xb2\xb7\x03@>\xdd`w\xa9\x9f\xdb?'
p6682
tp6683
ba(lp6684
g21
(g22
(dp6685
g24
g25
(g26
(I0
tp6686
g28
tp6687
Rp6688
(I1
(I6
tp6689
g35
I00
(lp6690
g39
ag40
ag41
ag42
ag43
ag44
atp6691
bsg15
Nstp6692
Rp6693
a(dp6694
g71
(dp6695
g73
g6667
sg74
(lp6696
(dp6697
g77
g78
(I0
I6
I1
tp6698
Rp6699
sg81
g6680
sasstp6700
bsg83
g84
sg15
NsbsF70.0
g7
(g8
g9
Ntp6701
Rp6702
(dp6703
g13
g14
sg16
g7
(g17
g9
Ntp6704
Rp6705
((lp6706
g21
(g22
(dp6707
g24
g25
(g26
(I0
tp6708
g28
tp6709
Rp6710
(I1
(I6
tp6711
g35
I00
(lp6712
g39
ag40
ag41
ag42
ag43
ag44
atp6713
bsg15
Nstp6714
Rp6715
a(lp6716
g25
(g26
(I0
tp6717
g28
tp6718
Rp6719
(I1
(I6
tp6720
g55
I00
S'\x89\x07QS\xc5\xbe\xf6?\xb2K\x17b\x9b\xdb\x17@\xdex3f\xa0\x8c0@\x16\xc0\xf5\xaf\x0c\x95\xf8?\xc8*\xee\x1eU\xb9\x03@fT\x0b\x0e{=\xd8?'
p6721
tp6722
ba(lp6723
g21
(g22
(dp6724
g24
g25
(g26
(I0
tp6725
g28
tp6726
Rp6727
(I1
(I6
tp6728
g35
I00
(lp6729
g39
ag40
ag41
ag42
ag43
ag44
atp6730
bsg15
Nstp6731
Rp6732
a(dp6733
g71
(dp6734
g73
g6706
sg74
(lp6735
(dp6736
g77
g78
(I0
I6
I1
tp6737
Rp6738
sg81
g6719
sasstp6739
bsg83
g84
sg15
NsbsF6.0
g7
(g8
g9
Ntp6740
Rp6741
(dp6742
g13
g14
sg16
g7
(g17
g9
Ntp6743
Rp6744
((lp6745
g21
(g22
(dp6746
g24
g25
(g26
(I0
tp6747
g28
tp6748
Rp6749
(I1
(I6
tp6750
g35
I00
(lp6751
g39
ag40
ag41
ag42
ag43
ag44
atp6752
bsg15
Nstp6753
Rp6754
a(lp6755
g25
(g26
(I0
tp6756
g28
tp6757
Rp6758
(I1
(I6
tp6759
g55
I00
S'N\xcc\xe5+\xcb\xba\x05@\x1a?\xeb\x8a\x95\x80\x1e@C\xeb]\n\xce^7@\xb5\x13\xc2)j9\x02@4\xc1\xe1l-\xa0\x12@\x00\x8a\xf3\x8e\x05\xcc\x06@'
p6760
tp6761
ba(lp6762
g21
(g22
(dp6763
g24
g25
(g26
(I0
tp6764
g28
tp6765
Rp6766
(I1
(I6
tp6767
g35
I00
(lp6768
g39
ag40
ag41
ag42
ag43
ag44
atp6769
bsg15
Nstp6770
Rp6771
a(dp6772
g71
(dp6773
g73
g6745
sg74
(lp6774
(dp6775
g77
g78
(I0
I6
I1
tp6776
Rp6777
sg81
g6758
sasstp6778
bsg83
g84
sg15
NsbsF40.0
g7
(g8
g9
Ntp6779
Rp6780
(dp6781
g13
g14
sg16
g7
(g17
g9
Ntp6782
Rp6783
((lp6784
g21
(g22
(dp6785
g24
g25
(g26
(I0
tp6786
g28
tp6787
Rp6788
(I1
(I6
tp6789
g35
I00
(lp6790
g39
ag40
ag41
ag42
ag43
ag44
atp6791
bsg15
Nstp6792
Rp6793
a(lp6794
g25
(g26
(I0
tp6795
g28
tp6796
Rp6797
(I1
(I6
tp6798
g55
I00
S'K\xe7(\xe5\xac\x13\xf8?:4\x1b\x9e\xec\xff\x16@\x8b\x055\x1fJ\xe60@\xb3m\xdf\xe7\x1d\x0e\xfb?\xa3k\x01`\x9e\x94\x04@\x9a\x17\x1b+N\xbd\xde?'
p6799
tp6800
ba(lp6801
g21
(g22
(dp6802
g24
g25
(g26
(I0
tp6803
g28
tp6804
Rp6805
(I1
(I6
tp6806
g35
I00
(lp6807
g39
ag40
ag41
ag42
ag43
ag44
atp6808
bsg15
Nstp6809
Rp6810
a(dp6811
g71
(dp6812
g73
g6784
sg74
(lp6813
(dp6814
g77
g78
(I0
I6
I1
tp6815
Rp6816
sg81
g6797
sasstp6817
bsg83
g84
sg15
NsbsF9.0
g7
(g8
g9
Ntp6818
Rp6819
(dp6820
g13
g14
sg16
g7
(g17
g9
Ntp6821
Rp6822
((lp6823
g21
(g22
(dp6824
g24
g25
(g26
(I0
tp6825
g28
tp6826
Rp6827
(I1
(I6
tp6828
g35
I00
(lp6829
g39
ag40
ag41
ag42
ag43
ag44
atp6830
bsg15
Nstp6831
Rp6832
a(lp6833
g25
(g26
(I0
tp6834
g28
tp6835
Rp6836
(I1
(I6
tp6837
g55
I00
S'2Y[:\xa4\xd9\x03@\r\x0ez\x94\x1b\x98!@\xa4\x90\x06\x85j\xbd3@j\x05\x04//\x15\x00@5\x07\x01}\xaa\xc6\x0b@`z\x86O\xc1Q\x00@'
p6838
tp6839
ba(lp6840
g21
(g22
(dp6841
g24
g25
(g26
(I0
tp6842
g28
tp6843
Rp6844
(I1
(I6
tp6845
g35
I00
(lp6846
g39
ag40
ag41
ag42
ag43
ag44
atp6847
bsg15
Nstp6848
Rp6849
a(dp6850
g71
(dp6851
g73
g6823
sg74
(lp6852
(dp6853
g77
g78
(I0
I6
I1
tp6854
Rp6855
sg81
g6836
sasstp6856
bsg83
g84
sg15
NsbsF10.0
g7
(g8
g9
Ntp6857
Rp6858
(dp6859
g13
g14
sg16
g7
(g17
g9
Ntp6860
Rp6861
((lp6862
g21
(g22
(dp6863
g24
g25
(g26
(I0
tp6864
g28
tp6865
Rp6866
(I1
(I6
tp6867
g35
I00
(lp6868
g39
ag40
ag41
ag42
ag43
ag44
atp6869
bsg15
Nstp6870
Rp6871
a(lp6872
g25
(g26
(I0
tp6873
g28
tp6874
Rp6875
(I1
(I6
tp6876
g55
I00
S'2Y[:\xa4\xd9\x03@\r\x0ez\x94\x1b\x98!@\xa4\x90\x06\x85j\xbd3@j\x05\x04//\x15\x00@5\x07\x01}\xaa\xc6\x0b@`z\x86O\xc1Q\x00@'
p6877
tp6878
ba(lp6879
g21
(g22
(dp6880
g24
g25
(g26
(I0
tp6881
g28
tp6882
Rp6883
(I1
(I6
tp6884
g35
I00
(lp6885
g39
ag40
ag41
ag42
ag43
ag44
atp6886
bsg15
Nstp6887
Rp6888
a(dp6889
g71
(dp6890
g73
g6862
sg74
(lp6891
(dp6892
g77
g78
(I0
I6
I1
tp6893
Rp6894
sg81
g6875
sasstp6895
bsg83
g84
sg15
NsbsF15.0
g7
(g8
g9
Ntp6896
Rp6897
(dp6898
g13
g14
sg16
g7
(g17
g9
Ntp6899
Rp6900
((lp6901
g21
(g22
(dp6902
g24
g25
(g26
(I0
tp6903
g28
tp6904
Rp6905
(I1
(I6
tp6906
g35
I00
(lp6907
g39
ag40
ag41
ag42
ag43
ag44
atp6908
bsg15
Nstp6909
Rp6910
a(lp6911
g25
(g26
(I0
tp6912
g28
tp6913
Rp6914
(I1
(I6
tp6915
g55
I00
S'\xfe\x87\x1b\x18\x10\x84\xfc?\xa2\xf7~*n\x97\x18@\xba\x16\xee\x96\xb0o2@V\xc1\xf2\xd7|\x15\xfb?\xf2\xee\x12\xfe<\xd2\n@zA)hC\xc2\xea?'
p6916
tp6917
ba(lp6918
g21
(g22
(dp6919
g24
g25
(g26
(I0
tp6920
g28
tp6921
Rp6922
(I1
(I6
tp6923
g35
I00
(lp6924
g39
ag40
ag41
ag42
ag43
ag44
atp6925
bsg15
Nstp6926
Rp6927
a(dp6928
g71
(dp6929
g73
g6901
sg74
(lp6930
(dp6931
g77
g78
(I0
I6
I1
tp6932
Rp6933
sg81
g6914
sasstp6934
bsg83
g84
sg15
NsbsF80.0
g7
(g8
g9
Ntp6935
Rp6936
(dp6937
g13
g14
sg16
g7
(g17
g9
Ntp6938
Rp6939
((lp6940
g21
(g22
(dp6941
g24
g25
(g26
(I0
tp6942
g28
tp6943
Rp6944
(I1
(I6
tp6945
g35
I00
(lp6946
g39
ag40
ag41
ag42
ag43
ag44
atp6947
bsg15
Nstp6948
Rp6949
a(lp6950
g25
(g26
(I0
tp6951
g28
tp6952
Rp6953
(I1
(I6
tp6954
g55
I00
S'\x96\xb6\x97BM\x05\xf6?~M\xb9g\x1e\xff\x16@\xda\x10Yn5\xa4/@\x82@\xac\x1d\xb5\xaa\xfa?\xb5(\xac\xcb\x96I\x03@UO\xb8\xce9\xd2\xde?'
p6955
tp6956
ba(lp6957
g21
(g22
(dp6958
g24
g25
(g26
(I0
tp6959
g28
tp6960
Rp6961
(I1
(I6
tp6962
g35
I00
(lp6963
g39
ag40
ag41
ag42
ag43
ag44
atp6964
bsg15
Nstp6965
Rp6966
a(dp6967
g71
(dp6968
g73
g6940
sg74
(lp6969
(dp6970
g77
g78
(I0
I6
I1
tp6971
Rp6972
sg81
g6953
sasstp6973
bsg83
g84
sg15
NsbsF50.0
g7
(g8
g9
Ntp6974
Rp6975
(dp6976
g13
g14
sg16
g7
(g17
g9
Ntp6977
Rp6978
((lp6979
g21
(g22
(dp6980
g24
g25
(g26
(I0
tp6981
g28
tp6982
Rp6983
(I1
(I6
tp6984
g35
I00
(lp6985
g39
ag40
ag41
ag42
ag43
ag44
atp6986
bsg15
Nstp6987
Rp6988
a(lp6989
g25
(g26
(I0
tp6990
g28
tp6991
Rp6992
(I1
(I6
tp6993
g55
I00
S'\xca0\xeeu\xd1/\xf7?6\x90\xdf\xadpY\x1d@\xdd\x82\x07\xa6M.4@r\xf5\x96\xedXY\xfb?4\x18\x0b6\n\x85\x04@fC\xfe\xcc@x\xdd?'
p6994
tp6995
ba(lp6996
g21
(g22
(dp6997
g24
g25
(g26
(I0
tp6998
g28
tp6999
Rp7000
(I1
(I6
tp7001
g35
I00
(lp7002
g39
ag40
ag41
ag42
ag43
ag44
atp7003
bsg15
Nstp7004
Rp7005
a(dp7006
g71
(dp7007
g73
g6979
sg74
(lp7008
(dp7009
g77
g78
(I0
I6
I1
tp7010
Rp7011
sg81
g6992
sasstp7012
bsg83
g84
sg15
NsbsF20.0
g7
(g8
g9
Ntp7013
Rp7014
(dp7015
g13
g14
sg16
g7
(g17
g9
Ntp7016
Rp7017
((lp7018
g21
(g22
(dp7019
g24
g25
(g26
(I0
tp7020
g28
tp7021
Rp7022
(I1
(I6
tp7023
g35
I00
(lp7024
g39
ag40
ag41
ag42
ag43
ag44
atp7025
bsg15
Nstp7026
Rp7027
a(lp7028
g25
(g26
(I0
tp7029
g28
tp7030
Rp7031
(I1
(I6
tp7032
g55
I00
S';\x19\x9ab\x0b\xc8\xfb?C\xd2\x1e\x13\x04P\x19@\x83\xe6:,hz2@"\xf9\xcb<is\xf9?\x97\x15\xf6\xea?\xc5\x06@\xb6\xb0\xe0\x95\xed\x81\xe3?'
p7033
tp7034
ba(lp7035
g21
(g22
(dp7036
g24
g25
(g26
(I0
tp7037
g28
tp7038
Rp7039
(I1
(I6
tp7040
g35
I00
(lp7041
g39
ag40
ag41
ag42
ag43
ag44
atp7042
bsg15
Nstp7043
Rp7044
a(dp7045
g71
(dp7046
g73
g7018
sg74
(lp7047
(dp7048
g77
g78
(I0
I6
I1
tp7049
Rp7050
sg81
g7031
sasstp7051
bsg83
g84
sg15
NsbsF90.0
g7
(g8
g9
Ntp7052
Rp7053
(dp7054
g13
g14
sg16
g7
(g17
g9
Ntp7055
Rp7056
((lp7057
g21
(g22
(dp7058
g24
g25
(g26
(I0
tp7059
g28
tp7060
Rp7061
(I1
(I6
tp7062
g35
I00
(lp7063
g39
ag40
ag41
ag42
ag43
ag44
atp7064
bsg15
Nstp7065
Rp7066
a(lp7067
g25
(g26
(I0
tp7068
g28
tp7069
Rp7070
(I1
(I6
tp7071
g55
I00
S"\x1d\x86\x94\xcbv3\xfa?\xde[Gt)\x10\x19@B\t's\xd0\x0e0@\x86\x0fm\x1a\x1cL\xf8?}\x95\x8f\xcdE\xab\x04@\xb2\x9d\x04p\xf0\xc3\xd7?"
p7072
tp7073
ba(lp7074
g21
(g22
(dp7075
g24
g25
(g26
(I0
tp7076
g28
tp7077
Rp7078
(I1
(I6
tp7079
g35
I00
(lp7080
g39
ag40
ag41
ag42
ag43
ag44
atp7081
bsg15
Nstp7082
Rp7083
a(dp7084
g71
(dp7085
g73
g7057
sg74
(lp7086
(dp7087
g77
g78
(I0
I6
I1
tp7088
Rp7089
sg81
g7070
sasstp7090
bsg83
g84
sg15
NsbsF60.0
g7
(g8
g9
Ntp7091
Rp7092
(dp7093
g13
g14
sg16
g7
(g17
g9
Ntp7094
Rp7095
((lp7096
g21
(g22
(dp7097
g24
g25
(g26
(I0
tp7098
g28
tp7099
Rp7100
(I1
(I6
tp7101
g35
I00
(lp7102
g39
ag40
ag41
ag42
ag43
ag44
atp7103
bsg15
Nstp7104
Rp7105
a(lp7106
g25
(g26
(I0
tp7107
g28
tp7108
Rp7109
(I1
(I6
tp7110
g55
I00
S'\xe6\xa5W\xea\xca\xa2\xf8?K\xe1\x06\x92\\\xca\x16@\xbe\xea;%\xe9\x100@\x14\xdb\xfb\xac{5\xf7?g\x8d\xacbE\x92\x03@*F\x9dK\x1bF\xd9?'
p7111
tp7112
ba(lp7113
g21
(g22
(dp7114
g24
g25
(g26
(I0
tp7115
g28
tp7116
Rp7117
(I1
(I6
tp7118
g35
I00
(lp7119
g39
ag40
ag41
ag42
ag43
ag44
atp7120
bsg15
Nstp7121
Rp7122
a(dp7123
g71
(dp7124
g73
g7096
sg74
(lp7125
(dp7126
g77
g78
(I0
I6
I1
tp7127
Rp7128
sg81
g7109
sasstp7129
bsg83
g84
sg15
NsbsF30.0
g7
(g8
g9
Ntp7130
Rp7131
(dp7132
g13
g14
sg16
g7
(g17
g9
Ntp7133
Rp7134
((lp7135
g21
(g22
(dp7136
g24
g25
(g26
(I0
tp7137
g28
tp7138
Rp7139
(I1
(I6
tp7140
g35
I00
(lp7141
g39
ag40
ag41
ag42
ag43
ag44
atp7142
bsg15
Nstp7143
Rp7144
a(lp7145
g25
(g26
(I0
tp7146
g28
tp7147
Rp7148
(I1
(I6
tp7149
g55
I00
S"\x13a'\xb1\xef\x15\x00@\xa6\x19:\x13q\x02\x19@C\xc2,c\x18\x0c1@\xe0\x02\xb0r\xb5\xcc\xfa?\x88\x97\x18\xce5\x1e\x06@{\\&\xc9\xde\x05\xe2?"
p7150
tp7151
ba(lp7152
g21
(g22
(dp7153
g24
g25
(g26
(I0
tp7154
g28
tp7155
Rp7156
(I1
(I6
tp7157
g35
I00
(lp7158
g39
ag40
ag41
ag42
ag43
ag44
atp7159
bsg15
Nstp7160
Rp7161
a(dp7162
g71
(dp7163
g73
g7135
sg74
(lp7164
(dp7165
g77
g78
(I0
I6
I1
tp7166
Rp7167
sg81
g7148
sasstp7168
bsg83
g84
sg15
Nsbsssg1062
(dp7169
g5
(dp7170
F100.0
g7
(g8
g9
Ntp7171
Rp7172
(dp7173
g13
g14
sg16
g7
(g17
g9
Ntp7174
Rp7175
((lp7176
g21
(g22
(dp7177
g24
g25
(g26
(I0
tp7178
g28
tp7179
Rp7180
(I1
(I6
tp7181
g35
I00
(lp7182
g39
ag40
ag41
ag42
ag43
ag44
atp7183
bsg15
Nstp7184
Rp7185
a(lp7186
g25
(g26
(I0
tp7187
g28
tp7188
Rp7189
(I1
(I6
tp7190
g55
I00
S'k\x17\x96\xc4k\xe2\xf4?\x95a\x1c\xee\x18N\x1e@"|\xa4\x94C}-@6\x9e\x0e\xee`a\xf3?\x17(\xc7\x061\xff\x06@\xea\xbcmO\x10\xab\xcb?'
p7191
tp7192
ba(lp7193
g21
(g22
(dp7194
g24
g25
(g26
(I0
tp7195
g28
tp7196
Rp7197
(I1
(I6
tp7198
g35
I00
(lp7199
g39
ag40
ag41
ag42
ag43
ag44
atp7200
bsg15
Nstp7201
Rp7202
a(dp7203
g71
(dp7204
g73
g7176
sg74
(lp7205
(dp7206
g77
g78
(I0
I6
I1
tp7207
Rp7208
sg81
g7189
sasstp7209
bsg83
g84
sg15
NsbsF70.0
g7
(g8
g9
Ntp7210
Rp7211
(dp7212
g13
g14
sg16
g7
(g17
g9
Ntp7213
Rp7214
((lp7215
g21
(g22
(dp7216
g24
g25
(g26
(I0
tp7217
g28
tp7218
Rp7219
(I1
(I6
tp7220
g35
I00
(lp7221
g39
ag40
ag41
ag42
ag43
ag44
atp7222
bsg15
Nstp7223
Rp7224
a(lp7225
g25
(g26
(I0
tp7226
g28
tp7227
Rp7228
(I1
(I6
tp7229
g55
I00
S'D\xb9LgA\xe0\xf4?[V\x82\x9f\xb4V @\xe2\xf4\xa5\x0f\xc0\xa3.@\xb8\xe0r\xeb\x03Y\x00@<\x90 d\xd9*\x03@R\x9d\xccv\xaa-\xd1?'
p7230
tp7231
ba(lp7232
g21
(g22
(dp7233
g24
g25
(g26
(I0
tp7234
g28
tp7235
Rp7236
(I1
(I6
tp7237
g35
I00
(lp7238
g39
ag40
ag41
ag42
ag43
ag44
atp7239
bsg15
Nstp7240
Rp7241
a(dp7242
g71
(dp7243
g73
g7215
sg74
(lp7244
(dp7245
g77
g78
(I0
I6
I1
tp7246
Rp7247
sg81
g7228
sasstp7248
bsg83
g84
sg15
NsbsF6.0
g7
(g8
g9
Ntp7249
Rp7250
(dp7251
g13
g14
sg16
g7
(g17
g9
Ntp7252
Rp7253
((lp7254
g21
(g22
(dp7255
g24
g25
(g26
(I0
tp7256
g28
tp7257
Rp7258
(I1
(I6
tp7259
g35
I00
(lp7260
g39
ag40
ag41
ag42
ag43
ag44
atp7261
bsg15
Nstp7262
Rp7263
a(lp7264
g25
(g26
(I0
tp7265
g28
tp7266
Rp7267
(I1
(I6
tp7268
g55
I00
S'Z\x01z#\xa9\xfd\xf0?\xb9\xf6|\x9e\xa5\xa3%@:\x17\x91Vq\xd56@o\x10X\xa0\x8d\xac\x02@H:r\xb1c\x0f\x04@;,\xd9&#\x0e\xdc?'
p7269
tp7270
ba(lp7271
g21
(g22
(dp7272
g24
g25
(g26
(I0
tp7273
g28
tp7274
Rp7275
(I1
(I6
tp7276
g35
I00
(lp7277
g39
ag40
ag41
ag42
ag43
ag44
atp7278
bsg15
Nstp7279
Rp7280
a(dp7281
g71
(dp7282
g73
g7254
sg74
(lp7283
(dp7284
g77
g78
(I0
I6
I1
tp7285
Rp7286
sg81
g7267
sasstp7287
bsg83
g84
sg15
NsbsF40.0
g7
(g8
g9
Ntp7288
Rp7289
(dp7290
g13
g14
sg16
g7
(g17
g9
Ntp7291
Rp7292
((lp7293
g21
(g22
(dp7294
g24
g25
(g26
(I0
tp7295
g28
tp7296
Rp7297
(I1
(I6
tp7298
g35
I00
(lp7299
g39
ag40
ag41
ag42
ag43
ag44
atp7300
bsg15
Nstp7301
Rp7302
a(lp7303
g25
(g26
(I0
tp7304
g28
tp7305
Rp7306
(I1
(I6
tp7307
g55
I00
S'\xa6\xba\x98\xa8F\xe3\xf4?$\xe6\x1a\xf7sj!@\x0e:N9\xb8^/@cN\xde\xae(\xdd\x00@C#\xa9\xf0\xc6C\x04@\x9d\xfb&\xe5i\xa2\xd2?'
p7308
tp7309
ba(lp7310
g21
(g22
(dp7311
g24
g25
(g26
(I0
tp7312
g28
tp7313
Rp7314
(I1
(I6
tp7315
g35
I00
(lp7316
g39
ag40
ag41
ag42
ag43
ag44
atp7317
bsg15
Nstp7318
Rp7319
a(dp7320
g71
(dp7321
g73
g7293
sg74
(lp7322
(dp7323
g77
g78
(I0
I6
I1
tp7324
Rp7325
sg81
g7306
sasstp7326
bsg83
g84
sg15
NsbsF9.0
g7
(g8
g9
Ntp7327
Rp7328
(dp7329
g13
g14
sg16
g7
(g17
g9
Ntp7330
Rp7331
((lp7332
g21
(g22
(dp7333
g24
g25
(g26
(I0
tp7334
g28
tp7335
Rp7336
(I1
(I6
tp7337
g35
I00
(lp7338
g39
ag40
ag41
ag42
ag43
ag44
atp7339
bsg15
Nstp7340
Rp7341
a(lp7342
g25
(g26
(I0
tp7343
g28
tp7344
Rp7345
(I1
(I6
tp7346
g55
I00
S'\x0b\xd743\x06.\xf2?\x88B\xb4L<\x1b$@,\x12e\'\x1d"4@XC\r\xcb4~\x01@\nc\xa97\x8a<\x05@6?\xfcmLJ\xdd?'
p7347
tp7348
ba(lp7349
g21
(g22
(dp7350
g24
g25
(g26
(I0
tp7351
g28
tp7352
Rp7353
(I1
(I6
tp7354
g35
I00
(lp7355
g39
ag40
ag41
ag42
ag43
ag44
atp7356
bsg15
Nstp7357
Rp7358
a(dp7359
g71
(dp7360
g73
g7332
sg74
(lp7361
(dp7362
g77
g78
(I0
I6
I1
tp7363
Rp7364
sg81
g7345
sasstp7365
bsg83
g84
sg15
NsbsF10.0
g7
(g8
g9
Ntp7366
Rp7367
(dp7368
g13
g14
sg16
g7
(g17
g9
Ntp7369
Rp7370
((lp7371
g21
(g22
(dp7372
g24
g25
(g26
(I0
tp7373
g28
tp7374
Rp7375
(I1
(I6
tp7376
g35
I00
(lp7377
g39
ag40
ag41
ag42
ag43
ag44
atp7378
bsg15
Nstp7379
Rp7380
a(lp7381
g25
(g26
(I0
tp7382
g28
tp7383
Rp7384
(I1
(I6
tp7385
g55
I00
S'-R53\x06.\xf2?\x8c\xf5\xb2L<\x1b$@\xaf\xebf\'\x1d"4@-\xdd\x0c\xcb4~\x01@\x0c\xce\xa87\x8a<\x05@\x03{\xfbmLJ\xdd?'
p7386
tp7387
ba(lp7388
g21
(g22
(dp7389
g24
g25
(g26
(I0
tp7390
g28
tp7391
Rp7392
(I1
(I6
tp7393
g35
I00
(lp7394
g39
ag40
ag41
ag42
ag43
ag44
atp7395
bsg15
Nstp7396
Rp7397
a(dp7398
g71
(dp7399
g73
g7371
sg74
(lp7400
(dp7401
g77
g78
(I0
I6
I1
tp7402
Rp7403
sg81
g7384
sasstp7404
bsg83
g84
sg15
NsbsF15.0
g7
(g8
g9
Ntp7405
Rp7406
(dp7407
g13
g14
sg16
g7
(g17
g9
Ntp7408
Rp7409
((lp7410
g21
(g22
(dp7411
g24
g25
(g26
(I0
tp7412
g28
tp7413
Rp7414
(I1
(I6
tp7415
g35
I00
(lp7416
g39
ag40
ag41
ag42
ag43
ag44
atp7417
bsg15
Nstp7418
Rp7419
a(lp7420
g25
(g26
(I0
tp7421
g28
tp7422
Rp7423
(I1
(I6
tp7424
g55
I00
S'"\x95j\xa5\xc7\xc8\xf1?\xb1\x0f\xd8\xc5[1%@n\xa4\x1a\x94\r\x7f2@\xd5\xd4UhL\x12\x03@\x7f`\xcb\xd5\x1f\xfe\x03@\xe2-}|\xe7\xcd\xdc?'
p7425
tp7426
ba(lp7427
g21
(g22
(dp7428
g24
g25
(g26
(I0
tp7429
g28
tp7430
Rp7431
(I1
(I6
tp7432
g35
I00
(lp7433
g39
ag40
ag41
ag42
ag43
ag44
atp7434
bsg15
Nstp7435
Rp7436
a(dp7437
g71
(dp7438
g73
g7410
sg74
(lp7439
(dp7440
g77
g78
(I0
I6
I1
tp7441
Rp7442
sg81
g7423
sasstp7443
bsg83
g84
sg15
NsbsF80.0
g7
(g8
g9
Ntp7444
Rp7445
(dp7446
g13
g14
sg16
g7
(g17
g9
Ntp7447
Rp7448
((lp7449
g21
(g22
(dp7450
g24
g25
(g26
(I0
tp7451
g28
tp7452
Rp7453
(I1
(I6
tp7454
g35
I00
(lp7455
g39
ag40
ag41
ag42
ag43
ag44
atp7456
bsg15
Nstp7457
Rp7458
a(lp7459
g25
(g26
(I0
tp7460
g28
tp7461
Rp7462
(I1
(I6
tp7463
g55
I00
S'\xde$E\x90zl\xf5?\x9bY\\\x18\x81\x15\x1f@\xc0n\xe0\x8d.G-@@\xdd\xa0k\x10S\xfc?k\xbc\xac\x8f[\xa2\x03@\x92\x91\x032\x82\x18\xce?'
p7464
tp7465
ba(lp7466
g21
(g22
(dp7467
g24
g25
(g26
(I0
tp7468
g28
tp7469
Rp7470
(I1
(I6
tp7471
g35
I00
(lp7472
g39
ag40
ag41
ag42
ag43
ag44
atp7473
bsg15
Nstp7474
Rp7475
a(dp7476
g71
(dp7477
g73
g7449
sg74
(lp7478
(dp7479
g77
g78
(I0
I6
I1
tp7480
Rp7481
sg81
g7462
sasstp7482
bsg83
g84
sg15
NsbsF50.0
g7
(g8
g9
Ntp7483
Rp7484
(dp7485
g13
g14
sg16
g7
(g17
g9
Ntp7486
Rp7487
((lp7488
g21
(g22
(dp7489
g24
g25
(g26
(I0
tp7490
g28
tp7491
Rp7492
(I1
(I6
tp7493
g35
I00
(lp7494
g39
ag40
ag41
ag42
ag43
ag44
atp7495
bsg15
Nstp7496
Rp7497
a(lp7498
g25
(g26
(I0
tp7499
g28
tp7500
Rp7501
(I1
(I6
tp7502
g55
I00
S'm\xb6\xc2\xd5|I\xf3?^\xef\xea\xa0\x9e\xa7"@\xedD;\xc9/{0@u\xdc\xd8\xd4\xff@\x01@\xbe0}f\x192\x05@\x89\xdb\x9f\xfc\xca\xed\xd8?'
p7503
tp7504
ba(lp7505
g21
(g22
(dp7506
g24
g25
(g26
(I0
tp7507
g28
tp7508
Rp7509
(I1
(I6
tp7510
g35
I00
(lp7511
g39
ag40
ag41
ag42
ag43
ag44
atp7512
bsg15
Nstp7513
Rp7514
a(dp7515
g71
(dp7516
g73
g7488
sg74
(lp7517
(dp7518
g77
g78
(I0
I6
I1
tp7519
Rp7520
sg81
g7501
sasstp7521
bsg83
g84
sg15
NsbsF20.0
g7
(g8
g9
Ntp7522
Rp7523
(dp7524
g13
g14
sg16
g7
(g17
g9
Ntp7525
Rp7526
((lp7527
g21
(g22
(dp7528
g24
g25
(g26
(I0
tp7529
g28
tp7530
Rp7531
(I1
(I6
tp7532
g35
I00
(lp7533
g39
ag40
ag41
ag42
ag43
ag44
atp7534
bsg15
Nstp7535
Rp7536
a(lp7537
g25
(g26
(I0
tp7538
g28
tp7539
Rp7540
(I1
(I6
tp7541
g55
I00
S';\xef\xbb\x19\x16<\xf2?R\x0e\xeb`\x7f\x15#@\x15\x1a\x80d<\xc80@-;\x93\xef\xecO\x02@\xefx\xfeGdq\x03@\x9e\xae\xd9e\x05\xe2\xd8?'
p7542
tp7543
ba(lp7544
g21
(g22
(dp7545
g24
g25
(g26
(I0
tp7546
g28
tp7547
Rp7548
(I1
(I6
tp7549
g35
I00
(lp7550
g39
ag40
ag41
ag42
ag43
ag44
atp7551
bsg15
Nstp7552
Rp7553
a(dp7554
g71
(dp7555
g73
g7527
sg74
(lp7556
(dp7557
g77
g78
(I0
I6
I1
tp7558
Rp7559
sg81
g7540
sasstp7560
bsg83
g84
sg15
NsbsF90.0
g7
(g8
g9
Ntp7561
Rp7562
(dp7563
g13
g14
sg16
g7
(g17
g9
Ntp7564
Rp7565
((lp7566
g21
(g22
(dp7567
g24
g25
(g26
(I0
tp7568
g28
tp7569
Rp7570
(I1
(I6
tp7571
g35
I00
(lp7572
g39
ag40
ag41
ag42
ag43
ag44
atp7573
bsg15
Nstp7574
Rp7575
a(lp7576
g25
(g26
(I0
tp7577
g28
tp7578
Rp7579
(I1
(I6
tp7580
g55
I00
S'\x7f\xb6\xd7\x9447\xf5?@\xfc\xe0\x03\x94^\x1f@\xb5i\xd2\x01\xc3\x8b-@\xfc\xb9\x83\xee\xc8f\xf8?\x1fw\x97\x04F!\x05@\xb3a\xaes\xc7\xf7\xcb?'
p7581
tp7582
ba(lp7583
g21
(g22
(dp7584
g24
g25
(g26
(I0
tp7585
g28
tp7586
Rp7587
(I1
(I6
tp7588
g35
I00
(lp7589
g39
ag40
ag41
ag42
ag43
ag44
atp7590
bsg15
Nstp7591
Rp7592
a(dp7593
g71
(dp7594
g73
g7566
sg74
(lp7595
(dp7596
g77
g78
(I0
I6
I1
tp7597
Rp7598
sg81
g7579
sasstp7599
bsg83
g84
sg15
NsbsF60.0
g7
(g8
g9
Ntp7600
Rp7601
(dp7602
g13
g14
sg16
g7
(g17
g9
Ntp7603
Rp7604
((lp7605
g21
(g22
(dp7606
g24
g25
(g26
(I0
tp7607
g28
tp7608
Rp7609
(I1
(I6
tp7610
g35
I00
(lp7611
g39
ag40
ag41
ag42
ag43
ag44
atp7612
bsg15
Nstp7613
Rp7614
a(lp7615
g25
(g26
(I0
tp7616
g28
tp7617
Rp7618
(I1
(I6
tp7619
g55
I00
S'\xf5^1j\xe8\x10\xf4?\xeb\xd9\x95y\x90l"@P\x99\xcb\x9d\x1fA0@VB\x11\xc8={\x01@\x8e\xc1\x0bD\xa8G\x04@j\xd14\xad.\xa2\xd5?'
p7620
tp7621
ba(lp7622
g21
(g22
(dp7623
g24
g25
(g26
(I0
tp7624
g28
tp7625
Rp7626
(I1
(I6
tp7627
g35
I00
(lp7628
g39
ag40
ag41
ag42
ag43
ag44
atp7629
bsg15
Nstp7630
Rp7631
a(dp7632
g71
(dp7633
g73
g7605
sg74
(lp7634
(dp7635
g77
g78
(I0
I6
I1
tp7636
Rp7637
sg81
g7618
sasstp7638
bsg83
g84
sg15
NsbsF30.0
g7
(g8
g9
Ntp7639
Rp7640
(dp7641
g13
g14
sg16
g7
(g17
g9
Ntp7642
Rp7643
((lp7644
g21
(g22
(dp7645
g24
g25
(g26
(I0
tp7646
g28
tp7647
Rp7648
(I1
(I6
tp7649
g35
I00
(lp7650
g39
ag40
ag41
ag42
ag43
ag44
atp7651
bsg15
Nstp7652
Rp7653
a(lp7654
g25
(g26
(I0
tp7655
g28
tp7656
Rp7657
(I1
(I6
tp7658
g55
I00
S'F\x18&\xfc\xa6=\xf4?\xb5\x00\xa1\x12\xbf\xd0!@zR\x98\xab\x1c70@0\xd0RH\xb0\xbd\x01@q2\xd2qO\x99\x04@a^\x05\xce\xb7\xca\xd2?'
p7659
tp7660
ba(lp7661
g21
(g22
(dp7662
g24
g25
(g26
(I0
tp7663
g28
tp7664
Rp7665
(I1
(I6
tp7666
g35
I00
(lp7667
g39
ag40
ag41
ag42
ag43
ag44
atp7668
bsg15
Nstp7669
Rp7670
a(dp7671
g71
(dp7672
g73
g7644
sg74
(lp7673
(dp7674
g77
g78
(I0
I6
I1
tp7675
Rp7676
sg81
g7657
sasstp7677
bsg83
g84
sg15
Nsbssg553
(dp7678
F100.0
g7
(g8
g9
Ntp7679
Rp7680
(dp7681
g13
g14
sg16
g7
(g17
g9
Ntp7682
Rp7683
((lp7684
g21
(g22
(dp7685
g24
g25
(g26
(I0
tp7686
g28
tp7687
Rp7688
(I1
(I6
tp7689
g35
I00
(lp7690
g39
ag40
ag41
ag42
ag43
ag44
atp7691
bsg15
Nstp7692
Rp7693
a(lp7694
g25
(g26
(I0
tp7695
g28
tp7696
Rp7697
(I1
(I6
tp7698
g55
I00
S'#\x165\xbc_D\xf5?\x90\xcb<ck\xa3\x16@\x1d\xec\x06\n\x08w/@Uk!H\xc8\x99\xf6?\x06q\xd0E$\xce\x03@\x05\x9c\xf04w:\xd4?'
p7699
tp7700
ba(lp7701
g21
(g22
(dp7702
g24
g25
(g26
(I0
tp7703
g28
tp7704
Rp7705
(I1
(I6
tp7706
g35
I00
(lp7707
g39
ag40
ag41
ag42
ag43
ag44
atp7708
bsg15
Nstp7709
Rp7710
a(dp7711
g71
(dp7712
g73
g7684
sg74
(lp7713
(dp7714
g77
g78
(I0
I6
I1
tp7715
Rp7716
sg81
g7697
sasstp7717
bsg83
g84
sg15
NsbsF70.0
g7
(g8
g9
Ntp7718
Rp7719
(dp7720
g13
g14
sg16
g7
(g17
g9
Ntp7721
Rp7722
((lp7723
g21
(g22
(dp7724
g24
g25
(g26
(I0
tp7725
g28
tp7726
Rp7727
(I1
(I6
tp7728
g35
I00
(lp7729
g39
ag40
ag41
ag42
ag43
ag44
atp7730
bsg15
Nstp7731
Rp7732
a(lp7733
g25
(g26
(I0
tp7734
g28
tp7735
Rp7736
(I1
(I6
tp7737
g55
I00
S'\xec\xef\x02\xfe\xefH\xf6?\xa2\xfd\xbd\xd0\xb2I\x1a@\xdd\rR\x04\xcfR/@\x8bC\x1b\xfd\x83k\xf8?E k\xc0Al\x03@\xee\xfd\xd1#\x1d(\xd3?'
p7738
tp7739
ba(lp7740
g21
(g22
(dp7741
g24
g25
(g26
(I0
tp7742
g28
tp7743
Rp7744
(I1
(I6
tp7745
g35
I00
(lp7746
g39
ag40
ag41
ag42
ag43
ag44
atp7747
bsg15
Nstp7748
Rp7749
a(dp7750
g71
(dp7751
g73
g7723
sg74
(lp7752
(dp7753
g77
g78
(I0
I6
I1
tp7754
Rp7755
sg81
g7736
sasstp7756
bsg83
g84
sg15
NsbsF6.0
g7
(g8
g9
Ntp7757
Rp7758
(dp7759
g13
g14
sg16
g7
(g17
g9
Ntp7760
Rp7761
((lp7762
g21
(g22
(dp7763
g24
g25
(g26
(I0
tp7764
g28
tp7765
Rp7766
(I1
(I6
tp7767
g35
I00
(lp7768
g39
ag40
ag41
ag42
ag43
ag44
atp7769
bsg15
Nstp7770
Rp7771
a(lp7772
g25
(g26
(I0
tp7773
g28
tp7774
Rp7775
(I1
(I6
tp7776
g55
I00
S'N\xcc\xe5+\xcb\xba\x05@\x1a?\xeb\x8a\x95\x80\x1e@C\xeb]\n\xce^7@\xb5\x13\xc2)j9\x02@4\xc1\xe1l-\xa0\x12@\x00\x8a\xf3\x8e\x05\xcc\x06@'
p7777
tp7778
ba(lp7779
g21
(g22
(dp7780
g24
g25
(g26
(I0
tp7781
g28
tp7782
Rp7783
(I1
(I6
tp7784
g35
I00
(lp7785
g39
ag40
ag41
ag42
ag43
ag44
atp7786
bsg15
Nstp7787
Rp7788
a(dp7789
g71
(dp7790
g73
g7762
sg74
(lp7791
(dp7792
g77
g78
(I0
I6
I1
tp7793
Rp7794
sg81
g7775
sasstp7795
bsg83
g84
sg15
NsbsF40.0
g7
(g8
g9
Ntp7796
Rp7797
(dp7798
g13
g14
sg16
g7
(g17
g9
Ntp7799
Rp7800
((lp7801
g21
(g22
(dp7802
g24
g25
(g26
(I0
tp7803
g28
tp7804
Rp7805
(I1
(I6
tp7806
g35
I00
(lp7807
g39
ag40
ag41
ag42
ag43
ag44
atp7808
bsg15
Nstp7809
Rp7810
a(lp7811
g25
(g26
(I0
tp7812
g28
tp7813
Rp7814
(I1
(I6
tp7815
g55
I00
S')6\xfb\xebh\x83\xf6?\xfap\xeb\x94hS\x1a@\xa0PFp\xf4[0@\xc8G\xc4\xa8l\xc8\xfd?\xfa?JCy<\x04@\xae\xdc\x023>\xf5\xd8?'
p7816
tp7817
ba(lp7818
g21
(g22
(dp7819
g24
g25
(g26
(I0
tp7820
g28
tp7821
Rp7822
(I1
(I6
tp7823
g35
I00
(lp7824
g39
ag40
ag41
ag42
ag43
ag44
atp7825
bsg15
Nstp7826
Rp7827
a(dp7828
g71
(dp7829
g73
g7801
sg74
(lp7830
(dp7831
g77
g78
(I0
I6
I1
tp7832
Rp7833
sg81
g7814
sasstp7834
bsg83
g84
sg15
NsbsF9.0
g7
(g8
g9
Ntp7835
Rp7836
(dp7837
g13
g14
sg16
g7
(g17
g9
Ntp7838
Rp7839
((lp7840
g21
(g22
(dp7841
g24
g25
(g26
(I0
tp7842
g28
tp7843
Rp7844
(I1
(I6
tp7845
g35
I00
(lp7846
g39
ag40
ag41
ag42
ag43
ag44
atp7847
bsg15
Nstp7848
Rp7849
a(lp7850
g25
(g26
(I0
tp7851
g28
tp7852
Rp7853
(I1
(I6
tp7854
g55
I00
S'2Y[:\xa4\xd9\x03@\r\x0ez\x94\x1b\x98!@\xa4\x90\x06\x85j\xbd3@j\x05\x04//\x15\x00@5\x07\x01}\xaa\xc6\x0b@`z\x86O\xc1Q\x00@'
p7855
tp7856
ba(lp7857
g21
(g22
(dp7858
g24
g25
(g26
(I0
tp7859
g28
tp7860
Rp7861
(I1
(I6
tp7862
g35
I00
(lp7863
g39
ag40
ag41
ag42
ag43
ag44
atp7864
bsg15
Nstp7865
Rp7866
a(dp7867
g71
(dp7868
g73
g7840
sg74
(lp7869
(dp7870
g77
g78
(I0
I6
I1
tp7871
Rp7872
sg81
g7853
sasstp7873
bsg83
g84
sg15
NsbsF10.0
g7
(g8
g9
Ntp7874
Rp7875
(dp7876
g13
g14
sg16
g7
(g17
g9
Ntp7877
Rp7878
((lp7879
g21
(g22
(dp7880
g24
g25
(g26
(I0
tp7881
g28
tp7882
Rp7883
(I1
(I6
tp7884
g35
I00
(lp7885
g39
ag40
ag41
ag42
ag43
ag44
atp7886
bsg15
Nstp7887
Rp7888
a(lp7889
g25
(g26
(I0
tp7890
g28
tp7891
Rp7892
(I1
(I6
tp7893
g55
I00
S'2Y[:\xa4\xd9\x03@\r\x0ez\x94\x1b\x98!@\xa4\x90\x06\x85j\xbd3@j\x05\x04//\x15\x00@5\x07\x01}\xaa\xc6\x0b@`z\x86O\xc1Q\x00@'
p7894
tp7895
ba(lp7896
g21
(g22
(dp7897
g24
g25
(g26
(I0
tp7898
g28
tp7899
Rp7900
(I1
(I6
tp7901
g35
I00
(lp7902
g39
ag40
ag41
ag42
ag43
ag44
atp7903
bsg15
Nstp7904
Rp7905
a(dp7906
g71
(dp7907
g73
g7879
sg74
(lp7908
(dp7909
g77
g78
(I0
I6
I1
tp7910
Rp7911
sg81
g7892
sasstp7912
bsg83
g84
sg15
NsbsF15.0
g7
(g8
g9
Ntp7913
Rp7914
(dp7915
g13
g14
sg16
g7
(g17
g9
Ntp7916
Rp7917
((lp7918
g21
(g22
(dp7919
g24
g25
(g26
(I0
tp7920
g28
tp7921
Rp7922
(I1
(I6
tp7923
g35
I00
(lp7924
g39
ag40
ag41
ag42
ag43
ag44
atp7925
bsg15
Nstp7926
Rp7927
a(lp7928
g25
(g26
(I0
tp7929
g28
tp7930
Rp7931
(I1
(I6
tp7932
g55
I00
S'\xfe\x87\x1b\x18\x10\x84\xfc?\xa2\xf7~*n\x97\x18@\xba\x16\xee\x96\xb0o2@V\xc1\xf2\xd7|\x15\xfb?\xf2\xee\x12\xfe<\xd2\n@zA)hC\xc2\xea?'
p7933
tp7934
ba(lp7935
g21
(g22
(dp7936
g24
g25
(g26
(I0
tp7937
g28
tp7938
Rp7939
(I1
(I6
tp7940
g35
I00
(lp7941
g39
ag40
ag41
ag42
ag43
ag44
atp7942
bsg15
Nstp7943
Rp7944
a(dp7945
g71
(dp7946
g73
g7918
sg74
(lp7947
(dp7948
g77
g78
(I0
I6
I1
tp7949
Rp7950
sg81
g7931
sasstp7951
bsg83
g84
sg15
NsbsF80.0
g7
(g8
g9
Ntp7952
Rp7953
(dp7954
g13
g14
sg16
g7
(g17
g9
Ntp7955
Rp7956
((lp7957
g21
(g22
(dp7958
g24
g25
(g26
(I0
tp7959
g28
tp7960
Rp7961
(I1
(I6
tp7962
g35
I00
(lp7963
g39
ag40
ag41
ag42
ag43
ag44
atp7964
bsg15
Nstp7965
Rp7966
a(lp7967
g25
(g26
(I0
tp7968
g28
tp7969
Rp7970
(I1
(I6
tp7971
g55
I00
S'S\xac\xf0\xe9\xbb\x97\xf5?Rw(@_\xcb\x19@\x13\x04\xf8\xfb\xdb\xb1/@-l?g\x1f\xe2\xf9?\xf2\xac\x7fJ\xd0k\x03@X8-\x034O\xdb?'
p7972
tp7973
ba(lp7974
g21
(g22
(dp7975
g24
g25
(g26
(I0
tp7976
g28
tp7977
Rp7978
(I1
(I6
tp7979
g35
I00
(lp7980
g39
ag40
ag41
ag42
ag43
ag44
atp7981
bsg15
Nstp7982
Rp7983
a(dp7984
g71
(dp7985
g73
g7957
sg74
(lp7986
(dp7987
g77
g78
(I0
I6
I1
tp7988
Rp7989
sg81
g7970
sasstp7990
bsg83
g84
sg15
NsbsF50.0
g7
(g8
g9
Ntp7991
Rp7992
(dp7993
g13
g14
sg16
g7
(g17
g9
Ntp7994
Rp7995
((lp7996
g21
(g22
(dp7997
g24
g25
(g26
(I0
tp7998
g28
tp7999
Rp8000
(I1
(I6
tp8001
g35
I00
(lp8002
g39
ag40
ag41
ag42
ag43
ag44
atp8003
bsg15
Nstp8004
Rp8005
a(lp8006
g25
(g26
(I0
tp8007
g28
tp8008
Rp8009
(I1
(I6
tp8010
g55
I00
S'`\\B&"5\xf4?J\x02 D!U\x1b@\xc4:\xe1\xb3\xbaJ2@\xeaM9\xa3\xfe\xba\xfb?\xa5\x80.\xbb\t\xf3\x02@\xbaE\xc0\x03\x1bV\xdc?'
p8011
tp8012
ba(lp8013
g21
(g22
(dp8014
g24
g25
(g26
(I0
tp8015
g28
tp8016
Rp8017
(I1
(I6
tp8018
g35
I00
(lp8019
g39
ag40
ag41
ag42
ag43
ag44
atp8020
bsg15
Nstp8021
Rp8022
a(dp8023
g71
(dp8024
g73
g7996
sg74
(lp8025
(dp8026
g77
g78
(I0
I6
I1
tp8027
Rp8028
sg81
g8009
sasstp8029
bsg83
g84
sg15
NsbsF20.0
g7
(g8
g9
Ntp8030
Rp8031
(dp8032
g13
g14
sg16
g7
(g17
g9
Ntp8033
Rp8034
((lp8035
g21
(g22
(dp8036
g24
g25
(g26
(I0
tp8037
g28
tp8038
Rp8039
(I1
(I6
tp8040
g35
I00
(lp8041
g39
ag40
ag41
ag42
ag43
ag44
atp8042
bsg15
Nstp8043
Rp8044
a(lp8045
g25
(g26
(I0
tp8046
g28
tp8047
Rp8048
(I1
(I6
tp8049
g55
I00
S'\xb9\\\x8cs\xd4#\xf8?\x95\x92C=\xe2\xda\x1e@b\x03@/\xc7{1@\xc2\x92\xc73\xe5\xce\xfa?\x007\x00:\xee=\x05@B\xfad\xaa%>\xe1?'
p8050
tp8051
ba(lp8052
g21
(g22
(dp8053
g24
g25
(g26
(I0
tp8054
g28
tp8055
Rp8056
(I1
(I6
tp8057
g35
I00
(lp8058
g39
ag40
ag41
ag42
ag43
ag44
atp8059
bsg15
Nstp8060
Rp8061
a(dp8062
g71
(dp8063
g73
g8035
sg74
(lp8064
(dp8065
g77
g78
(I0
I6
I1
tp8066
Rp8067
sg81
g8048
sasstp8068
bsg83
g84
sg15
NsbsF90.0
g7
(g8
g9
Ntp8069
Rp8070
(dp8071
g13
g14
sg16
g7
(g17
g9
Ntp8072
Rp8073
((lp8074
g21
(g22
(dp8075
g24
g25
(g26
(I0
tp8076
g28
tp8077
Rp8078
(I1
(I6
tp8079
g35
I00
(lp8080
g39
ag40
ag41
ag42
ag43
ag44
atp8081
bsg15
Nstp8082
Rp8083
a(lp8084
g25
(g26
(I0
tp8085
g28
tp8086
Rp8087
(I1
(I6
tp8088
g55
I00
S'\xc1S\xf1\x14\xce\xd6\xf7?\x93\xcd\xf2A\xe3\x16\x18@\x1d6\x02\x87\xdc\\/@\xabh\xd4\x1e\xb2\x8b\xf6?\xb7\xfb\xc5[\xf3\xe6\x03@\xff\xa3\x82\xf1:\xe6\xd6?'
p8089
tp8090
ba(lp8091
g21
(g22
(dp8092
g24
g25
(g26
(I0
tp8093
g28
tp8094
Rp8095
(I1
(I6
tp8096
g35
I00
(lp8097
g39
ag40
ag41
ag42
ag43
ag44
atp8098
bsg15
Nstp8099
Rp8100
a(dp8101
g71
(dp8102
g73
g8074
sg74
(lp8103
(dp8104
g77
g78
(I0
I6
I1
tp8105
Rp8106
sg81
g8087
sasstp8107
bsg83
g84
sg15
NsbsF60.0
g7
(g8
g9
Ntp8108
Rp8109
(dp8110
g13
g14
sg16
g7
(g17
g9
Ntp8111
Rp8112
((lp8113
g21
(g22
(dp8114
g24
g25
(g26
(I0
tp8115
g28
tp8116
Rp8117
(I1
(I6
tp8118
g35
I00
(lp8119
g39
ag40
ag41
ag42
ag43
ag44
atp8120
bsg15
Nstp8121
Rp8122
a(lp8123
g25
(g26
(I0
tp8124
g28
tp8125
Rp8126
(I1
(I6
tp8127
g55
I00
S'\xaej\xae>MU\xf7?e4\x01p\x83\xa3\x1c@~\x9c*\xc6\xa9\x080@\xc7_\xd3R\xc7\x9b\xf8?\x8d\xbc\xf2\x9c\xc9\x03\x03@u4\xd6\x11:<\xd6?'
p8128
tp8129
ba(lp8130
g21
(g22
(dp8131
g24
g25
(g26
(I0
tp8132
g28
tp8133
Rp8134
(I1
(I6
tp8135
g35
I00
(lp8136
g39
ag40
ag41
ag42
ag43
ag44
atp8137
bsg15
Nstp8138
Rp8139
a(dp8140
g71
(dp8141
g73
g8113
sg74
(lp8142
(dp8143
g77
g78
(I0
I6
I1
tp8144
Rp8145
sg81
g8126
sasstp8146
bsg83
g84
sg15
NsbsF30.0
g7
(g8
g9
Ntp8147
Rp8148
(dp8149
g13
g14
sg16
g7
(g17
g9
Ntp8150
Rp8151
((lp8152
g21
(g22
(dp8153
g24
g25
(g26
(I0
tp8154
g28
tp8155
Rp8156
(I1
(I6
tp8157
g35
I00
(lp8158
g39
ag40
ag41
ag42
ag43
ag44
atp8159
bsg15
Nstp8160
Rp8161
a(lp8162
g25
(g26
(I0
tp8163
g28
tp8164
Rp8165
(I1
(I6
tp8166
g55
I00
S"Z\xa2\xcc]\n\x11\xf6?xL\xf4\x15\x04\xec\x1c@\xc8H2L\x17\x800@\xcdg\x93\xce\xf1\x0f\xfd?\xa08\xe9\xeau\xd7\x03@\xd6\x94\xc9Z'\xdd\xde?"
p8167
tp8168
ba(lp8169
g21
(g22
(dp8170
g24
g25
(g26
(I0
tp8171
g28
tp8172
Rp8173
(I1
(I6
tp8174
g35
I00
(lp8175
g39
ag40
ag41
ag42
ag43
ag44
atp8176
bsg15
Nstp8177
Rp8178
a(dp8179
g71
(dp8180
g73
g8152
sg74
(lp8181
(dp8182
g77
g78
(I0
I6
I1
tp8183
Rp8184
sg81
g8165
sasstp8185
bsg83
g84
sg15
Nsbsssss.