(dp0
S'False'
p1
(dp2
S'transfer'
p3
(dp4
F100.0
ccopy_reg
_reconstructor
p5
(cpandas.core.series
Series
p6
c__builtin__
object
p7
Ntp8
Rp9
(dp10
S'_metadata'
p11
(lp12
S'name'
p13
asS'_data'
p14
g5
(cpandas.core.internals
SingleBlockManager
p15
g7
Ntp16
Rp17
((lp18
cpandas.core.indexes.base
_new_Index
p19
(cpandas.core.indexes.base
Index
p20
(dp21
S'data'
p22
cnumpy.core.multiarray
_reconstruct
p23
(cnumpy
ndarray
p24
(I0
tp25
S'b'
p26
tp27
Rp28
(I1
(I6
tp29
cnumpy
dtype
p30
(S'O8'
p31
I0
I1
tp32
Rp33
(I3
S'|'
p34
NNNI-1
I-1
I63
tp35
bI00
(lp36
S'dw'
p37
aS'fridge'
p38
aS'hvac'
p39
aS'mw'
p40
aS'oven'
p41
aS'wm'
p42
atp43
bsg13
Nstp44
Rp45
a(lp46
g23
(g24
(I0
tp47
g26
tp48
Rp49
(I1
(I6
tp50
g30
(S'f8'
p51
I0
I1
tp52
Rp53
(I3
S'<'
p54
NNNI-1
I-1
I0
tp55
bI00
S'\x06@\xca\xa2\xd6U\xfd?\x8e\x95[\x94\x89\xd3\x1f@\xd3\x1b\xae^Y\xe7/@1\xd8\xc1%\xf3\xb4\x00@\x1284\xc9\xf9\xab\x00@k\xb4\x84\xec\xf7\xcf\xe9?'
p56
tp57
ba(lp58
g19
(g20
(dp59
g22
g23
(g24
(I0
tp60
g26
tp61
Rp62
(I1
(I6
tp63
g33
I00
(lp64
g37
ag38
ag39
ag40
ag41
ag42
atp65
bsg13
Nstp66
Rp67
a(dp68
S'0.14.1'
p69
(dp70
S'axes'
p71
g18
sS'blocks'
p72
(lp73
(dp74
S'mgr_locs'
p75
c__builtin__
slice
p76
(I0
I6
I1
tp77
Rp78
sS'values'
p79
g49
sasstp80
bsS'_typ'
p81
S'series'
p82
sg13
NsbsF70.0
g5
(g6
g7
Ntp83
Rp84
(dp85
g11
g12
sg14
g5
(g15
g7
Ntp86
Rp87
((lp88
g19
(g20
(dp89
g22
g23
(g24
(I0
tp90
g26
tp91
Rp92
(I1
(I6
tp93
g33
I00
(lp94
g37
ag38
ag39
ag40
ag41
ag42
atp95
bsg13
Nstp96
Rp97
a(lp98
g23
(g24
(I0
tp99
g26
tp100
Rp101
(I1
(I6
tp102
g53
I00
S'5\xe9!\xd9\x8do\xfd?\x95c\xcac6\xbc\x1f@*\xd7\x0b\x99\xd8\xc30@";\tc\xe5\x9e\x00@\x82\xc1I7\xc4\xbb\x00@`T\x82@g)\xea?'
p103
tp104
ba(lp105
g19
(g20
(dp106
g22
g23
(g24
(I0
tp107
g26
tp108
Rp109
(I1
(I6
tp110
g33
I00
(lp111
g37
ag38
ag39
ag40
ag41
ag42
atp112
bsg13
Nstp113
Rp114
a(dp115
g69
(dp116
g71
g88
sg72
(lp117
(dp118
g75
g76
(I0
I6
I1
tp119
Rp120
sg79
g101
sasstp121
bsg81
g82
sg13
NsbsF6.0
g5
(g6
g7
Ntp122
Rp123
(dp124
g11
g12
sg14
g5
(g15
g7
Ntp125
Rp126
((lp127
g19
(g20
(dp128
g22
g23
(g24
(I0
tp129
g26
tp130
Rp131
(I1
(I6
tp132
g33
I00
(lp133
g37
ag38
ag39
ag40
ag41
ag42
atp134
bsg13
Nstp135
Rp136
a(lp137
g23
(g24
(I0
tp138
g26
tp139
Rp140
(I1
(I6
tp141
g53
I00
S'\xee\xc4\x98HD\xa9\xff?\xf1nA\x9d~\x87#@\x13\xfb\xb4\xc2\xd3\xab5@\xd9\xf1[\x88\xc5\xd5\x01@a\xfbk\xadB\\\x03@r\x1c*f\xdc\xcd\xea?'
p142
tp143
ba(lp144
g19
(g20
(dp145
g22
g23
(g24
(I0
tp146
g26
tp147
Rp148
(I1
(I6
tp149
g33
I00
(lp150
g37
ag38
ag39
ag40
ag41
ag42
atp151
bsg13
Nstp152
Rp153
a(dp154
g69
(dp155
g71
g127
sg72
(lp156
(dp157
g75
g76
(I0
I6
I1
tp158
Rp159
sg79
g140
sasstp160
bsg81
g82
sg13
NsbsF8.0
g5
(g6
g7
Ntp161
Rp162
(dp163
g11
g12
sg14
g5
(g15
g7
Ntp164
Rp165
((lp166
g19
(g20
(dp167
g22
g23
(g24
(I0
tp168
g26
tp169
Rp170
(I1
(I6
tp171
g33
I00
(lp172
g37
ag38
ag39
ag40
ag41
ag42
atp173
bsg13
Nstp174
Rp175
a(lp176
g23
(g24
(I0
tp177
g26
tp178
Rp179
(I1
(I6
tp180
g53
I00
S'\xee\xc4\x98HD\xa9\xff?\xf1nA\x9d~\x87#@\x13\xfb\xb4\xc2\xd3\xab5@\xd9\xf1[\x88\xc5\xd5\x01@a\xfbk\xadB\\\x03@r\x1c*f\xdc\xcd\xea?'
p181
tp182
ba(lp183
g19
(g20
(dp184
g22
g23
(g24
(I0
tp185
g26
tp186
Rp187
(I1
(I6
tp188
g33
I00
(lp189
g37
ag38
ag39
ag40
ag41
ag42
atp190
bsg13
Nstp191
Rp192
a(dp193
g69
(dp194
g71
g166
sg72
(lp195
(dp196
g75
g76
(I0
I6
I1
tp197
Rp198
sg79
g179
sasstp199
bsg81
g82
sg13
NsbsF10.0
g5
(g6
g7
Ntp200
Rp201
(dp202
g11
g12
sg14
g5
(g15
g7
Ntp203
Rp204
((lp205
g19
(g20
(dp206
g22
g23
(g24
(I0
tp207
g26
tp208
Rp209
(I1
(I6
tp210
g33
I00
(lp211
g37
ag38
ag39
ag40
ag41
ag42
atp212
bsg13
Nstp213
Rp214
a(lp215
g23
(g24
(I0
tp216
g26
tp217
Rp218
(I1
(I6
tp219
g53
I00
S'Z\xf7\xf2\xcd\x8bm\xff?\x08\xb50%\xf2P"@m\xc9\xc7\xc7\xff\xed5@\x9a\x90\xa3\x95:N\x01@\xbd\xa1C]w(\x04@\x13|\xb9\x0e\x14F\xe9?'
p220
tp221
ba(lp222
g19
(g20
(dp223
g22
g23
(g24
(I0
tp224
g26
tp225
Rp226
(I1
(I6
tp227
g33
I00
(lp228
g37
ag38
ag39
ag40
ag41
ag42
atp229
bsg13
Nstp230
Rp231
a(dp232
g69
(dp233
g71
g205
sg72
(lp234
(dp235
g75
g76
(I0
I6
I1
tp236
Rp237
sg79
g218
sasstp238
bsg81
g82
sg13
NsbsF15.0
g5
(g6
g7
Ntp239
Rp240
(dp241
g11
g12
sg14
g5
(g15
g7
Ntp242
Rp243
((lp244
g19
(g20
(dp245
g22
g23
(g24
(I0
tp246
g26
tp247
Rp248
(I1
(I6
tp249
g33
I00
(lp250
g37
ag38
ag39
ag40
ag41
ag42
atp251
bsg13
Nstp252
Rp253
a(lp254
g23
(g24
(I0
tp255
g26
tp256
Rp257
(I1
(I6
tp258
g53
I00
S'\xe8\xcb\xd1\x1b\xe9]\xfe?\x9f\x11\xedKeN!@\xb6\x84\xd8\xb6\xfc\xcb2@^\xbcm\x18\xb1e\x01@\xdd\x0f\xd4p2\xbf\x01@v\x17e\xb4F\x07\xeb?'
p259
tp260
ba(lp261
g19
(g20
(dp262
g22
g23
(g24
(I0
tp263
g26
tp264
Rp265
(I1
(I6
tp266
g33
I00
(lp267
g37
ag38
ag39
ag40
ag41
ag42
atp268
bsg13
Nstp269
Rp270
a(dp271
g69
(dp272
g71
g244
sg72
(lp273
(dp274
g75
g76
(I0
I6
I1
tp275
Rp276
sg79
g257
sasstp277
bsg81
g82
sg13
NsbsF80.0
g5
(g6
g7
Ntp278
Rp279
(dp280
g11
g12
sg14
g5
(g15
g7
Ntp281
Rp282
((lp283
g19
(g20
(dp284
g22
g23
(g24
(I0
tp285
g26
tp286
Rp287
(I1
(I6
tp288
g33
I00
(lp289
g37
ag38
ag39
ag40
ag41
ag42
atp290
bsg13
Nstp291
Rp292
a(lp293
g23
(g24
(I0
tp294
g26
tp295
Rp296
(I1
(I6
tp297
g53
I00
S'\nr^\xf4\xfaU\xfd?\xd3\x17Z\xbdv`\x1f@\xdf\x96\xdc\xde\xe3D0@\xc1\x9bi\xa58\x80\x00@%\x17A\xc8\xa2\xa0\x00@#\xc6x\xe2z4\xea?'
p298
tp299
ba(lp300
g19
(g20
(dp301
g22
g23
(g24
(I0
tp302
g26
tp303
Rp304
(I1
(I6
tp305
g33
I00
(lp306
g37
ag38
ag39
ag40
ag41
ag42
atp307
bsg13
Nstp308
Rp309
a(dp310
g69
(dp311
g71
g283
sg72
(lp312
(dp313
g75
g76
(I0
I6
I1
tp314
Rp315
sg79
g296
sasstp316
bsg81
g82
sg13
NsbsF40.0
g5
(g6
g7
Ntp317
Rp318
(dp319
g11
g12
sg14
g5
(g15
g7
Ntp320
Rp321
((lp322
g19
(g20
(dp323
g22
g23
(g24
(I0
tp324
g26
tp325
Rp326
(I1
(I6
tp327
g33
I00
(lp328
g37
ag38
ag39
ag40
ag41
ag42
atp329
bsg13
Nstp330
Rp331
a(lp332
g23
(g24
(I0
tp333
g26
tp334
Rp335
(I1
(I6
tp336
g53
I00
S'X\x05\x8a\x1d\x04\xe5\xfd?q4\xec\xce!G @\xda\x93\xf6\xfa\xc7\xc40@\x16\x072\x1cf\xb4\x00@\x92=\xef\x8b\xff"\x01@\xf0L\x93sf\xaf\xea?'
p337
tp338
ba(lp339
g19
(g20
(dp340
g22
g23
(g24
(I0
tp341
g26
tp342
Rp343
(I1
(I6
tp344
g33
I00
(lp345
g37
ag38
ag39
ag40
ag41
ag42
atp346
bsg13
Nstp347
Rp348
a(dp349
g69
(dp350
g71
g322
sg72
(lp351
(dp352
g75
g76
(I0
I6
I1
tp353
Rp354
sg79
g335
sasstp355
bsg81
g82
sg13
NsbsF50.0
g5
(g6
g7
Ntp356
Rp357
(dp358
g11
g12
sg14
g5
(g15
g7
Ntp359
Rp360
((lp361
g19
(g20
(dp362
g22
g23
(g24
(I0
tp363
g26
tp364
Rp365
(I1
(I6
tp366
g33
I00
(lp367
g37
ag38
ag39
ag40
ag41
ag42
atp368
bsg13
Nstp369
Rp370
a(lp371
g23
(g24
(I0
tp372
g26
tp373
Rp374
(I1
(I6
tp375
g53
I00
S'\x82.\xe2R\x99\xd8\xfd?PQ:&Q\xd6\x1f@\x804\xd6O\xb2\xd50@I\x1e\xb4\xb7R\x95\x00@\xd1\xeay7c|\x00@\xf5M\x9f\xaf\xa0\x8b\xea?'
p376
tp377
ba(lp378
g19
(g20
(dp379
g22
g23
(g24
(I0
tp380
g26
tp381
Rp382
(I1
(I6
tp383
g33
I00
(lp384
g37
ag38
ag39
ag40
ag41
ag42
atp385
bsg13
Nstp386
Rp387
a(dp388
g69
(dp389
g71
g361
sg72
(lp390
(dp391
g75
g76
(I0
I6
I1
tp392
Rp393
sg79
g374
sasstp394
bsg81
g82
sg13
NsbsF20.0
g5
(g6
g7
Ntp395
Rp396
(dp397
g11
g12
sg14
g5
(g15
g7
Ntp398
Rp399
((lp400
g19
(g20
(dp401
g22
g23
(g24
(I0
tp402
g26
tp403
Rp404
(I1
(I6
tp405
g33
I00
(lp406
g37
ag38
ag39
ag40
ag41
ag42
atp407
bsg13
Nstp408
Rp409
a(lp410
g23
(g24
(I0
tp411
g26
tp412
Rp413
(I1
(I6
tp414
g53
I00
S'3^\x1c\xd2(\x1f\xfe?(j\xd1\xd0.\x89 @\x03\x06\xc8\x96\x8a\x891@UK\xb7A\xb6\xf5\x00@cv\xb3w\xa0\xf9\x01@\xb6\x85O\xb5\x88\xc0\xea?'
p415
tp416
ba(lp417
g19
(g20
(dp418
g22
g23
(g24
(I0
tp419
g26
tp420
Rp421
(I1
(I6
tp422
g33
I00
(lp423
g37
ag38
ag39
ag40
ag41
ag42
atp424
bsg13
Nstp425
Rp426
a(dp427
g69
(dp428
g71
g400
sg72
(lp429
(dp430
g75
g76
(I0
I6
I1
tp431
Rp432
sg79
g413
sasstp433
bsg81
g82
sg13
NsbsF90.0
g5
(g6
g7
Ntp434
Rp435
(dp436
g11
g12
sg14
g5
(g15
g7
Ntp437
Rp438
((lp439
g19
(g20
(dp440
g22
g23
(g24
(I0
tp441
g26
tp442
Rp443
(I1
(I6
tp444
g33
I00
(lp445
g37
ag38
ag39
ag40
ag41
ag42
atp446
bsg13
Nstp447
Rp448
a(lp449
g23
(g24
(I0
tp450
g26
tp451
Rp452
(I1
(I6
tp453
g53
I00
S'\xe3\xe1)`\x9b\x8c\xfd?\x18\x96z]\x9b\xcc\x1f@\xe6\xb0\x1b\x9b\xe5$0@n7g>P\xd1\x00@\xae\xa2\x95a\xa5\xaf\x00@\x83\x07\xef\xafh\xbb\xe9?'
p454
tp455
ba(lp456
g19
(g20
(dp457
g22
g23
(g24
(I0
tp458
g26
tp459
Rp460
(I1
(I6
tp461
g33
I00
(lp462
g37
ag38
ag39
ag40
ag41
ag42
atp463
bsg13
Nstp464
Rp465
a(dp466
g69
(dp467
g71
g439
sg72
(lp468
(dp469
g75
g76
(I0
I6
I1
tp470
Rp471
sg79
g452
sasstp472
bsg81
g82
sg13
NsbsF60.0
g5
(g6
g7
Ntp473
Rp474
(dp475
g11
g12
sg14
g5
(g15
g7
Ntp476
Rp477
((lp478
g19
(g20
(dp479
g22
g23
(g24
(I0
tp480
g26
tp481
Rp482
(I1
(I6
tp483
g33
I00
(lp484
g37
ag38
ag39
ag40
ag41
ag42
atp485
bsg13
Nstp486
Rp487
a(lp488
g23
(g24
(I0
tp489
g26
tp490
Rp491
(I1
(I6
tp492
g53
I00
S"\x96P\x992\xc1\xcc\xfd?`\x99\xc6\x9c\xac\xba\x1f@K\xdd\t\xa0\xabw0@\xbczU\x1a+\xb9\x00@\x93\xaf\xee\xcd\xbe\xa7\x00@\xe6z'\x01g\x1d\xea?"
p493
tp494
ba(lp495
g19
(g20
(dp496
g22
g23
(g24
(I0
tp497
g26
tp498
Rp499
(I1
(I6
tp500
g33
I00
(lp501
g37
ag38
ag39
ag40
ag41
ag42
atp502
bsg13
Nstp503
Rp504
a(dp505
g69
(dp506
g71
g478
sg72
(lp507
(dp508
g75
g76
(I0
I6
I1
tp509
Rp510
sg79
g491
sasstp511
bsg81
g82
sg13
NsbsF30.0
g5
(g6
g7
Ntp512
Rp513
(dp514
g11
g12
sg14
g5
(g15
g7
Ntp515
Rp516
((lp517
g19
(g20
(dp518
g22
g23
(g24
(I0
tp519
g26
tp520
Rp521
(I1
(I6
tp522
g33
I00
(lp523
g37
ag38
ag39
ag40
ag41
ag42
atp524
bsg13
Nstp525
Rp526
a(lp527
g23
(g24
(I0
tp528
g26
tp529
Rp530
(I1
(I6
tp531
g53
I00
S'-H\xa3\x03\xc0\x9a\xfd?\xe05\xb8@\xcd\x19 @e\x91\xd1\xa6f\xde0@K\xe0\xf7u\t\xb6\x00@\xe8\x99\xca\x91\xe5\xeb\x00@\xeb\xe8b\n\xce?\xea?'
p532
tp533
ba(lp534
g19
(g20
(dp535
g22
g23
(g24
(I0
tp536
g26
tp537
Rp538
(I1
(I6
tp539
g33
I00
(lp540
g37
ag38
ag39
ag40
ag41
ag42
atp541
bsg13
Nstp542
Rp543
a(dp544
g69
(dp545
g71
g517
sg72
(lp546
(dp547
g75
g76
(I0
I6
I1
tp548
Rp549
sg79
g530
sasstp550
bsg81
g82
sg13
NsbssS'normal'
p551
(dp552
F100.0
g5
(g6
g7
Ntp553
Rp554
(dp555
g11
g12
sg14
g5
(g15
g7
Ntp556
Rp557
((lp558
g19
(g20
(dp559
g22
g23
(g24
(I0
tp560
g26
tp561
Rp562
(I1
(I6
tp563
g33
I00
(lp564
g37
ag38
ag39
ag40
ag41
ag42
atp565
bsg13
Nstp566
Rp567
a(lp568
g23
(g24
(I0
tp569
g26
tp570
Rp571
(I1
(I6
tp572
g53
I00
S'\xbd\x1d\xf7D{\x03\xfe?\xd6\x06\xf2\xe4yj\x1c@\xf9\xc7\xf3\xf6\xe6\x065@P\xf3s;c\xc4\xfd?Q\xa6#\x90\xbav\x00@`\xd3\xe7\xb7G\x1f\xe5?'
p573
tp574
ba(lp575
g19
(g20
(dp576
g22
g23
(g24
(I0
tp577
g26
tp578
Rp579
(I1
(I6
tp580
g33
I00
(lp581
g37
ag38
ag39
ag40
ag41
ag42
atp582
bsg13
Nstp583
Rp584
a(dp585
g69
(dp586
g71
g558
sg72
(lp587
(dp588
g75
g76
(I0
I6
I1
tp589
Rp590
sg79
g571
sasstp591
bsg81
g82
sg13
NsbsF70.0
g5
(g6
g7
Ntp592
Rp593
(dp594
g11
g12
sg14
g5
(g15
g7
Ntp595
Rp596
((lp597
g19
(g20
(dp598
g22
g23
(g24
(I0
tp599
g26
tp600
Rp601
(I1
(I6
tp602
g33
I00
(lp603
g37
ag38
ag39
ag40
ag41
ag42
atp604
bsg13
Nstp605
Rp606
a(lp607
g23
(g24
(I0
tp608
g26
tp609
Rp610
(I1
(I6
tp611
g53
I00
S':\xa2i\r\xa4+\xfe?\x83\xb8\x87\n\x01\xcd\x1b@.\xc3\xbbG\xd8|6@\xe0\x08\xc9\x8c\xa6\x15\xfc?D\x90\xef\xe2\xc3\xdc\x00@\x91\xc6\xc9\xe5e\xbf\xe7?'
p612
tp613
ba(lp614
g19
(g20
(dp615
g22
g23
(g24
(I0
tp616
g26
tp617
Rp618
(I1
(I6
tp619
g33
I00
(lp620
g37
ag38
ag39
ag40
ag41
ag42
atp621
bsg13
Nstp622
Rp623
a(dp624
g69
(dp625
g71
g597
sg72
(lp626
(dp627
g75
g76
(I0
I6
I1
tp628
Rp629
sg79
g610
sasstp630
bsg81
g82
sg13
NsbsF6.0
g5
(g6
g7
Ntp631
Rp632
(dp633
g11
g12
sg14
g5
(g15
g7
Ntp634
Rp635
((lp636
g19
(g20
(dp637
g22
g23
(g24
(I0
tp638
g26
tp639
Rp640
(I1
(I6
tp641
g33
I00
(lp642
g37
ag38
ag39
ag40
ag41
ag42
atp643
bsg13
Nstp644
Rp645
a(lp646
g23
(g24
(I0
tp647
g26
tp648
Rp649
(I1
(I6
tp650
g53
I00
S"\xa2,\xc0\xd1\xb7\xc9\x01@\xd0b'\x9d\x1fC @3\xd4y\xbc\x16\xd4;@u\xea0\xcf\xb2t\x01@\xfd{3I\xd1\xcc\t@\xfdr\x0b\xb0\xbb\xbb\x0c@"
p651
tp652
ba(lp653
g19
(g20
(dp654
g22
g23
(g24
(I0
tp655
g26
tp656
Rp657
(I1
(I6
tp658
g33
I00
(lp659
g37
ag38
ag39
ag40
ag41
ag42
atp660
bsg13
Nstp661
Rp662
a(dp663
g69
(dp664
g71
g636
sg72
(lp665
(dp666
g75
g76
(I0
I6
I1
tp667
Rp668
sg79
g649
sasstp669
bsg81
g82
sg13
NsbsF8.0
g5
(g6
g7
Ntp670
Rp671
(dp672
g11
g12
sg14
g5
(g15
g7
Ntp673
Rp674
((lp675
g19
(g20
(dp676
g22
g23
(g24
(I0
tp677
g26
tp678
Rp679
(I1
(I6
tp680
g33
I00
(lp681
g37
ag38
ag39
ag40
ag41
ag42
atp682
bsg13
Nstp683
Rp684
a(lp685
g23
(g24
(I0
tp686
g26
tp687
Rp688
(I1
(I6
tp689
g53
I00
S"\xa2,\xc0\xd1\xb7\xc9\x01@\xd0b'\x9d\x1fC @3\xd4y\xbc\x16\xd4;@u\xea0\xcf\xb2t\x01@\xfd{3I\xd1\xcc\t@\xfdr\x0b\xb0\xbb\xbb\x0c@"
p690
tp691
ba(lp692
g19
(g20
(dp693
g22
g23
(g24
(I0
tp694
g26
tp695
Rp696
(I1
(I6
tp697
g33
I00
(lp698
g37
ag38
ag39
ag40
ag41
ag42
atp699
bsg13
Nstp700
Rp701
a(dp702
g69
(dp703
g71
g675
sg72
(lp704
(dp705
g75
g76
(I0
I6
I1
tp706
Rp707
sg79
g688
sasstp708
bsg81
g82
sg13
NsbsF10.0
g5
(g6
g7
Ntp709
Rp710
(dp711
g11
g12
sg14
g5
(g15
g7
Ntp712
Rp713
((lp714
g19
(g20
(dp715
g22
g23
(g24
(I0
tp716
g26
tp717
Rp718
(I1
(I6
tp719
g33
I00
(lp720
g37
ag38
ag39
ag40
ag41
ag42
atp721
bsg13
Nstp722
Rp723
a(lp724
g23
(g24
(I0
tp725
g26
tp726
Rp727
(I1
(I6
tp728
g53
I00
S'\xdcI\x94RN\xe3\x02@\xad\xb1l\x84\x83:\x1f@\xbb\x01\x92m\xdb[9@\x1e>^f\xbc\xf3\x00@R_\xc1\x1f\x92\x17\x05@ZpQ\xeb\x8b\xc5\x04@'
p729
tp730
ba(lp731
g19
(g20
(dp732
g22
g23
(g24
(I0
tp733
g26
tp734
Rp735
(I1
(I6
tp736
g33
I00
(lp737
g37
ag38
ag39
ag40
ag41
ag42
atp738
bsg13
Nstp739
Rp740
a(dp741
g69
(dp742
g71
g714
sg72
(lp743
(dp744
g75
g76
(I0
I6
I1
tp745
Rp746
sg79
g727
sasstp747
bsg81
g82
sg13
NsbsF15.0
g5
(g6
g7
Ntp748
Rp749
(dp750
g11
g12
sg14
g5
(g15
g7
Ntp751
Rp752
((lp753
g19
(g20
(dp754
g22
g23
(g24
(I0
tp755
g26
tp756
Rp757
(I1
(I6
tp758
g33
I00
(lp759
g37
ag38
ag39
ag40
ag41
ag42
atp760
bsg13
Nstp761
Rp762
a(lp763
g23
(g24
(I0
tp764
g26
tp765
Rp766
(I1
(I6
tp767
g53
I00
S'\x90P\x9a\x83\x89\xe2\xff?\xfbEg\xf7*\x87 @M\xaf9\xe2}67@\xfb(\xb8\xeb\x14@\xfe?\xa5\x87\xf9\x1f\xc0#\x02@n\xd6\xf7`1\\\xf6?'
p768
tp769
ba(lp770
g19
(g20
(dp771
g22
g23
(g24
(I0
tp772
g26
tp773
Rp774
(I1
(I6
tp775
g33
I00
(lp776
g37
ag38
ag39
ag40
ag41
ag42
atp777
bsg13
Nstp778
Rp779
a(dp780
g69
(dp781
g71
g753
sg72
(lp782
(dp783
g75
g76
(I0
I6
I1
tp784
Rp785
sg79
g766
sasstp786
bsg81
g82
sg13
NsbsF80.0
g5
(g6
g7
Ntp787
Rp788
(dp789
g11
g12
sg14
g5
(g15
g7
Ntp790
Rp791
((lp792
g19
(g20
(dp793
g22
g23
(g24
(I0
tp794
g26
tp795
Rp796
(I1
(I6
tp797
g33
I00
(lp798
g37
ag38
ag39
ag40
ag41
ag42
atp799
bsg13
Nstp800
Rp801
a(lp802
g23
(g24
(I0
tp803
g26
tp804
Rp805
(I1
(I6
tp806
g53
I00
S'\x95\x7f\x1bE\x8bt\xfd?Xy>\x91)\xf7\x1d@\xaa\xef7\xc3\xd8\xf84@\x92y]\x81\xc4\x91\xfc?\xb3,\xb0?\x14k\x00@,\xdb\x86fP\x80\xe4?'
p807
tp808
ba(lp809
g19
(g20
(dp810
g22
g23
(g24
(I0
tp811
g26
tp812
Rp813
(I1
(I6
tp814
g33
I00
(lp815
g37
ag38
ag39
ag40
ag41
ag42
atp816
bsg13
Nstp817
Rp818
a(dp819
g69
(dp820
g71
g792
sg72
(lp821
(dp822
g75
g76
(I0
I6
I1
tp823
Rp824
sg79
g805
sasstp825
bsg81
g82
sg13
NsbsF40.0
g5
(g6
g7
Ntp826
Rp827
(dp828
g11
g12
sg14
g5
(g15
g7
Ntp829
Rp830
((lp831
g19
(g20
(dp832
g22
g23
(g24
(I0
tp833
g26
tp834
Rp835
(I1
(I6
tp836
g33
I00
(lp837
g37
ag38
ag39
ag40
ag41
ag42
atp838
bsg13
Nstp839
Rp840
a(lp841
g23
(g24
(I0
tp842
g26
tp843
Rp844
(I1
(I6
tp845
g53
I00
S'\xc5\x9a\x87\x8aK}\xfe?\xea\x8e\\\xf2P\r\x1e@\x82\xd9\x0f<,Y5@C5\xcfN\x83N\xff?\\\xe0h\x0e\xe3\x80\x01@*\x80\x02\xd5y\xd5\xe9?'
p846
tp847
ba(lp848
g19
(g20
(dp849
g22
g23
(g24
(I0
tp850
g26
tp851
Rp852
(I1
(I6
tp853
g33
I00
(lp854
g37
ag38
ag39
ag40
ag41
ag42
atp855
bsg13
Nstp856
Rp857
a(dp858
g69
(dp859
g71
g831
sg72
(lp860
(dp861
g75
g76
(I0
I6
I1
tp862
Rp863
sg79
g844
sasstp864
bsg81
g82
sg13
NsbsF50.0
g5
(g6
g7
Ntp865
Rp866
(dp867
g11
g12
sg14
g5
(g15
g7
Ntp868
Rp869
((lp870
g19
(g20
(dp871
g22
g23
(g24
(I0
tp872
g26
tp873
Rp874
(I1
(I6
tp875
g33
I00
(lp876
g37
ag38
ag39
ag40
ag41
ag42
atp877
bsg13
Nstp878
Rp879
a(lp880
g23
(g24
(I0
tp881
g26
tp882
Rp883
(I1
(I6
tp884
g53
I00
S'\xdeO\xb6\xdfU\xca\xfe?\xc3,\xf1{/\xbd\x1d@\xfa\x13\x11(\x95r2@- \xe1j\xd5\xe8\xfd?[\x8f\xb0_m\xc7\x01@\xd3\xcb\x1fsz\xd0\xe6?'
p885
tp886
ba(lp887
g19
(g20
(dp888
g22
g23
(g24
(I0
tp889
g26
tp890
Rp891
(I1
(I6
tp892
g33
I00
(lp893
g37
ag38
ag39
ag40
ag41
ag42
atp894
bsg13
Nstp895
Rp896
a(dp897
g69
(dp898
g71
g870
sg72
(lp899
(dp900
g75
g76
(I0
I6
I1
tp901
Rp902
sg79
g883
sasstp903
bsg81
g82
sg13
NsbsF20.0
g5
(g6
g7
Ntp904
Rp905
(dp906
g11
g12
sg14
g5
(g15
g7
Ntp907
Rp908
((lp909
g19
(g20
(dp910
g22
g23
(g24
(I0
tp911
g26
tp912
Rp913
(I1
(I6
tp914
g33
I00
(lp915
g37
ag38
ag39
ag40
ag41
ag42
atp916
bsg13
Nstp917
Rp918
a(lp919
g23
(g24
(I0
tp920
g26
tp921
Rp922
(I1
(I6
tp923
g53
I00
S'^d[cDQ\x00@\x9b\xac\xbb\x90*\xc8\x1c@\x8a\xa0\x85\xbe7\x829@C\x8e\xe4:}D\xfe?\xcd\x12\xd9\x15\x19\n\x01@#_\x1foq;\xf9?'
p924
tp925
ba(lp926
g19
(g20
(dp927
g22
g23
(g24
(I0
tp928
g26
tp929
Rp930
(I1
(I6
tp931
g33
I00
(lp932
g37
ag38
ag39
ag40
ag41
ag42
atp933
bsg13
Nstp934
Rp935
a(dp936
g69
(dp937
g71
g909
sg72
(lp938
(dp939
g75
g76
(I0
I6
I1
tp940
Rp941
sg79
g922
sasstp942
bsg81
g82
sg13
NsbsF90.0
g5
(g6
g7
Ntp943
Rp944
(dp945
g11
g12
sg14
g5
(g15
g7
Ntp946
Rp947
((lp948
g19
(g20
(dp949
g22
g23
(g24
(I0
tp950
g26
tp951
Rp952
(I1
(I6
tp953
g33
I00
(lp954
g37
ag38
ag39
ag40
ag41
ag42
atp955
bsg13
Nstp956
Rp957
a(lp958
g23
(g24
(I0
tp959
g26
tp960
Rp961
(I1
(I6
tp962
g53
I00
S'\x88Mc\x03\x84\xc0\xfd?\xd2\xd0\r\xa0p\xb9\x1d@\xee\xb1N\x0b\x0c\xbe2@\x03\xba\xf9\x98|\xbd\xfc?\xdc\xae\xe3\xb9\xc8Z\x00@\x99>\x1c[&\xf7\xe4?'
p963
tp964
ba(lp965
g19
(g20
(dp966
g22
g23
(g24
(I0
tp967
g26
tp968
Rp969
(I1
(I6
tp970
g33
I00
(lp971
g37
ag38
ag39
ag40
ag41
ag42
atp972
bsg13
Nstp973
Rp974
a(dp975
g69
(dp976
g71
g948
sg72
(lp977
(dp978
g75
g76
(I0
I6
I1
tp979
Rp980
sg79
g961
sasstp981
bsg81
g82
sg13
NsbsF60.0
g5
(g6
g7
Ntp982
Rp983
(dp984
g11
g12
sg14
g5
(g15
g7
Ntp985
Rp986
((lp987
g19
(g20
(dp988
g22
g23
(g24
(I0
tp989
g26
tp990
Rp991
(I1
(I6
tp992
g33
I00
(lp993
g37
ag38
ag39
ag40
ag41
ag42
atp994
bsg13
Nstp995
Rp996
a(lp997
g23
(g24
(I0
tp998
g26
tp999
Rp1000
(I1
(I6
tp1001
g53
I00
S'>\xb8\xe1\xa6\x14\x0e\xfe?\x85L\x96\x0f3\x14\x1c@\x13\xd3*T\xd4P8@&Y\x91\xbd\xe1 \xfd?jF@\xb5\xb0\xed\x00@\xa0\xe7\xb0[\x9f\xb7\xeb?'
p1002
tp1003
ba(lp1004
g19
(g20
(dp1005
g22
g23
(g24
(I0
tp1006
g26
tp1007
Rp1008
(I1
(I6
tp1009
g33
I00
(lp1010
g37
ag38
ag39
ag40
ag41
ag42
atp1011
bsg13
Nstp1012
Rp1013
a(dp1014
g69
(dp1015
g71
g987
sg72
(lp1016
(dp1017
g75
g76
(I0
I6
I1
tp1018
Rp1019
sg79
g1000
sasstp1020
bsg81
g82
sg13
NsbsF30.0
g5
(g6
g7
Ntp1021
Rp1022
(dp1023
g11
g12
sg14
g5
(g15
g7
Ntp1024
Rp1025
((lp1026
g19
(g20
(dp1027
g22
g23
(g24
(I0
tp1028
g26
tp1029
Rp1030
(I1
(I6
tp1031
g33
I00
(lp1032
g37
ag38
ag39
ag40
ag41
ag42
atp1033
bsg13
Nstp1034
Rp1035
a(lp1036
g23
(g24
(I0
tp1037
g26
tp1038
Rp1039
(I1
(I6
tp1040
g53
I00
S'x\xeeP\xb4\xca\x83\xfe?\xfa4\x8f+\xd7\xc5\x1d@\x86\x8b\x11\r\xd6q4@\x13\xf7{&h\xb5\xfe?\xa4\x93\xc7M\x7f0\x01@UW\xe6T\xa5\x06\xea?'
p1041
tp1042
ba(lp1043
g19
(g20
(dp1044
g22
g23
(g24
(I0
tp1045
g26
tp1046
Rp1047
(I1
(I6
tp1048
g33
I00
(lp1049
g37
ag38
ag39
ag40
ag41
ag42
atp1050
bsg13
Nstp1051
Rp1052
a(dp1053
g69
(dp1054
g71
g1026
sg72
(lp1055
(dp1056
g75
g76
(I0
I6
I1
tp1057
Rp1058
sg79
g1039
sasstp1059
bsg81
g82
sg13
Nsbsss.