(dp0
I2
(dp1
S'False'
p2
(dp3
g2
(dp4
S'transfer'
p5
(dp6
F0.0
ccopy_reg
_reconstructor
p7
(cpandas.core.series
Series
p8
c__builtin__
object
p9
Ntp10
Rp11
(dp12
S'_metadata'
p13
(lp14
S'name'
p15
asS'_data'
p16
g7
(cpandas.core.internals
SingleBlockManager
p17
g9
Ntp18
Rp19
((lp20
cpandas.core.indexes.base
_new_Index
p21
(cpandas.core.indexes.base
Index
p22
(dp23
S'data'
p24
cnumpy.core.multiarray
_reconstruct
p25
(cnumpy
ndarray
p26
(I0
tp27
S'b'
p28
tp29
Rp30
(I1
(I6
tp31
cnumpy
dtype
p32
(S'O8'
p33
I0
I1
tp34
Rp35
(I3
S'|'
p36
NNNI-1
I-1
I63
tp37
bI00
(lp38
S'dw'
p39
aS'fridge'
p40
aS'hvac'
p41
aS'mw'
p42
aS'oven'
p43
aS'wm'
p44
atp45
bsg15
Nstp46
Rp47
a(lp48
g25
(g26
(I0
tp49
g28
tp50
Rp51
(I1
(I6
tp52
g32
(S'f8'
p53
I0
I1
tp54
Rp55
(I3
S'<'
p56
NNNI-1
I-1
I0
tp57
bI00
S'\xadw\xc4C%\x8a\x02@\xc1U\xf6\x94Rq&@\x9d\x01B\xaexO4@\x1f\x1e,\x94<\xca\x03@\x90\xe0\xea\xa1@\xf9\x08@\x07\xef\x8ba\x1f\x9c\xf3?'
p58
tp59
ba(lp60
g21
(g22
(dp61
g24
g25
(g26
(I0
tp62
g28
tp63
Rp64
(I1
(I6
tp65
g35
I00
(lp66
g39
ag40
ag41
ag42
ag43
ag44
atp67
bsg15
Nstp68
Rp69
a(dp70
S'0.14.1'
p71
(dp72
S'axes'
p73
g20
sS'blocks'
p74
(lp75
(dp76
S'mgr_locs'
p77
c__builtin__
slice
p78
(I0
I6
I1
tp79
Rp80
sS'values'
p81
g51
sasstp82
bsS'_typ'
p83
S'series'
p84
sg15
NsbsF100.0
g7
(g8
g9
Ntp85
Rp86
(dp87
g13
g14
sg16
g7
(g17
g9
Ntp88
Rp89
((lp90
g21
(g22
(dp91
g24
g25
(g26
(I0
tp92
g28
tp93
Rp94
(I1
(I6
tp95
g35
I00
(lp96
g39
ag40
ag41
ag42
ag43
ag44
atp97
bsg15
Nstp98
Rp99
a(lp100
g25
(g26
(I0
tp101
g28
tp102
Rp103
(I1
(I6
tp104
g55
I00
S'\xca\xf3\xc2\xa0\x05`\xfe?\xe8\xd3\xb7\xce\xecL&@:\xb5O1_\r0@\x1fL\xeb\x99\xa9\xbc\x02@K\xd8\x0e\xfb\x84{\x02@\xcd\xe9\x00\xcb\xce\x92\xef?'
p105
tp106
ba(lp107
g21
(g22
(dp108
g24
g25
(g26
(I0
tp109
g28
tp110
Rp111
(I1
(I6
tp112
g35
I00
(lp113
g39
ag40
ag41
ag42
ag43
ag44
atp114
bsg15
Nstp115
Rp116
a(dp117
g71
(dp118
g73
g90
sg74
(lp119
(dp120
g77
g78
(I0
I6
I1
tp121
Rp122
sg81
g103
sasstp123
bsg83
g84
sg15
NsbsF70.0
g7
(g8
g9
Ntp124
Rp125
(dp126
g13
g14
sg16
g7
(g17
g9
Ntp127
Rp128
((lp129
g21
(g22
(dp130
g24
g25
(g26
(I0
tp131
g28
tp132
Rp133
(I1
(I6
tp134
g35
I00
(lp135
g39
ag40
ag41
ag42
ag43
ag44
atp136
bsg15
Nstp137
Rp138
a(lp139
g25
(g26
(I0
tp140
g28
tp141
Rp142
(I1
(I6
tp143
g55
I00
S'\xce\xe2\xd3c\xca\xfa\xfd?\x9b\x92\xa9\xa7,\x84$@\xec\xefX\x0e\xa0;0@\x1a\x9d\x80\xe0\x10\xbf\x00@a/\xee&lH\x01@P\x1a\x8fWL\x05\xeb?'
p144
tp145
ba(lp146
g21
(g22
(dp147
g24
g25
(g26
(I0
tp148
g28
tp149
Rp150
(I1
(I6
tp151
g35
I00
(lp152
g39
ag40
ag41
ag42
ag43
ag44
atp153
bsg15
Nstp154
Rp155
a(dp156
g71
(dp157
g73
g129
sg74
(lp158
(dp159
g77
g78
(I0
I6
I1
tp160
Rp161
sg81
g142
sasstp162
bsg83
g84
sg15
NsbsF6.0
g7
(g8
g9
Ntp163
Rp164
(dp165
g13
g14
sg16
g7
(g17
g9
Ntp166
Rp167
((lp168
g21
(g22
(dp169
g24
g25
(g26
(I0
tp170
g28
tp171
Rp172
(I1
(I6
tp173
g35
I00
(lp174
g39
ag40
ag41
ag42
ag43
ag44
atp175
bsg15
Nstp176
Rp177
a(lp178
g25
(g26
(I0
tp179
g28
tp180
Rp181
(I1
(I6
tp182
g55
I00
S'Z\xc8\xcc\xd8\x88\xbf\xfe?lk\x82S!\xa6$@2\x03\xe7\x16\xb8\xba4@\x14_\x82d\xfdF\x02@\xe1\xcd1\x9fK\x11\x03@x\xa9\x82E:\xde\xec?'
p183
tp184
ba(lp185
g21
(g22
(dp186
g24
g25
(g26
(I0
tp187
g28
tp188
Rp189
(I1
(I6
tp190
g35
I00
(lp191
g39
ag40
ag41
ag42
ag43
ag44
atp192
bsg15
Nstp193
Rp194
a(dp195
g71
(dp196
g73
g168
sg74
(lp197
(dp198
g77
g78
(I0
I6
I1
tp199
Rp200
sg81
g181
sasstp201
bsg83
g84
sg15
NsbsF7.0
g7
(g8
g9
Ntp202
Rp203
(dp204
g13
g14
sg16
g7
(g17
g9
Ntp205
Rp206
((lp207
g21
(g22
(dp208
g24
g25
(g26
(I0
tp209
g28
tp210
Rp211
(I1
(I6
tp212
g35
I00
(lp213
g39
ag40
ag41
ag42
ag43
ag44
atp214
bsg15
Nstp215
Rp216
a(lp217
g25
(g26
(I0
tp218
g28
tp219
Rp220
(I1
(I6
tp221
g55
I00
S'Z\xc8\xcc\xd8\x88\xbf\xfe?lk\x82S!\xa6$@2\x03\xe7\x16\xb8\xba4@\x14_\x82d\xfdF\x02@\xe1\xcd1\x9fK\x11\x03@x\xa9\x82E:\xde\xec?'
p222
tp223
ba(lp224
g21
(g22
(dp225
g24
g25
(g26
(I0
tp226
g28
tp227
Rp228
(I1
(I6
tp229
g35
I00
(lp230
g39
ag40
ag41
ag42
ag43
ag44
atp231
bsg15
Nstp232
Rp233
a(dp234
g71
(dp235
g73
g207
sg74
(lp236
(dp237
g77
g78
(I0
I6
I1
tp238
Rp239
sg81
g220
sasstp240
bsg83
g84
sg15
NsbsF8.0
g7
(g8
g9
Ntp241
Rp242
(dp243
g13
g14
sg16
g7
(g17
g9
Ntp244
Rp245
((lp246
g21
(g22
(dp247
g24
g25
(g26
(I0
tp248
g28
tp249
Rp250
(I1
(I6
tp251
g35
I00
(lp252
g39
ag40
ag41
ag42
ag43
ag44
atp253
bsg15
Nstp254
Rp255
a(lp256
g25
(g26
(I0
tp257
g28
tp258
Rp259
(I1
(I6
tp260
g55
I00
S'Z\xc8\xcc\xd8\x88\xbf\xfe?lk\x82S!\xa6$@2\x03\xe7\x16\xb8\xba4@\x14_\x82d\xfdF\x02@\xe1\xcd1\x9fK\x11\x03@x\xa9\x82E:\xde\xec?'
p261
tp262
ba(lp263
g21
(g22
(dp264
g24
g25
(g26
(I0
tp265
g28
tp266
Rp267
(I1
(I6
tp268
g35
I00
(lp269
g39
ag40
ag41
ag42
ag43
ag44
atp270
bsg15
Nstp271
Rp272
a(dp273
g71
(dp274
g73
g246
sg74
(lp275
(dp276
g77
g78
(I0
I6
I1
tp277
Rp278
sg81
g259
sasstp279
bsg83
g84
sg15
NsbsF9.0
g7
(g8
g9
Ntp280
Rp281
(dp282
g13
g14
sg16
g7
(g17
g9
Ntp283
Rp284
((lp285
g21
(g22
(dp286
g24
g25
(g26
(I0
tp287
g28
tp288
Rp289
(I1
(I6
tp290
g35
I00
(lp291
g39
ag40
ag41
ag42
ag43
ag44
atp292
bsg15
Nstp293
Rp294
a(lp295
g25
(g26
(I0
tp296
g28
tp297
Rp298
(I1
(I6
tp299
g55
I00
S'\xfaF\x1fY\xd8\x90\xfe?\xba\x18>R*_$@\xddD\xaf\xb3>\xa33@\xe1.\xe2\x075I\x02@Z^+\xb91E\x03@\x8e\x90\xd2\xe6X|\xec?'
p300
tp301
ba(lp302
g21
(g22
(dp303
g24
g25
(g26
(I0
tp304
g28
tp305
Rp306
(I1
(I6
tp307
g35
I00
(lp308
g39
ag40
ag41
ag42
ag43
ag44
atp309
bsg15
Nstp310
Rp311
a(dp312
g71
(dp313
g73
g285
sg74
(lp314
(dp315
g77
g78
(I0
I6
I1
tp316
Rp317
sg81
g298
sasstp318
bsg83
g84
sg15
NsbsF10.0
g7
(g8
g9
Ntp319
Rp320
(dp321
g13
g14
sg16
g7
(g17
g9
Ntp322
Rp323
((lp324
g21
(g22
(dp325
g24
g25
(g26
(I0
tp326
g28
tp327
Rp328
(I1
(I6
tp329
g35
I00
(lp330
g39
ag40
ag41
ag42
ag43
ag44
atp331
bsg15
Nstp332
Rp333
a(lp334
g25
(g26
(I0
tp335
g28
tp336
Rp337
(I1
(I6
tp338
g55
I00
S'\xfaF\x1fY\xd8\x90\xfe?\xba\x18>R*_$@\xddD\xaf\xb3>\xa33@\xe1.\xe2\x075I\x02@Z^+\xb91E\x03@\x8e\x90\xd2\xe6X|\xec?'
p339
tp340
ba(lp341
g21
(g22
(dp342
g24
g25
(g26
(I0
tp343
g28
tp344
Rp345
(I1
(I6
tp346
g35
I00
(lp347
g39
ag40
ag41
ag42
ag43
ag44
atp348
bsg15
Nstp349
Rp350
a(dp351
g71
(dp352
g73
g324
sg74
(lp353
(dp354
g77
g78
(I0
I6
I1
tp355
Rp356
sg81
g337
sasstp357
bsg83
g84
sg15
NsbsF15.0
g7
(g8
g9
Ntp358
Rp359
(dp360
g13
g14
sg16
g7
(g17
g9
Ntp361
Rp362
((lp363
g21
(g22
(dp364
g24
g25
(g26
(I0
tp365
g28
tp366
Rp367
(I1
(I6
tp368
g35
I00
(lp369
g39
ag40
ag41
ag42
ag43
ag44
atp370
bsg15
Nstp371
Rp372
a(lp373
g25
(g26
(I0
tp374
g28
tp375
Rp376
(I1
(I6
tp377
g55
I00
S'\xbe\xf5\xcdpM>\xfe?\xe9\xe0\x18\x17$b#@\xa6\xbb\xad\x95\x12.2@\x9c\x8a\x9f\xe6\x8d\x8b\x01@\t3)\xf9f\xf3\x02@3=f_\x94\xa1\xeb?'
p378
tp379
ba(lp380
g21
(g22
(dp381
g24
g25
(g26
(I0
tp382
g28
tp383
Rp384
(I1
(I6
tp385
g35
I00
(lp386
g39
ag40
ag41
ag42
ag43
ag44
atp387
bsg15
Nstp388
Rp389
a(dp390
g71
(dp391
g73
g363
sg74
(lp392
(dp393
g77
g78
(I0
I6
I1
tp394
Rp395
sg81
g376
sasstp396
bsg83
g84
sg15
NsbsF80.0
g7
(g8
g9
Ntp397
Rp398
(dp399
g13
g14
sg16
g7
(g17
g9
Ntp400
Rp401
((lp402
g21
(g22
(dp403
g24
g25
(g26
(I0
tp404
g28
tp405
Rp406
(I1
(I6
tp407
g35
I00
(lp408
g39
ag40
ag41
ag42
ag43
ag44
atp409
bsg15
Nstp410
Rp411
a(lp412
g25
(g26
(I0
tp413
g28
tp414
Rp415
(I1
(I6
tp416
g55
I00
S'\x92\xb51\xd8\xfc\xc5\xfd?`-\\V\xcd\xfd$@&\xa5^\xa4\x1fK/@\xb9\xc7W6$r\x01@\x8a\xf6QT\x11X\x01@u\x91\x8f\x10\xa5\xfd\xec?'
p417
tp418
ba(lp419
g21
(g22
(dp420
g24
g25
(g26
(I0
tp421
g28
tp422
Rp423
(I1
(I6
tp424
g35
I00
(lp425
g39
ag40
ag41
ag42
ag43
ag44
atp426
bsg15
Nstp427
Rp428
a(dp429
g71
(dp430
g73
g402
sg74
(lp431
(dp432
g77
g78
(I0
I6
I1
tp433
Rp434
sg81
g415
sasstp435
bsg83
g84
sg15
NsbsF40.0
g7
(g8
g9
Ntp436
Rp437
(dp438
g13
g14
sg16
g7
(g17
g9
Ntp439
Rp440
((lp441
g21
(g22
(dp442
g24
g25
(g26
(I0
tp443
g28
tp444
Rp445
(I1
(I6
tp446
g35
I00
(lp447
g39
ag40
ag41
ag42
ag43
ag44
atp448
bsg15
Nstp449
Rp450
a(lp451
g25
(g26
(I0
tp452
g28
tp453
Rp454
(I1
(I6
tp455
g55
I00
S'\xbb\x94\x92c\x94,\xfe?f\x88\xb8\xe1\x81\x9e$@\x17w\x1c\xef\xf6\x171@[\xd23\x901\xa6\x01@x\xdb\x0f\xac\xa4\xda\x01@\x85W\nC\xa3\xcb\xec?'
p456
tp457
ba(lp458
g21
(g22
(dp459
g24
g25
(g26
(I0
tp460
g28
tp461
Rp462
(I1
(I6
tp463
g35
I00
(lp464
g39
ag40
ag41
ag42
ag43
ag44
atp465
bsg15
Nstp466
Rp467
a(dp468
g71
(dp469
g73
g441
sg74
(lp470
(dp471
g77
g78
(I0
I6
I1
tp472
Rp473
sg81
g454
sasstp474
bsg83
g84
sg15
NsbsF50.0
g7
(g8
g9
Ntp475
Rp476
(dp477
g13
g14
sg16
g7
(g17
g9
Ntp478
Rp479
((lp480
g21
(g22
(dp481
g24
g25
(g26
(I0
tp482
g28
tp483
Rp484
(I1
(I6
tp485
g35
I00
(lp486
g39
ag40
ag41
ag42
ag43
ag44
atp487
bsg15
Nstp488
Rp489
a(lp490
g25
(g26
(I0
tp491
g28
tp492
Rp493
(I1
(I6
tp494
g55
I00
S"\n\x8e0\xb4j\xaa\xfd?U\x0c\xef'Z\xc2$@\xf2\xfd2k~80@\xe6\xaa\x0c\xa5\xdeZ\x01@Z\x9bc\xe2\xa4w\x01@\x80u\x19\xa5/\x12\xeb?"
p495
tp496
ba(lp497
g21
(g22
(dp498
g24
g25
(g26
(I0
tp499
g28
tp500
Rp501
(I1
(I6
tp502
g35
I00
(lp503
g39
ag40
ag41
ag42
ag43
ag44
atp504
bsg15
Nstp505
Rp506
a(dp507
g71
(dp508
g73
g480
sg74
(lp509
(dp510
g77
g78
(I0
I6
I1
tp511
Rp512
sg81
g493
sasstp513
bsg83
g84
sg15
NsbsF20.0
g7
(g8
g9
Ntp514
Rp515
(dp516
g13
g14
sg16
g7
(g17
g9
Ntp517
Rp518
((lp519
g21
(g22
(dp520
g24
g25
(g26
(I0
tp521
g28
tp522
Rp523
(I1
(I6
tp524
g35
I00
(lp525
g39
ag40
ag41
ag42
ag43
ag44
atp526
bsg15
Nstp527
Rp528
a(lp529
g25
(g26
(I0
tp530
g28
tp531
Rp532
(I1
(I6
tp533
g55
I00
S'vT\x1b]\x08I\xfe?F?.\\>\x9d$@\xc4\xaf\xaa\x0c\x99\xf61@4\xc6\xaaE\xd7\xbc\x01@ra}=\x10d\x02@\x05\xdf\x91\xa2(\xd9\xeb?'
p534
tp535
ba(lp536
g21
(g22
(dp537
g24
g25
(g26
(I0
tp538
g28
tp539
Rp540
(I1
(I6
tp541
g35
I00
(lp542
g39
ag40
ag41
ag42
ag43
ag44
atp543
bsg15
Nstp544
Rp545
a(dp546
g71
(dp547
g73
g519
sg74
(lp548
(dp549
g77
g78
(I0
I6
I1
tp550
Rp551
sg81
g532
sasstp552
bsg83
g84
sg15
NsbsF90.0
g7
(g8
g9
Ntp553
Rp554
(dp555
g13
g14
sg16
g7
(g17
g9
Ntp556
Rp557
((lp558
g21
(g22
(dp559
g24
g25
(g26
(I0
tp560
g28
tp561
Rp562
(I1
(I6
tp563
g35
I00
(lp564
g39
ag40
ag41
ag42
ag43
ag44
atp565
bsg15
Nstp566
Rp567
a(lp568
g25
(g26
(I0
tp569
g28
tp570
Rp571
(I1
(I6
tp572
g55
I00
S'\xc3&\xa4Fc\xac\xfd?_|\x92\xff\xd5r%@\x8bU\xf0\xc6\x1f\xe4/@du\xfem\x0eQ\x01@\x93|\x8c\xca\xd4\xc3\x01@\xab2q\xe5;P\xea?'
p573
tp574
ba(lp575
g21
(g22
(dp576
g24
g25
(g26
(I0
tp577
g28
tp578
Rp579
(I1
(I6
tp580
g35
I00
(lp581
g39
ag40
ag41
ag42
ag43
ag44
atp582
bsg15
Nstp583
Rp584
a(dp585
g71
(dp586
g73
g558
sg74
(lp587
(dp588
g77
g78
(I0
I6
I1
tp589
Rp590
sg81
g571
sasstp591
bsg83
g84
sg15
NsbsF60.0
g7
(g8
g9
Ntp592
Rp593
(dp594
g13
g14
sg16
g7
(g17
g9
Ntp595
Rp596
((lp597
g21
(g22
(dp598
g24
g25
(g26
(I0
tp599
g28
tp600
Rp601
(I1
(I6
tp602
g35
I00
(lp603
g39
ag40
ag41
ag42
ag43
ag44
atp604
bsg15
Nstp605
Rp606
a(lp607
g25
(g26
(I0
tp608
g28
tp609
Rp610
(I1
(I6
tp611
g55
I00
S'+\xdb\xbe\xd0\xf2\xb2\xfd?\xe1\xba\xd8\xff\x94\xd4$@\xa8\xf8\xfe\x9f2\xed/@\x18\xee\\[\xbb\\\x01@\xf0\xf443\x02\n\x02@\xeef\x15\xf6\xe20\xec?'
p612
tp613
ba(lp614
g21
(g22
(dp615
g24
g25
(g26
(I0
tp616
g28
tp617
Rp618
(I1
(I6
tp619
g35
I00
(lp620
g39
ag40
ag41
ag42
ag43
ag44
atp621
bsg15
Nstp622
Rp623
a(dp624
g71
(dp625
g73
g597
sg74
(lp626
(dp627
g77
g78
(I0
I6
I1
tp628
Rp629
sg81
g610
sasstp630
bsg83
g84
sg15
NsbsF30.0
g7
(g8
g9
Ntp631
Rp632
(dp633
g13
g14
sg16
g7
(g17
g9
Ntp634
Rp635
((lp636
g21
(g22
(dp637
g24
g25
(g26
(I0
tp638
g28
tp639
Rp640
(I1
(I6
tp641
g35
I00
(lp642
g39
ag40
ag41
ag42
ag43
ag44
atp643
bsg15
Nstp644
Rp645
a(lp646
g25
(g26
(I0
tp647
g28
tp648
Rp649
(I1
(I6
tp650
g55
I00
S'\xc6\x99!\xb6I\xe1\xfd?z\x8eqmb\xd6#@\x85\x03n\x0b\x83\xb31@<R\xce<\x1a\x91\x01@*\n\xfd\xf4\x08c\x02@\n\xef\xc6d\x08\xdf\xeb?'
p651
tp652
ba(lp653
g21
(g22
(dp654
g24
g25
(g26
(I0
tp655
g28
tp656
Rp657
(I1
(I6
tp658
g35
I00
(lp659
g39
ag40
ag41
ag42
ag43
ag44
atp660
bsg15
Nstp661
Rp662
a(dp663
g71
(dp664
g73
g636
sg74
(lp665
(dp666
g77
g78
(I0
I6
I1
tp667
Rp668
sg81
g649
sasstp669
bsg83
g84
sg15
NsbssS'normal'
p670
(dp671
F0.0
g7
(g8
g9
Ntp672
Rp673
(dp674
g13
g14
sg16
g7
(g17
g9
Ntp675
Rp676
((lp677
g21
(g22
(dp678
g24
g25
(g26
(I0
tp679
g28
tp680
Rp681
(I1
(I6
tp682
g35
I00
(lp683
g39
ag40
ag41
ag42
ag43
ag44
atp684
bsg15
Nstp685
Rp686
a(lp687
g25
(g26
(I0
tp688
g28
tp689
Rp690
(I1
(I6
tp691
g55
I00
S'*\xb6\xad7\x95S4@\x02\xf2\xd5\x1b\xbe.\x1d@\xe7\x1f\xd7f\xd2\xde3@\x01&^\x88\xc9\xef4@\x97\x8fU\xe0{)1@\xed\xd4!\xd3\xed\xe93@'
p692
tp693
ba(lp694
g21
(g22
(dp695
g24
g25
(g26
(I0
tp696
g28
tp697
Rp698
(I1
(I6
tp699
g35
I00
(lp700
g39
ag40
ag41
ag42
ag43
ag44
atp701
bsg15
Nstp702
Rp703
a(dp704
g71
(dp705
g73
g677
sg74
(lp706
(dp707
g77
g78
(I0
I6
I1
tp708
Rp709
sg81
g690
sasstp710
bsg83
g84
sg15
NsbsF100.0
g7
(g8
g9
Ntp711
Rp712
(dp713
g13
g14
sg16
g7
(g17
g9
Ntp714
Rp715
((lp716
g21
(g22
(dp717
g24
g25
(g26
(I0
tp718
g28
tp719
Rp720
(I1
(I6
tp721
g35
I00
(lp722
g39
ag40
ag41
ag42
ag43
ag44
atp723
bsg15
Nstp724
Rp725
a(lp726
g25
(g26
(I0
tp727
g28
tp728
Rp729
(I1
(I6
tp730
g55
I00
S'\xb3y1\xb3rv\xff?Ps1\xf6\x9d\xa4\x1f@\xb2\xc7\xe1X\xde\x862@^\xfcO\xe5\xb7\xc8\xfd?=Y%\xd5\xb3|\x01@*\x1e\xccy\x05T\xe8?'
p731
tp732
ba(lp733
g21
(g22
(dp734
g24
g25
(g26
(I0
tp735
g28
tp736
Rp737
(I1
(I6
tp738
g35
I00
(lp739
g39
ag40
ag41
ag42
ag43
ag44
atp740
bsg15
Nstp741
Rp742
a(dp743
g71
(dp744
g73
g716
sg74
(lp745
(dp746
g77
g78
(I0
I6
I1
tp747
Rp748
sg81
g729
sasstp749
bsg83
g84
sg15
NsbsF70.0
g7
(g8
g9
Ntp750
Rp751
(dp752
g13
g14
sg16
g7
(g17
g9
Ntp753
Rp754
((lp755
g21
(g22
(dp756
g24
g25
(g26
(I0
tp757
g28
tp758
Rp759
(I1
(I6
tp760
g35
I00
(lp761
g39
ag40
ag41
ag42
ag43
ag44
atp762
bsg15
Nstp763
Rp764
a(lp765
g25
(g26
(I0
tp766
g28
tp767
Rp768
(I1
(I6
tp769
g55
I00
S'n\xec\xd6\x1f\xc6\x92\xff?\x96u0\xfe\xc5\xbf\x1e@6\xb6T.\xb5\xde1@R.\xe1\xec\xd8F\xfd?:\x8d\x15S\xffy\x01@\xa5\xd8O\x97p9\xed?'
p770
tp771
ba(lp772
g21
(g22
(dp773
g24
g25
(g26
(I0
tp774
g28
tp775
Rp776
(I1
(I6
tp777
g35
I00
(lp778
g39
ag40
ag41
ag42
ag43
ag44
atp779
bsg15
Nstp780
Rp781
a(dp782
g71
(dp783
g73
g755
sg74
(lp784
(dp785
g77
g78
(I0
I6
I1
tp786
Rp787
sg81
g768
sasstp788
bsg83
g84
sg15
NsbsF6.0
g7
(g8
g9
Ntp789
Rp790
(dp791
g13
g14
sg16
g7
(g17
g9
Ntp792
Rp793
((lp794
g21
(g22
(dp795
g24
g25
(g26
(I0
tp796
g28
tp797
Rp798
(I1
(I6
tp799
g35
I00
(lp800
g39
ag40
ag41
ag42
ag43
ag44
atp801
bsg15
Nstp802
Rp803
a(lp804
g25
(g26
(I0
tp805
g28
tp806
Rp807
(I1
(I6
tp808
g55
I00
S'\xea\xc4W}\xc1\x01\x04@\xfa<\t\x96\xee[!@%F\rM\xea\xc98@gG\x08Y\x1f\x11\x04@\xab\xfb2\xfe\x85\xef\x14@\x1em\x9e*\xd0\xd7\x19@'
p809
tp810
ba(lp811
g21
(g22
(dp812
g24
g25
(g26
(I0
tp813
g28
tp814
Rp815
(I1
(I6
tp816
g35
I00
(lp817
g39
ag40
ag41
ag42
ag43
ag44
atp818
bsg15
Nstp819
Rp820
a(dp821
g71
(dp822
g73
g794
sg74
(lp823
(dp824
g77
g78
(I0
I6
I1
tp825
Rp826
sg81
g807
sasstp827
bsg83
g84
sg15
NsbsF7.0
g7
(g8
g9
Ntp828
Rp829
(dp830
g13
g14
sg16
g7
(g17
g9
Ntp831
Rp832
((lp833
g21
(g22
(dp834
g24
g25
(g26
(I0
tp835
g28
tp836
Rp837
(I1
(I6
tp838
g35
I00
(lp839
g39
ag40
ag41
ag42
ag43
ag44
atp840
bsg15
Nstp841
Rp842
a(lp843
g25
(g26
(I0
tp844
g28
tp845
Rp846
(I1
(I6
tp847
g55
I00
S'\xea\xc4W}\xc1\x01\x04@\xfa<\t\x96\xee[!@%F\rM\xea\xc98@gG\x08Y\x1f\x11\x04@\xab\xfb2\xfe\x85\xef\x14@\x1em\x9e*\xd0\xd7\x19@'
p848
tp849
ba(lp850
g21
(g22
(dp851
g24
g25
(g26
(I0
tp852
g28
tp853
Rp854
(I1
(I6
tp855
g35
I00
(lp856
g39
ag40
ag41
ag42
ag43
ag44
atp857
bsg15
Nstp858
Rp859
a(dp860
g71
(dp861
g73
g833
sg74
(lp862
(dp863
g77
g78
(I0
I6
I1
tp864
Rp865
sg81
g846
sasstp866
bsg83
g84
sg15
NsbsF8.0
g7
(g8
g9
Ntp867
Rp868
(dp869
g13
g14
sg16
g7
(g17
g9
Ntp870
Rp871
((lp872
g21
(g22
(dp873
g24
g25
(g26
(I0
tp874
g28
tp875
Rp876
(I1
(I6
tp877
g35
I00
(lp878
g39
ag40
ag41
ag42
ag43
ag44
atp879
bsg15
Nstp880
Rp881
a(lp882
g25
(g26
(I0
tp883
g28
tp884
Rp885
(I1
(I6
tp886
g55
I00
S'\xea\xc4W}\xc1\x01\x04@\xfa<\t\x96\xee[!@%F\rM\xea\xc98@gG\x08Y\x1f\x11\x04@\xab\xfb2\xfe\x85\xef\x14@\x1em\x9e*\xd0\xd7\x19@'
p887
tp888
ba(lp889
g21
(g22
(dp890
g24
g25
(g26
(I0
tp891
g28
tp892
Rp893
(I1
(I6
tp894
g35
I00
(lp895
g39
ag40
ag41
ag42
ag43
ag44
atp896
bsg15
Nstp897
Rp898
a(dp899
g71
(dp900
g73
g872
sg74
(lp901
(dp902
g77
g78
(I0
I6
I1
tp903
Rp904
sg81
g885
sasstp905
bsg83
g84
sg15
NsbsF9.0
g7
(g8
g9
Ntp906
Rp907
(dp908
g13
g14
sg16
g7
(g17
g9
Ntp909
Rp910
((lp911
g21
(g22
(dp912
g24
g25
(g26
(I0
tp913
g28
tp914
Rp915
(I1
(I6
tp916
g35
I00
(lp917
g39
ag40
ag41
ag42
ag43
ag44
atp918
bsg15
Nstp919
Rp920
a(lp921
g25
(g26
(I0
tp922
g28
tp923
Rp924
(I1
(I6
tp925
g55
I00
S'1Hh0\xb30\x04@\xde\xe9j\xa3\xd56#@\xed&(\xe6\x99-7@\xf4Qr\xbf64\x05@\xd6\x87\x00\xe3g7\r@\xed2{U6t\x15@'
p926
tp927
ba(lp928
g21
(g22
(dp929
g24
g25
(g26
(I0
tp930
g28
tp931
Rp932
(I1
(I6
tp933
g35
I00
(lp934
g39
ag40
ag41
ag42
ag43
ag44
atp935
bsg15
Nstp936
Rp937
a(dp938
g71
(dp939
g73
g911
sg74
(lp940
(dp941
g77
g78
(I0
I6
I1
tp942
Rp943
sg81
g924
sasstp944
bsg83
g84
sg15
NsbsF10.0
g7
(g8
g9
Ntp945
Rp946
(dp947
g13
g14
sg16
g7
(g17
g9
Ntp948
Rp949
((lp950
g21
(g22
(dp951
g24
g25
(g26
(I0
tp952
g28
tp953
Rp954
(I1
(I6
tp955
g35
I00
(lp956
g39
ag40
ag41
ag42
ag43
ag44
atp957
bsg15
Nstp958
Rp959
a(lp960
g25
(g26
(I0
tp961
g28
tp962
Rp963
(I1
(I6
tp964
g55
I00
S'1Hh0\xb30\x04@\xde\xe9j\xa3\xd56#@\xed&(\xe6\x99-7@\xf4Qr\xbf64\x05@\xd6\x87\x00\xe3g7\r@\xed2{U6t\x15@'
p965
tp966
ba(lp967
g21
(g22
(dp968
g24
g25
(g26
(I0
tp969
g28
tp970
Rp971
(I1
(I6
tp972
g35
I00
(lp973
g39
ag40
ag41
ag42
ag43
ag44
atp974
bsg15
Nstp975
Rp976
a(dp977
g71
(dp978
g73
g950
sg74
(lp979
(dp980
g77
g78
(I0
I6
I1
tp981
Rp982
sg81
g963
sasstp983
bsg83
g84
sg15
NsbsF15.0
g7
(g8
g9
Ntp984
Rp985
(dp986
g13
g14
sg16
g7
(g17
g9
Ntp987
Rp988
((lp989
g21
(g22
(dp990
g24
g25
(g26
(I0
tp991
g28
tp992
Rp993
(I1
(I6
tp994
g35
I00
(lp995
g39
ag40
ag41
ag42
ag43
ag44
atp996
bsg15
Nstp997
Rp998
a(lp999
g25
(g26
(I0
tp1000
g28
tp1001
Rp1002
(I1
(I6
tp1003
g55
I00
S'J\x95M\xfd\x90\x91\x01@J\x1ee@|\xb8!@\xe7\xe0\xa3\x9b5\x1e5@\xc7?\xe3\xa58f\x00@9\r\x9b\x06\x88\x83\x05@\xb5ZJ\xdfU\xc0\xf8?'
p1004
tp1005
ba(lp1006
g21
(g22
(dp1007
g24
g25
(g26
(I0
tp1008
g28
tp1009
Rp1010
(I1
(I6
tp1011
g35
I00
(lp1012
g39
ag40
ag41
ag42
ag43
ag44
atp1013
bsg15
Nstp1014
Rp1015
a(dp1016
g71
(dp1017
g73
g989
sg74
(lp1018
(dp1019
g77
g78
(I0
I6
I1
tp1020
Rp1021
sg81
g1002
sasstp1022
bsg83
g84
sg15
NsbsF80.0
g7
(g8
g9
Ntp1023
Rp1024
(dp1025
g13
g14
sg16
g7
(g17
g9
Ntp1026
Rp1027
((lp1028
g21
(g22
(dp1029
g24
g25
(g26
(I0
tp1030
g28
tp1031
Rp1032
(I1
(I6
tp1033
g35
I00
(lp1034
g39
ag40
ag41
ag42
ag43
ag44
atp1035
bsg15
Nstp1036
Rp1037
a(lp1038
g25
(g26
(I0
tp1039
g28
tp1040
Rp1041
(I1
(I6
tp1042
g55
I00
S'\x95O\xcb\x08,\x13\xff?V\xaa\xcbUMV\x1e@cJx\x8b8\x112@@\x97K\xb1\x1b@\xfc?\xf3\xb4\xd6\xb9\xe4=\x01@\xe5\\ym\xbd_\xee?'
p1043
tp1044
ba(lp1045
g21
(g22
(dp1046
g24
g25
(g26
(I0
tp1047
g28
tp1048
Rp1049
(I1
(I6
tp1050
g35
I00
(lp1051
g39
ag40
ag41
ag42
ag43
ag44
atp1052
bsg15
Nstp1053
Rp1054
a(dp1055
g71
(dp1056
g73
g1028
sg74
(lp1057
(dp1058
g77
g78
(I0
I6
I1
tp1059
Rp1060
sg81
g1041
sasstp1061
bsg83
g84
sg15
NsbsF40.0
g7
(g8
g9
Ntp1062
Rp1063
(dp1064
g13
g14
sg16
g7
(g17
g9
Ntp1065
Rp1066
((lp1067
g21
(g22
(dp1068
g24
g25
(g26
(I0
tp1069
g28
tp1070
Rp1071
(I1
(I6
tp1072
g35
I00
(lp1073
g39
ag40
ag41
ag42
ag43
ag44
atp1074
bsg15
Nstp1075
Rp1076
a(lp1077
g25
(g26
(I0
tp1078
g28
tp1079
Rp1080
(I1
(I6
tp1081
g55
I00
S'\xf2\xf0\xe5P\xa17\x00@\xd20&P\xe8\xfe\x1d@;\x93\x17\x13>\x8f3@0i\xc9\xb2\x97\xb5\xfd?.\xb3\th`\xdf\x01@\x83\xdf\xe4d\xe1\x06\xed?'
p1082
tp1083
ba(lp1084
g21
(g22
(dp1085
g24
g25
(g26
(I0
tp1086
g28
tp1087
Rp1088
(I1
(I6
tp1089
g35
I00
(lp1090
g39
ag40
ag41
ag42
ag43
ag44
atp1091
bsg15
Nstp1092
Rp1093
a(dp1094
g71
(dp1095
g73
g1067
sg74
(lp1096
(dp1097
g77
g78
(I0
I6
I1
tp1098
Rp1099
sg81
g1080
sasstp1100
bsg83
g84
sg15
NsbsF50.0
g7
(g8
g9
Ntp1101
Rp1102
(dp1103
g13
g14
sg16
g7
(g17
g9
Ntp1104
Rp1105
((lp1106
g21
(g22
(dp1107
g24
g25
(g26
(I0
tp1108
g28
tp1109
Rp1110
(I1
(I6
tp1111
g35
I00
(lp1112
g39
ag40
ag41
ag42
ag43
ag44
atp1113
bsg15
Nstp1114
Rp1115
a(lp1116
g25
(g26
(I0
tp1117
g28
tp1118
Rp1119
(I1
(I6
tp1120
g55
I00
S'\x14f`\xb1KM\x00@\x02S9\xd4\x1c\xe1\x1f@\xd0CQ[\xb6\x153@x\xcc2\xdc\x1f\xc8\xfe?\xc8\xd7\x80\xb3\x04S\x02@\xb5g`\r\xd5\xd0\xec?'
p1121
tp1122
ba(lp1123
g21
(g22
(dp1124
g24
g25
(g26
(I0
tp1125
g28
tp1126
Rp1127
(I1
(I6
tp1128
g35
I00
(lp1129
g39
ag40
ag41
ag42
ag43
ag44
atp1130
bsg15
Nstp1131
Rp1132
a(dp1133
g71
(dp1134
g73
g1106
sg74
(lp1135
(dp1136
g77
g78
(I0
I6
I1
tp1137
Rp1138
sg81
g1119
sasstp1139
bsg83
g84
sg15
NsbsF20.0
g7
(g8
g9
Ntp1140
Rp1141
(dp1142
g13
g14
sg16
g7
(g17
g9
Ntp1143
Rp1144
((lp1145
g21
(g22
(dp1146
g24
g25
(g26
(I0
tp1147
g28
tp1148
Rp1149
(I1
(I6
tp1150
g35
I00
(lp1151
g39
ag40
ag41
ag42
ag43
ag44
atp1152
bsg15
Nstp1153
Rp1154
a(lp1155
g25
(g26
(I0
tp1156
g28
tp1157
Rp1158
(I1
(I6
tp1159
g55
I00
S'Bk\x06\x1d\xdd\xd8\x01@\xe2u\xf7\xcc\xae\xe2!@\xad\xe2UQ\xaf?4@\xb3\xd3\xd4>C\xbf\x00@_\xacCw:r\x06@\x18\xc7\x9c]\xc9\x07\xf6?'
p1160
tp1161
ba(lp1162
g21
(g22
(dp1163
g24
g25
(g26
(I0
tp1164
g28
tp1165
Rp1166
(I1
(I6
tp1167
g35
I00
(lp1168
g39
ag40
ag41
ag42
ag43
ag44
atp1169
bsg15
Nstp1170
Rp1171
a(dp1172
g71
(dp1173
g73
g1145
sg74
(lp1174
(dp1175
g77
g78
(I0
I6
I1
tp1176
Rp1177
sg81
g1158
sasstp1178
bsg83
g84
sg15
NsbsF90.0
g7
(g8
g9
Ntp1179
Rp1180
(dp1181
g13
g14
sg16
g7
(g17
g9
Ntp1182
Rp1183
((lp1184
g21
(g22
(dp1185
g24
g25
(g26
(I0
tp1186
g28
tp1187
Rp1188
(I1
(I6
tp1189
g35
I00
(lp1190
g39
ag40
ag41
ag42
ag43
ag44
atp1191
bsg15
Nstp1192
Rp1193
a(lp1194
g25
(g26
(I0
tp1195
g28
tp1196
Rp1197
(I1
(I6
tp1198
g55
I00
S'\x80\xa4\xe3\x071\x00\xff?K\x98\xe2\xd8\xdf9\x1e@&(\x06\xa2\x9a\x012@\x82\xf9@J\x7f\r\xfd?\x08\xfdX\xe0\x0bI\x01@RnV\xf5\xd0\x95\xe7?'
p1199
tp1200
ba(lp1201
g21
(g22
(dp1202
g24
g25
(g26
(I0
tp1203
g28
tp1204
Rp1205
(I1
(I6
tp1206
g35
I00
(lp1207
g39
ag40
ag41
ag42
ag43
ag44
atp1208
bsg15
Nstp1209
Rp1210
a(dp1211
g71
(dp1212
g73
g1184
sg74
(lp1213
(dp1214
g77
g78
(I0
I6
I1
tp1215
Rp1216
sg81
g1197
sasstp1217
bsg83
g84
sg15
NsbsF60.0
g7
(g8
g9
Ntp1218
Rp1219
(dp1220
g13
g14
sg16
g7
(g17
g9
Ntp1221
Rp1222
((lp1223
g21
(g22
(dp1224
g24
g25
(g26
(I0
tp1225
g28
tp1226
Rp1227
(I1
(I6
tp1228
g35
I00
(lp1229
g39
ag40
ag41
ag42
ag43
ag44
atp1230
bsg15
Nstp1231
Rp1232
a(lp1233
g25
(g26
(I0
tp1234
g28
tp1235
Rp1236
(I1
(I6
tp1237
g55
I00
S'\xd2\xf9\x88\xf3;\x10\x00@\xcb\x89\x14\x8f_\x1c\x1e@\xea5\x92\x90\x06\xa72@\xda\xe1\x0b\xbb\x11\x98\xfd?\xe3\x1d\x01\xb5\xcf\xba\x01@ l\xe9\xe5i\x07\xed?'
p1238
tp1239
ba(lp1240
g21
(g22
(dp1241
g24
g25
(g26
(I0
tp1242
g28
tp1243
Rp1244
(I1
(I6
tp1245
g35
I00
(lp1246
g39
ag40
ag41
ag42
ag43
ag44
atp1247
bsg15
Nstp1248
Rp1249
a(dp1250
g71
(dp1251
g73
g1223
sg74
(lp1252
(dp1253
g77
g78
(I0
I6
I1
tp1254
Rp1255
sg81
g1236
sasstp1256
bsg83
g84
sg15
NsbsF30.0
g7
(g8
g9
Ntp1257
Rp1258
(dp1259
g13
g14
sg16
g7
(g17
g9
Ntp1260
Rp1261
((lp1262
g21
(g22
(dp1263
g24
g25
(g26
(I0
tp1264
g28
tp1265
Rp1266
(I1
(I6
tp1267
g35
I00
(lp1268
g39
ag40
ag41
ag42
ag43
ag44
atp1269
bsg15
Nstp1270
Rp1271
a(lp1272
g25
(g26
(I0
tp1273
g28
tp1274
Rp1275
(I1
(I6
tp1276
g55
I00
S'\xab\xba\x002M\xa7\x00@$d\xf0\x81(\xa8 @S\x00\xcb\x07\xf1\x843@r\x7f}\x13O\xdf\xff?\x17O^;\x1a\x05\x04@v\xdf-\xdf\xa1\xf5\xed?'
p1277
tp1278
ba(lp1279
g21
(g22
(dp1280
g24
g25
(g26
(I0
tp1281
g28
tp1282
Rp1283
(I1
(I6
tp1284
g35
I00
(lp1285
g39
ag40
ag41
ag42
ag43
ag44
atp1286
bsg15
Nstp1287
Rp1288
a(dp1289
g71
(dp1290
g73
g1262
sg74
(lp1291
(dp1292
g77
g78
(I0
I6
I1
tp1293
Rp1294
sg81
g1275
sasstp1295
bsg83
g84
sg15
NsbsssS'True'
p1296
(dp1297
g5
(dp1298
F0.0
g7
(g8
g9
Ntp1299
Rp1300
(dp1301
g13
g14
sg16
g7
(g17
g9
Ntp1302
Rp1303
((lp1304
g21
(g22
(dp1305
g24
g25
(g26
(I0
tp1306
g28
tp1307
Rp1308
(I1
(I6
tp1309
g35
I00
(lp1310
g39
ag40
ag41
ag42
ag43
ag44
atp1311
bsg15
Nstp1312
Rp1313
a(lp1314
g25
(g26
(I0
tp1315
g28
tp1316
Rp1317
(I1
(I6
tp1318
g55
I00
S'\xadw\xc4C%\x8a\x02@\xc1U\xf6\x94Rq&@\x9d\x01B\xaexO4@\x1f\x1e,\x94<\xca\x03@\x90\xe0\xea\xa1@\xf9\x08@\x07\xef\x8ba\x1f\x9c\xf3?'
p1319
tp1320
ba(lp1321
g21
(g22
(dp1322
g24
g25
(g26
(I0
tp1323
g28
tp1324
Rp1325
(I1
(I6
tp1326
g35
I00
(lp1327
g39
ag40
ag41
ag42
ag43
ag44
atp1328
bsg15
Nstp1329
Rp1330
a(dp1331
g71
(dp1332
g73
g1304
sg74
(lp1333
(dp1334
g77
g78
(I0
I6
I1
tp1335
Rp1336
sg81
g1317
sasstp1337
bsg83
g84
sg15
NsbsF100.0
g7
(g8
g9
Ntp1338
Rp1339
(dp1340
g13
g14
sg16
g7
(g17
g9
Ntp1341
Rp1342
((lp1343
g21
(g22
(dp1344
g24
g25
(g26
(I0
tp1345
g28
tp1346
Rp1347
(I1
(I6
tp1348
g35
I00
(lp1349
g39
ag40
ag41
ag42
ag43
ag44
atp1350
bsg15
Nstp1351
Rp1352
a(lp1353
g25
(g26
(I0
tp1354
g28
tp1355
Rp1356
(I1
(I6
tp1357
g55
I00
S"%\xcd*G\xab\x8a\xfe?\x87\x9b\x8a\x16'\xf8$@Pwe\x1eiQ0@\xcf\x84S_V\x00\x02@j26\xd1\xa6P\x02@wO\x9d\x19I\xc3\xee?"
p1358
tp1359
ba(lp1360
g21
(g22
(dp1361
g24
g25
(g26
(I0
tp1362
g28
tp1363
Rp1364
(I1
(I6
tp1365
g35
I00
(lp1366
g39
ag40
ag41
ag42
ag43
ag44
atp1367
bsg15
Nstp1368
Rp1369
a(dp1370
g71
(dp1371
g73
g1343
sg74
(lp1372
(dp1373
g77
g78
(I0
I6
I1
tp1374
Rp1375
sg81
g1356
sasstp1376
bsg83
g84
sg15
NsbsF70.0
g7
(g8
g9
Ntp1377
Rp1378
(dp1379
g13
g14
sg16
g7
(g17
g9
Ntp1380
Rp1381
((lp1382
g21
(g22
(dp1383
g24
g25
(g26
(I0
tp1384
g28
tp1385
Rp1386
(I1
(I6
tp1387
g35
I00
(lp1388
g39
ag40
ag41
ag42
ag43
ag44
atp1389
bsg15
Nstp1390
Rp1391
a(lp1392
g25
(g26
(I0
tp1393
g28
tp1394
Rp1395
(I1
(I6
tp1396
g55
I00
S"\xc6\xd9\xdcZ\x05\xda\xfd?hd\tn\xfe\xc5#@\x9f,!KrI1@\x82'\xd4\xd5[\xc8\x00@\xd3\xe0\xd8T\xcad\x01@\x8e\xb3\x84}O0\xeb?"
p1397
tp1398
ba(lp1399
g21
(g22
(dp1400
g24
g25
(g26
(I0
tp1401
g28
tp1402
Rp1403
(I1
(I6
tp1404
g35
I00
(lp1405
g39
ag40
ag41
ag42
ag43
ag44
atp1406
bsg15
Nstp1407
Rp1408
a(dp1409
g71
(dp1410
g73
g1382
sg74
(lp1411
(dp1412
g77
g78
(I0
I6
I1
tp1413
Rp1414
sg81
g1395
sasstp1415
bsg83
g84
sg15
NsbsF6.0
g7
(g8
g9
Ntp1416
Rp1417
(dp1418
g13
g14
sg16
g7
(g17
g9
Ntp1419
Rp1420
((lp1421
g21
(g22
(dp1422
g24
g25
(g26
(I0
tp1423
g28
tp1424
Rp1425
(I1
(I6
tp1426
g35
I00
(lp1427
g39
ag40
ag41
ag42
ag43
ag44
atp1428
bsg15
Nstp1429
Rp1430
a(lp1431
g25
(g26
(I0
tp1432
g28
tp1433
Rp1434
(I1
(I6
tp1435
g55
I00
S'\xdb\xd1\x8eeX\x88\xfe?!_u_W\xed#@e\xdeE\x7fOd5@\x1d\xcb4\x8d\xc0\x19\x02@`\x83\nQ\xac\x14\x03@\xc5\xdc\xe7A\\\xec\xec?'
p1436
tp1437
ba(lp1438
g21
(g22
(dp1439
g24
g25
(g26
(I0
tp1440
g28
tp1441
Rp1442
(I1
(I6
tp1443
g35
I00
(lp1444
g39
ag40
ag41
ag42
ag43
ag44
atp1445
bsg15
Nstp1446
Rp1447
a(dp1448
g71
(dp1449
g73
g1421
sg74
(lp1450
(dp1451
g77
g78
(I0
I6
I1
tp1452
Rp1453
sg81
g1434
sasstp1454
bsg83
g84
sg15
NsbsF7.0
g7
(g8
g9
Ntp1455
Rp1456
(dp1457
g13
g14
sg16
g7
(g17
g9
Ntp1458
Rp1459
((lp1460
g21
(g22
(dp1461
g24
g25
(g26
(I0
tp1462
g28
tp1463
Rp1464
(I1
(I6
tp1465
g35
I00
(lp1466
g39
ag40
ag41
ag42
ag43
ag44
atp1467
bsg15
Nstp1468
Rp1469
a(lp1470
g25
(g26
(I0
tp1471
g28
tp1472
Rp1473
(I1
(I6
tp1474
g55
I00
S'\xd6\xd1\x8eeX\x88\xfe?+_u_W\xed#@R\xdeE\x7fOd5@\x1f\xcb4\x8d\xc0\x19\x02@c\x83\nQ\xac\x14\x03@\xc5\xdc\xe7A\\\xec\xec?'
p1475
tp1476
ba(lp1477
g21
(g22
(dp1478
g24
g25
(g26
(I0
tp1479
g28
tp1480
Rp1481
(I1
(I6
tp1482
g35
I00
(lp1483
g39
ag40
ag41
ag42
ag43
ag44
atp1484
bsg15
Nstp1485
Rp1486
a(dp1487
g71
(dp1488
g73
g1460
sg74
(lp1489
(dp1490
g77
g78
(I0
I6
I1
tp1491
Rp1492
sg81
g1473
sasstp1493
bsg83
g84
sg15
NsbsF8.0
g7
(g8
g9
Ntp1494
Rp1495
(dp1496
g13
g14
sg16
g7
(g17
g9
Ntp1497
Rp1498
((lp1499
g21
(g22
(dp1500
g24
g25
(g26
(I0
tp1501
g28
tp1502
Rp1503
(I1
(I6
tp1504
g35
I00
(lp1505
g39
ag40
ag41
ag42
ag43
ag44
atp1506
bsg15
Nstp1507
Rp1508
a(lp1509
g25
(g26
(I0
tp1510
g28
tp1511
Rp1512
(I1
(I6
tp1513
g55
I00
S'\xd6\xd1\x8eeX\x88\xfe?+_u_W\xed#@R\xdeE\x7fOd5@\x1f\xcb4\x8d\xc0\x19\x02@c\x83\nQ\xac\x14\x03@\xc5\xdc\xe7A\\\xec\xec?'
p1514
tp1515
ba(lp1516
g21
(g22
(dp1517
g24
g25
(g26
(I0
tp1518
g28
tp1519
Rp1520
(I1
(I6
tp1521
g35
I00
(lp1522
g39
ag40
ag41
ag42
ag43
ag44
atp1523
bsg15
Nstp1524
Rp1525
a(dp1526
g71
(dp1527
g73
g1499
sg74
(lp1528
(dp1529
g77
g78
(I0
I6
I1
tp1530
Rp1531
sg81
g1512
sasstp1532
bsg83
g84
sg15
NsbsF9.0
g7
(g8
g9
Ntp1533
Rp1534
(dp1535
g13
g14
sg16
g7
(g17
g9
Ntp1536
Rp1537
((lp1538
g21
(g22
(dp1539
g24
g25
(g26
(I0
tp1540
g28
tp1541
Rp1542
(I1
(I6
tp1543
g35
I00
(lp1544
g39
ag40
ag41
ag42
ag43
ag44
atp1545
bsg15
Nstp1546
Rp1547
a(lp1548
g25
(g26
(I0
tp1549
g28
tp1550
Rp1551
(I1
(I6
tp1552
g55
I00
S'\x05J\x0b?B\xff\xfd?\xba\x80\xb9\x84\xf5\xfd"@\xd5\x00\xbb\xdd`\xbd4@i\xc0\x93\x93\x8d\x19\x02@\xb9\xdd\xe5I\xb8\xee\x02@\x90k\xbe\xc3\x80\x99\xec?'
p1553
tp1554
ba(lp1555
g21
(g22
(dp1556
g24
g25
(g26
(I0
tp1557
g28
tp1558
Rp1559
(I1
(I6
tp1560
g35
I00
(lp1561
g39
ag40
ag41
ag42
ag43
ag44
atp1562
bsg15
Nstp1563
Rp1564
a(dp1565
g71
(dp1566
g73
g1538
sg74
(lp1567
(dp1568
g77
g78
(I0
I6
I1
tp1569
Rp1570
sg81
g1551
sasstp1571
bsg83
g84
sg15
NsbsF10.0
g7
(g8
g9
Ntp1572
Rp1573
(dp1574
g13
g14
sg16
g7
(g17
g9
Ntp1575
Rp1576
((lp1577
g21
(g22
(dp1578
g24
g25
(g26
(I0
tp1579
g28
tp1580
Rp1581
(I1
(I6
tp1582
g35
I00
(lp1583
g39
ag40
ag41
ag42
ag43
ag44
atp1584
bsg15
Nstp1585
Rp1586
a(lp1587
g25
(g26
(I0
tp1588
g28
tp1589
Rp1590
(I1
(I6
tp1591
g55
I00
S'\x05J\x0b?B\xff\xfd?\xba\x80\xb9\x84\xf5\xfd"@\xd5\x00\xbb\xdd`\xbd4@i\xc0\x93\x93\x8d\x19\x02@\xb9\xdd\xe5I\xb8\xee\x02@\x90k\xbe\xc3\x80\x99\xec?'
p1592
tp1593
ba(lp1594
g21
(g22
(dp1595
g24
g25
(g26
(I0
tp1596
g28
tp1597
Rp1598
(I1
(I6
tp1599
g35
I00
(lp1600
g39
ag40
ag41
ag42
ag43
ag44
atp1601
bsg15
Nstp1602
Rp1603
a(dp1604
g71
(dp1605
g73
g1577
sg74
(lp1606
(dp1607
g77
g78
(I0
I6
I1
tp1608
Rp1609
sg81
g1590
sasstp1610
bsg83
g84
sg15
NsbsF15.0
g7
(g8
g9
Ntp1611
Rp1612
(dp1613
g13
g14
sg16
g7
(g17
g9
Ntp1614
Rp1615
((lp1616
g21
(g22
(dp1617
g24
g25
(g26
(I0
tp1618
g28
tp1619
Rp1620
(I1
(I6
tp1621
g35
I00
(lp1622
g39
ag40
ag41
ag42
ag43
ag44
atp1623
bsg15
Nstp1624
Rp1625
a(lp1626
g25
(g26
(I0
tp1627
g28
tp1628
Rp1629
(I1
(I6
tp1630
g55
I00
S'\xc8\x1f\xa7\x88\xceP\xfe?\xaa\x91\xca\xb7\x0e)#@\xbf1\xe5 ze2@\xcb\x8f\x1b\xb1a\x82\x01@\x8c]\xd3\x18\x1c*\x03@\xf0f\xbc\x17\x7f\x01\xec?'
p1631
tp1632
ba(lp1633
g21
(g22
(dp1634
g24
g25
(g26
(I0
tp1635
g28
tp1636
Rp1637
(I1
(I6
tp1638
g35
I00
(lp1639
g39
ag40
ag41
ag42
ag43
ag44
atp1640
bsg15
Nstp1641
Rp1642
a(dp1643
g71
(dp1644
g73
g1616
sg74
(lp1645
(dp1646
g77
g78
(I0
I6
I1
tp1647
Rp1648
sg81
g1629
sasstp1649
bsg83
g84
sg15
NsbsF80.0
g7
(g8
g9
Ntp1650
Rp1651
(dp1652
g13
g14
sg16
g7
(g17
g9
Ntp1653
Rp1654
((lp1655
g21
(g22
(dp1656
g24
g25
(g26
(I0
tp1657
g28
tp1658
Rp1659
(I1
(I6
tp1660
g35
I00
(lp1661
g39
ag40
ag41
ag42
ag43
ag44
atp1662
bsg15
Nstp1663
Rp1664
a(lp1665
g25
(g26
(I0
tp1666
g28
tp1667
Rp1668
(I1
(I6
tp1669
g55
I00
S'\xd3/M[\xb0\xe6\xfd?\xcc\x8fk\x90w\xbb$@\xe7|;N\xe1\xab0@\x8d\x1d\x12\xe6Ya\x01@k\x00\x12F\xb1R\x01@\xdd!\x97\xa6%\xad\xeb?'
p1670
tp1671
ba(lp1672
g21
(g22
(dp1673
g24
g25
(g26
(I0
tp1674
g28
tp1675
Rp1676
(I1
(I6
tp1677
g35
I00
(lp1678
g39
ag40
ag41
ag42
ag43
ag44
atp1679
bsg15
Nstp1680
Rp1681
a(dp1682
g71
(dp1683
g73
g1655
sg74
(lp1684
(dp1685
g77
g78
(I0
I6
I1
tp1686
Rp1687
sg81
g1668
sasstp1688
bsg83
g84
sg15
NsbsF40.0
g7
(g8
g9
Ntp1689
Rp1690
(dp1691
g13
g14
sg16
g7
(g17
g9
Ntp1692
Rp1693
((lp1694
g21
(g22
(dp1695
g24
g25
(g26
(I0
tp1696
g28
tp1697
Rp1698
(I1
(I6
tp1699
g35
I00
(lp1700
g39
ag40
ag41
ag42
ag43
ag44
atp1701
bsg15
Nstp1702
Rp1703
a(lp1704
g25
(g26
(I0
tp1705
g28
tp1706
Rp1707
(I1
(I6
tp1708
g55
I00
S'(\\\xae\xfc3\xad\xfd?\x02\xaf\xcdv`\xeb#@\x92\xc4o\xef/\x041@S\xf6\xbf\x16\x91\xa8\x01@NR\x91\xa8n#\x02@"Hm\x1f\x1c\xf4\xeb?'
p1709
tp1710
ba(lp1711
g21
(g22
(dp1712
g24
g25
(g26
(I0
tp1713
g28
tp1714
Rp1715
(I1
(I6
tp1716
g35
I00
(lp1717
g39
ag40
ag41
ag42
ag43
ag44
atp1718
bsg15
Nstp1719
Rp1720
a(dp1721
g71
(dp1722
g73
g1694
sg74
(lp1723
(dp1724
g77
g78
(I0
I6
I1
tp1725
Rp1726
sg81
g1707
sasstp1727
bsg83
g84
sg15
NsbsF50.0
g7
(g8
g9
Ntp1728
Rp1729
(dp1730
g13
g14
sg16
g7
(g17
g9
Ntp1731
Rp1732
((lp1733
g21
(g22
(dp1734
g24
g25
(g26
(I0
tp1735
g28
tp1736
Rp1737
(I1
(I6
tp1738
g35
I00
(lp1739
g39
ag40
ag41
ag42
ag43
ag44
atp1740
bsg15
Nstp1741
Rp1742
a(lp1743
g25
(g26
(I0
tp1744
g28
tp1745
Rp1746
(I1
(I6
tp1747
g55
I00
S"0}k\xe0{\xda\xfd?>\xc5\x14\xebPw#@\x02-\xaa\x9ff\xd70@\xc2y\x14\xd6\x16'\x01@\xa0\xbe\xe6 \x13\x8f\x01@\xd2\x06S\xd4\xdf\xf9\xeb?"
p1748
tp1749
ba(lp1750
g21
(g22
(dp1751
g24
g25
(g26
(I0
tp1752
g28
tp1753
Rp1754
(I1
(I6
tp1755
g35
I00
(lp1756
g39
ag40
ag41
ag42
ag43
ag44
atp1757
bsg15
Nstp1758
Rp1759
a(dp1760
g71
(dp1761
g73
g1733
sg74
(lp1762
(dp1763
g77
g78
(I0
I6
I1
tp1764
Rp1765
sg81
g1746
sasstp1766
bsg83
g84
sg15
NsbsF20.0
g7
(g8
g9
Ntp1767
Rp1768
(dp1769
g13
g14
sg16
g7
(g17
g9
Ntp1770
Rp1771
((lp1772
g21
(g22
(dp1773
g24
g25
(g26
(I0
tp1774
g28
tp1775
Rp1776
(I1
(I6
tp1777
g35
I00
(lp1778
g39
ag40
ag41
ag42
ag43
ag44
atp1779
bsg15
Nstp1780
Rp1781
a(lp1782
g25
(g26
(I0
tp1783
g28
tp1784
Rp1785
(I1
(I6
tp1786
g55
I00
S"\xb3\x0e\xc4\xbb\t?\xfe?\xd9\xcay\xcfg\x1a$@\xfe\x84\xef\x9d'\x912@d\xb7_\xb3E\x96\x01@Mo5\xbb\x19\xb9\x02@\xf8\xd0\xb7\xd2\x94\x8d\xec?"
p1787
tp1788
ba(lp1789
g21
(g22
(dp1790
g24
g25
(g26
(I0
tp1791
g28
tp1792
Rp1793
(I1
(I6
tp1794
g35
I00
(lp1795
g39
ag40
ag41
ag42
ag43
ag44
atp1796
bsg15
Nstp1797
Rp1798
a(dp1799
g71
(dp1800
g73
g1772
sg74
(lp1801
(dp1802
g77
g78
(I0
I6
I1
tp1803
Rp1804
sg81
g1785
sasstp1805
bsg83
g84
sg15
NsbsF90.0
g7
(g8
g9
Ntp1806
Rp1807
(dp1808
g13
g14
sg16
g7
(g17
g9
Ntp1809
Rp1810
((lp1811
g21
(g22
(dp1812
g24
g25
(g26
(I0
tp1813
g28
tp1814
Rp1815
(I1
(I6
tp1816
g35
I00
(lp1817
g39
ag40
ag41
ag42
ag43
ag44
atp1818
bsg15
Nstp1819
Rp1820
a(lp1821
g25
(g26
(I0
tp1822
g28
tp1823
Rp1824
(I1
(I6
tp1825
g55
I00
S'"\xe2\'\xa6\t\xbb\xfd?\xb3\xeco\xd9\xfb.%@\xb9\x11\x87^\x13\xd90@\x9c:\x80lE8\x01@\x1e\xff\xd33\xa9\xbd\x01@\xc8\xb5\xf7\x853d\xea?'
p1826
tp1827
ba(lp1828
g21
(g22
(dp1829
g24
g25
(g26
(I0
tp1830
g28
tp1831
Rp1832
(I1
(I6
tp1833
g35
I00
(lp1834
g39
ag40
ag41
ag42
ag43
ag44
atp1835
bsg15
Nstp1836
Rp1837
a(dp1838
g71
(dp1839
g73
g1811
sg74
(lp1840
(dp1841
g77
g78
(I0
I6
I1
tp1842
Rp1843
sg81
g1824
sasstp1844
bsg83
g84
sg15
NsbsF60.0
g7
(g8
g9
Ntp1845
Rp1846
(dp1847
g13
g14
sg16
g7
(g17
g9
Ntp1848
Rp1849
((lp1850
g21
(g22
(dp1851
g24
g25
(g26
(I0
tp1852
g28
tp1853
Rp1854
(I1
(I6
tp1855
g35
I00
(lp1856
g39
ag40
ag41
ag42
ag43
ag44
atp1857
bsg15
Nstp1858
Rp1859
a(lp1860
g25
(g26
(I0
tp1861
g28
tp1862
Rp1863
(I1
(I6
tp1864
g55
I00
S'S\x1b\xb7,\xc8\xce\xfd?\xca\x0b\xc1\x1e3\xb7#@~?\xad\xc3\xb6\xbf0@\x99F\xa1B\xc6\x1c\x01@\x0e3\x8b\xc9\xbc#\x02@\xad\xa35\xa8\x84s\xeb?'
p1865
tp1866
ba(lp1867
g21
(g22
(dp1868
g24
g25
(g26
(I0
tp1869
g28
tp1870
Rp1871
(I1
(I6
tp1872
g35
I00
(lp1873
g39
ag40
ag41
ag42
ag43
ag44
atp1874
bsg15
Nstp1875
Rp1876
a(dp1877
g71
(dp1878
g73
g1850
sg74
(lp1879
(dp1880
g77
g78
(I0
I6
I1
tp1881
Rp1882
sg81
g1863
sasstp1883
bsg83
g84
sg15
NsbsF30.0
g7
(g8
g9
Ntp1884
Rp1885
(dp1886
g13
g14
sg16
g7
(g17
g9
Ntp1887
Rp1888
((lp1889
g21
(g22
(dp1890
g24
g25
(g26
(I0
tp1891
g28
tp1892
Rp1893
(I1
(I6
tp1894
g35
I00
(lp1895
g39
ag40
ag41
ag42
ag43
ag44
atp1896
bsg15
Nstp1897
Rp1898
a(lp1899
g25
(g26
(I0
tp1900
g28
tp1901
Rp1902
(I1
(I6
tp1903
g55
I00
S'\xa3\xd3\xaa4\xb3\xe1\xfd?\xb2\xb3&\x9d\xcf\xbe#@\nd%\xd9\xab\xde1@\x95_\xb7\x94)p\x01@q\x0c\xa8\x89}\xef\x02@\xb6rM\xb0^8\xec?'
p1904
tp1905
ba(lp1906
g21
(g22
(dp1907
g24
g25
(g26
(I0
tp1908
g28
tp1909
Rp1910
(I1
(I6
tp1911
g35
I00
(lp1912
g39
ag40
ag41
ag42
ag43
ag44
atp1913
bsg15
Nstp1914
Rp1915
a(dp1916
g71
(dp1917
g73
g1889
sg74
(lp1918
(dp1919
g77
g78
(I0
I6
I1
tp1920
Rp1921
sg81
g1902
sasstp1922
bsg83
g84
sg15
Nsbssg670
(dp1923
F0.0
g7
(g8
g9
Ntp1924
Rp1925
(dp1926
g13
g14
sg16
g7
(g17
g9
Ntp1927
Rp1928
((lp1929
g21
(g22
(dp1930
g24
g25
(g26
(I0
tp1931
g28
tp1932
Rp1933
(I1
(I6
tp1934
g35
I00
(lp1935
g39
ag40
ag41
ag42
ag43
ag44
atp1936
bsg15
Nstp1937
Rp1938
a(lp1939
g25
(g26
(I0
tp1940
g28
tp1941
Rp1942
(I1
(I6
tp1943
g55
I00
S'*\xb6\xad7\x95S4@\x02\xf2\xd5\x1b\xbe.\x1d@\xe7\x1f\xd7f\xd2\xde3@\x01&^\x88\xc9\xef4@\x97\x8fU\xe0{)1@\xed\xd4!\xd3\xed\xe93@'
p1944
tp1945
ba(lp1946
g21
(g22
(dp1947
g24
g25
(g26
(I0
tp1948
g28
tp1949
Rp1950
(I1
(I6
tp1951
g35
I00
(lp1952
g39
ag40
ag41
ag42
ag43
ag44
atp1953
bsg15
Nstp1954
Rp1955
a(dp1956
g71
(dp1957
g73
g1929
sg74
(lp1958
(dp1959
g77
g78
(I0
I6
I1
tp1960
Rp1961
sg81
g1942
sasstp1962
bsg83
g84
sg15
NsbsF100.0
g7
(g8
g9
Ntp1963
Rp1964
(dp1965
g13
g14
sg16
g7
(g17
g9
Ntp1966
Rp1967
((lp1968
g21
(g22
(dp1969
g24
g25
(g26
(I0
tp1970
g28
tp1971
Rp1972
(I1
(I6
tp1973
g35
I00
(lp1974
g39
ag40
ag41
ag42
ag43
ag44
atp1975
bsg15
Nstp1976
Rp1977
a(lp1978
g25
(g26
(I0
tp1979
g28
tp1980
Rp1981
(I1
(I6
tp1982
g55
I00
S'\x8bet\x06W,\xff?v\xf4\x93\x7f\xdb\x0f\x1f@\x88d\x04_\xa9f4@\xbb\xcd\xb5\xe6\xb4\x0f\xfd?)\x17\xe0\x9c\xbb\x92\x01@\xce\x94r\n\x1f;\xe7?'
p1983
tp1984
ba(lp1985
g21
(g22
(dp1986
g24
g25
(g26
(I0
tp1987
g28
tp1988
Rp1989
(I1
(I6
tp1990
g35
I00
(lp1991
g39
ag40
ag41
ag42
ag43
ag44
atp1992
bsg15
Nstp1993
Rp1994
a(dp1995
g71
(dp1996
g73
g1968
sg74
(lp1997
(dp1998
g77
g78
(I0
I6
I1
tp1999
Rp2000
sg81
g1981
sasstp2001
bsg83
g84
sg15
NsbsF70.0
g7
(g8
g9
Ntp2002
Rp2003
(dp2004
g13
g14
sg16
g7
(g17
g9
Ntp2005
Rp2006
((lp2007
g21
(g22
(dp2008
g24
g25
(g26
(I0
tp2009
g28
tp2010
Rp2011
(I1
(I6
tp2012
g35
I00
(lp2013
g39
ag40
ag41
ag42
ag43
ag44
atp2014
bsg15
Nstp2015
Rp2016
a(lp2017
g25
(g26
(I0
tp2018
g28
tp2019
Rp2020
(I1
(I6
tp2021
g55
I00
S'"\xc0c\x98,\x0f\x00@\xfa\x12\xe8w\xec\xaf\x1e@\xd1:2V\x17f3@\x16\x88\x84`\xc1\xdf\xfd?\x184E\xa6\xe1\xcc\x01@{\x14\xa5\xb0\x9a\x8d\xec?'
p2022
tp2023
ba(lp2024
g21
(g22
(dp2025
g24
g25
(g26
(I0
tp2026
g28
tp2027
Rp2028
(I1
(I6
tp2029
g35
I00
(lp2030
g39
ag40
ag41
ag42
ag43
ag44
atp2031
bsg15
Nstp2032
Rp2033
a(dp2034
g71
(dp2035
g73
g2007
sg74
(lp2036
(dp2037
g77
g78
(I0
I6
I1
tp2038
Rp2039
sg81
g2020
sasstp2040
bsg83
g84
sg15
NsbsF6.0
g7
(g8
g9
Ntp2041
Rp2042
(dp2043
g13
g14
sg16
g7
(g17
g9
Ntp2044
Rp2045
((lp2046
g21
(g22
(dp2047
g24
g25
(g26
(I0
tp2048
g28
tp2049
Rp2050
(I1
(I6
tp2051
g35
I00
(lp2052
g39
ag40
ag41
ag42
ag43
ag44
atp2053
bsg15
Nstp2054
Rp2055
a(lp2056
g25
(g26
(I0
tp2057
g28
tp2058
Rp2059
(I1
(I6
tp2060
g55
I00
S'\xea\xc4W}\xc1\x01\x04@\xfa<\t\x96\xee[!@%F\rM\xea\xc98@gG\x08Y\x1f\x11\x04@\xab\xfb2\xfe\x85\xef\x14@\x1em\x9e*\xd0\xd7\x19@'
p2061
tp2062
ba(lp2063
g21
(g22
(dp2064
g24
g25
(g26
(I0
tp2065
g28
tp2066
Rp2067
(I1
(I6
tp2068
g35
I00
(lp2069
g39
ag40
ag41
ag42
ag43
ag44
atp2070
bsg15
Nstp2071
Rp2072
a(dp2073
g71
(dp2074
g73
g2046
sg74
(lp2075
(dp2076
g77
g78
(I0
I6
I1
tp2077
Rp2078
sg81
g2059
sasstp2079
bsg83
g84
sg15
NsbsF7.0
g7
(g8
g9
Ntp2080
Rp2081
(dp2082
g13
g14
sg16
g7
(g17
g9
Ntp2083
Rp2084
((lp2085
g21
(g22
(dp2086
g24
g25
(g26
(I0
tp2087
g28
tp2088
Rp2089
(I1
(I6
tp2090
g35
I00
(lp2091
g39
ag40
ag41
ag42
ag43
ag44
atp2092
bsg15
Nstp2093
Rp2094
a(lp2095
g25
(g26
(I0
tp2096
g28
tp2097
Rp2098
(I1
(I6
tp2099
g55
I00
S'\xea\xc4W}\xc1\x01\x04@\xfa<\t\x96\xee[!@%F\rM\xea\xc98@gG\x08Y\x1f\x11\x04@\xab\xfb2\xfe\x85\xef\x14@\x1em\x9e*\xd0\xd7\x19@'
p2100
tp2101
ba(lp2102
g21
(g22
(dp2103
g24
g25
(g26
(I0
tp2104
g28
tp2105
Rp2106
(I1
(I6
tp2107
g35
I00
(lp2108
g39
ag40
ag41
ag42
ag43
ag44
atp2109
bsg15
Nstp2110
Rp2111
a(dp2112
g71
(dp2113
g73
g2085
sg74
(lp2114
(dp2115
g77
g78
(I0
I6
I1
tp2116
Rp2117
sg81
g2098
sasstp2118
bsg83
g84
sg15
NsbsF8.0
g7
(g8
g9
Ntp2119
Rp2120
(dp2121
g13
g14
sg16
g7
(g17
g9
Ntp2122
Rp2123
((lp2124
g21
(g22
(dp2125
g24
g25
(g26
(I0
tp2126
g28
tp2127
Rp2128
(I1
(I6
tp2129
g35
I00
(lp2130
g39
ag40
ag41
ag42
ag43
ag44
atp2131
bsg15
Nstp2132
Rp2133
a(lp2134
g25
(g26
(I0
tp2135
g28
tp2136
Rp2137
(I1
(I6
tp2138
g55
I00
S'\xea\xc4W}\xc1\x01\x04@\xfa<\t\x96\xee[!@%F\rM\xea\xc98@gG\x08Y\x1f\x11\x04@\xab\xfb2\xfe\x85\xef\x14@\x1em\x9e*\xd0\xd7\x19@'
p2139
tp2140
ba(lp2141
g21
(g22
(dp2142
g24
g25
(g26
(I0
tp2143
g28
tp2144
Rp2145
(I1
(I6
tp2146
g35
I00
(lp2147
g39
ag40
ag41
ag42
ag43
ag44
atp2148
bsg15
Nstp2149
Rp2150
a(dp2151
g71
(dp2152
g73
g2124
sg74
(lp2153
(dp2154
g77
g78
(I0
I6
I1
tp2155
Rp2156
sg81
g2137
sasstp2157
bsg83
g84
sg15
NsbsF9.0
g7
(g8
g9
Ntp2158
Rp2159
(dp2160
g13
g14
sg16
g7
(g17
g9
Ntp2161
Rp2162
((lp2163
g21
(g22
(dp2164
g24
g25
(g26
(I0
tp2165
g28
tp2166
Rp2167
(I1
(I6
tp2168
g35
I00
(lp2169
g39
ag40
ag41
ag42
ag43
ag44
atp2170
bsg15
Nstp2171
Rp2172
a(lp2173
g25
(g26
(I0
tp2174
g28
tp2175
Rp2176
(I1
(I6
tp2177
g55
I00
S'1Hh0\xb30\x04@\xde\xe9j\xa3\xd56#@\xed&(\xe6\x99-7@\xf4Qr\xbf64\x05@\xd6\x87\x00\xe3g7\r@\xed2{U6t\x15@'
p2178
tp2179
ba(lp2180
g21
(g22
(dp2181
g24
g25
(g26
(I0
tp2182
g28
tp2183
Rp2184
(I1
(I6
tp2185
g35
I00
(lp2186
g39
ag40
ag41
ag42
ag43
ag44
atp2187
bsg15
Nstp2188
Rp2189
a(dp2190
g71
(dp2191
g73
g2163
sg74
(lp2192
(dp2193
g77
g78
(I0
I6
I1
tp2194
Rp2195
sg81
g2176
sasstp2196
bsg83
g84
sg15
NsbsF10.0
g7
(g8
g9
Ntp2197
Rp2198
(dp2199
g13
g14
sg16
g7
(g17
g9
Ntp2200
Rp2201
((lp2202
g21
(g22
(dp2203
g24
g25
(g26
(I0
tp2204
g28
tp2205
Rp2206
(I1
(I6
tp2207
g35
I00
(lp2208
g39
ag40
ag41
ag42
ag43
ag44
atp2209
bsg15
Nstp2210
Rp2211
a(lp2212
g25
(g26
(I0
tp2213
g28
tp2214
Rp2215
(I1
(I6
tp2216
g55
I00
S'1Hh0\xb30\x04@\xde\xe9j\xa3\xd56#@\xed&(\xe6\x99-7@\xf4Qr\xbf64\x05@\xd6\x87\x00\xe3g7\r@\xed2{U6t\x15@'
p2217
tp2218
ba(lp2219
g21
(g22
(dp2220
g24
g25
(g26
(I0
tp2221
g28
tp2222
Rp2223
(I1
(I6
tp2224
g35
I00
(lp2225
g39
ag40
ag41
ag42
ag43
ag44
atp2226
bsg15
Nstp2227
Rp2228
a(dp2229
g71
(dp2230
g73
g2202
sg74
(lp2231
(dp2232
g77
g78
(I0
I6
I1
tp2233
Rp2234
sg81
g2215
sasstp2235
bsg83
g84
sg15
NsbsF15.0
g7
(g8
g9
Ntp2236
Rp2237
(dp2238
g13
g14
sg16
g7
(g17
g9
Ntp2239
Rp2240
((lp2241
g21
(g22
(dp2242
g24
g25
(g26
(I0
tp2243
g28
tp2244
Rp2245
(I1
(I6
tp2246
g35
I00
(lp2247
g39
ag40
ag41
ag42
ag43
ag44
atp2248
bsg15
Nstp2249
Rp2250
a(lp2251
g25
(g26
(I0
tp2252
g28
tp2253
Rp2254
(I1
(I6
tp2255
g55
I00
S'J\x95M\xfd\x90\x91\x01@J\x1ee@|\xb8!@\xe7\xe0\xa3\x9b5\x1e5@\xc7?\xe3\xa58f\x00@9\r\x9b\x06\x88\x83\x05@\xb5ZJ\xdfU\xc0\xf8?'
p2256
tp2257
ba(lp2258
g21
(g22
(dp2259
g24
g25
(g26
(I0
tp2260
g28
tp2261
Rp2262
(I1
(I6
tp2263
g35
I00
(lp2264
g39
ag40
ag41
ag42
ag43
ag44
atp2265
bsg15
Nstp2266
Rp2267
a(dp2268
g71
(dp2269
g73
g2241
sg74
(lp2270
(dp2271
g77
g78
(I0
I6
I1
tp2272
Rp2273
sg81
g2254
sasstp2274
bsg83
g84
sg15
NsbsF80.0
g7
(g8
g9
Ntp2275
Rp2276
(dp2277
g13
g14
sg16
g7
(g17
g9
Ntp2278
Rp2279
((lp2280
g21
(g22
(dp2281
g24
g25
(g26
(I0
tp2282
g28
tp2283
Rp2284
(I1
(I6
tp2285
g35
I00
(lp2286
g39
ag40
ag41
ag42
ag43
ag44
atp2287
bsg15
Nstp2288
Rp2289
a(lp2290
g25
(g26
(I0
tp2291
g28
tp2292
Rp2293
(I1
(I6
tp2294
g55
I00
S'\x03\xfb\xee6\x90t\xff?\x95a\x00\xf5\x87{\x1e@\xf1\xd3ABC[3@\xc2[\x1aO\x9e\x95\xfc?B\xa0\x96\xd3\x86^\x01@~\xed(\xf2k\x8a\xec?'
p2295
tp2296
ba(lp2297
g21
(g22
(dp2298
g24
g25
(g26
(I0
tp2299
g28
tp2300
Rp2301
(I1
(I6
tp2302
g35
I00
(lp2303
g39
ag40
ag41
ag42
ag43
ag44
atp2304
bsg15
Nstp2305
Rp2306
a(dp2307
g71
(dp2308
g73
g2280
sg74
(lp2309
(dp2310
g77
g78
(I0
I6
I1
tp2311
Rp2312
sg81
g2293
sasstp2313
bsg83
g84
sg15
NsbsF40.0
g7
(g8
g9
Ntp2314
Rp2315
(dp2316
g13
g14
sg16
g7
(g17
g9
Ntp2317
Rp2318
((lp2319
g21
(g22
(dp2320
g24
g25
(g26
(I0
tp2321
g28
tp2322
Rp2323
(I1
(I6
tp2324
g35
I00
(lp2325
g39
ag40
ag41
ag42
ag43
ag44
atp2326
bsg15
Nstp2327
Rp2328
a(lp2329
g25
(g26
(I0
tp2330
g28
tp2331
Rp2332
(I1
(I6
tp2333
g55
I00
S"\xd5'\xe5\x99\xf8-\x00@\x9a\xfd\x045\x04\xa4\x1f@5\xd4\xc4l\xa7'3@\x10\xe4p\x07^\xe6\xfe?\xe2\xd1\xb9\x18\x8e\xbf\x01@@P,\xb9*\x07\xeb?"
p2334
tp2335
ba(lp2336
g21
(g22
(dp2337
g24
g25
(g26
(I0
tp2338
g28
tp2339
Rp2340
(I1
(I6
tp2341
g35
I00
(lp2342
g39
ag40
ag41
ag42
ag43
ag44
atp2343
bsg15
Nstp2344
Rp2345
a(dp2346
g71
(dp2347
g73
g2319
sg74
(lp2348
(dp2349
g77
g78
(I0
I6
I1
tp2350
Rp2351
sg81
g2332
sasstp2352
bsg83
g84
sg15
NsbsF50.0
g7
(g8
g9
Ntp2353
Rp2354
(dp2355
g13
g14
sg16
g7
(g17
g9
Ntp2356
Rp2357
((lp2358
g21
(g22
(dp2359
g24
g25
(g26
(I0
tp2360
g28
tp2361
Rp2362
(I1
(I6
tp2363
g35
I00
(lp2364
g39
ag40
ag41
ag42
ag43
ag44
atp2365
bsg15
Nstp2366
Rp2367
a(lp2368
g25
(g26
(I0
tp2369
g28
tp2370
Rp2371
(I1
(I6
tp2372
g55
I00
S'3i\xb59_\x19\x00@s\x8a\x0e\xa3h\xf4\x1f@\x9c \x86\x94[w4@\x0b!\xc2d\xbd\x0c\xff?^\xf0\x82<V\xe0\x01@\xf2\x7f\x8c\xfc\xf8\xbd\xed?'
p2373
tp2374
ba(lp2375
g21
(g22
(dp2376
g24
g25
(g26
(I0
tp2377
g28
tp2378
Rp2379
(I1
(I6
tp2380
g35
I00
(lp2381
g39
ag40
ag41
ag42
ag43
ag44
atp2382
bsg15
Nstp2383
Rp2384
a(dp2385
g71
(dp2386
g73
g2358
sg74
(lp2387
(dp2388
g77
g78
(I0
I6
I1
tp2389
Rp2390
sg81
g2371
sasstp2391
bsg83
g84
sg15
NsbsF20.0
g7
(g8
g9
Ntp2392
Rp2393
(dp2394
g13
g14
sg16
g7
(g17
g9
Ntp2395
Rp2396
((lp2397
g21
(g22
(dp2398
g24
g25
(g26
(I0
tp2399
g28
tp2400
Rp2401
(I1
(I6
tp2402
g35
I00
(lp2403
g39
ag40
ag41
ag42
ag43
ag44
atp2404
bsg15
Nstp2405
Rp2406
a(lp2407
g25
(g26
(I0
tp2408
g28
tp2409
Rp2410
(I1
(I6
tp2411
g55
I00
S'\xd0_\x06bl/\x02@\xef4b\x10\x88Q!@\xfe\xc0\xc1\xab^\x8a4@\xec\xcb\xb4\x15\xccz\x00@\xe6\xecyZ\x9e\xf2\x06@\r\xf8[\xbb\xf3\xce\xf7?'
p2412
tp2413
ba(lp2414
g21
(g22
(dp2415
g24
g25
(g26
(I0
tp2416
g28
tp2417
Rp2418
(I1
(I6
tp2419
g35
I00
(lp2420
g39
ag40
ag41
ag42
ag43
ag44
atp2421
bsg15
Nstp2422
Rp2423
a(dp2424
g71
(dp2425
g73
g2397
sg74
(lp2426
(dp2427
g77
g78
(I0
I6
I1
tp2428
Rp2429
sg81
g2410
sasstp2430
bsg83
g84
sg15
NsbsF90.0
g7
(g8
g9
Ntp2431
Rp2432
(dp2433
g13
g14
sg16
g7
(g17
g9
Ntp2434
Rp2435
((lp2436
g21
(g22
(dp2437
g24
g25
(g26
(I0
tp2438
g28
tp2439
Rp2440
(I1
(I6
tp2441
g35
I00
(lp2442
g39
ag40
ag41
ag42
ag43
ag44
atp2443
bsg15
Nstp2444
Rp2445
a(lp2446
g25
(g26
(I0
tp2447
g28
tp2448
Rp2449
(I1
(I6
tp2450
g55
I00
S'\xdd\xb0\x95\x8a\xd7\xe4\xfe?\x86\x10,\xc2\xdb\xdb\x1e@\x82\x17\xb4\x0c\xc0\xa93@c\x9c\n\x99|\x9b\xfd?S\xac\x8c&\xbe \x01@\xc6\xf73\xbe\x9as\xe8?'
p2451
tp2452
ba(lp2453
g21
(g22
(dp2454
g24
g25
(g26
(I0
tp2455
g28
tp2456
Rp2457
(I1
(I6
tp2458
g35
I00
(lp2459
g39
ag40
ag41
ag42
ag43
ag44
atp2460
bsg15
Nstp2461
Rp2462
a(dp2463
g71
(dp2464
g73
g2436
sg74
(lp2465
(dp2466
g77
g78
(I0
I6
I1
tp2467
Rp2468
sg81
g2449
sasstp2469
bsg83
g84
sg15
NsbsF60.0
g7
(g8
g9
Ntp2470
Rp2471
(dp2472
g13
g14
sg16
g7
(g17
g9
Ntp2473
Rp2474
((lp2475
g21
(g22
(dp2476
g24
g25
(g26
(I0
tp2477
g28
tp2478
Rp2479
(I1
(I6
tp2480
g35
I00
(lp2481
g39
ag40
ag41
ag42
ag43
ag44
atp2482
bsg15
Nstp2483
Rp2484
a(lp2485
g25
(g26
(I0
tp2486
g28
tp2487
Rp2488
(I1
(I6
tp2489
g55
I00
S'M\n\x14\xe7\xd5\x03\x00@\x03\xa8|\xa3\x96Y\x1c@Q\x11Q\x16g\x182@"\xfe\x8e\xe2\x91Z\xfd?@Q\xc1\x99iD\x01@`F\xd1}5|\xec?'
p2490
tp2491
ba(lp2492
g21
(g22
(dp2493
g24
g25
(g26
(I0
tp2494
g28
tp2495
Rp2496
(I1
(I6
tp2497
g35
I00
(lp2498
g39
ag40
ag41
ag42
ag43
ag44
atp2499
bsg15
Nstp2500
Rp2501
a(dp2502
g71
(dp2503
g73
g2475
sg74
(lp2504
(dp2505
g77
g78
(I0
I6
I1
tp2506
Rp2507
sg81
g2488
sasstp2508
bsg83
g84
sg15
NsbsF30.0
g7
(g8
g9
Ntp2509
Rp2510
(dp2511
g13
g14
sg16
g7
(g17
g9
Ntp2512
Rp2513
((lp2514
g21
(g22
(dp2515
g24
g25
(g26
(I0
tp2516
g28
tp2517
Rp2518
(I1
(I6
tp2519
g35
I00
(lp2520
g39
ag40
ag41
ag42
ag43
ag44
atp2521
bsg15
Nstp2522
Rp2523
a(lp2524
g25
(g26
(I0
tp2525
g28
tp2526
Rp2527
(I1
(I6
tp2528
g55
I00
S'/nBf\xea\xa8\x00@\xb7Zr:\xf8\xad!@\xa65\xa6\xf2\xd2J4@\xe3`\x9c\xc7\xeb\xe0\x00@\xfa\xedM\x8c\xc3\xb4\x04@\xc3\xe5p\xa8\x96\x85\xed?'
p2529
tp2530
ba(lp2531
g21
(g22
(dp2532
g24
g25
(g26
(I0
tp2533
g28
tp2534
Rp2535
(I1
(I6
tp2536
g35
I00
(lp2537
g39
ag40
ag41
ag42
ag43
ag44
atp2538
bsg15
Nstp2539
Rp2540
a(dp2541
g71
(dp2542
g73
g2514
sg74
(lp2543
(dp2544
g77
g78
(I0
I6
I1
tp2545
Rp2546
sg81
g2527
sasstp2547
bsg83
g84
sg15
Nsbssssg1296
(dp2548
g2
(dp2549
g5
(dp2550
F0.0
g7
(g8
g9
Ntp2551
Rp2552
(dp2553
g13
g14
sg16
g7
(g17
g9
Ntp2554
Rp2555
((lp2556
g21
(g22
(dp2557
g24
g25
(g26
(I0
tp2558
g28
tp2559
Rp2560
(I1
(I6
tp2561
g35
I00
(lp2562
g39
ag40
ag41
ag42
ag43
ag44
atp2563
bsg15
Nstp2564
Rp2565
a(lp2566
g25
(g26
(I0
tp2567
g28
tp2568
Rp2569
(I1
(I6
tp2570
g55
I00
S'1\xbd\x0cSW\x9e\x00@GN\x93\xd5\xa1R"@\x16\xf1\xa3\x11\xafa8@\x10C<\xd0\x1bT\x05@\x01\x90\xe3\x88\x95\xf2\x06@\x86\xf8\xb8\xf8#\xfe\xf3?'
p2571
tp2572
ba(lp2573
g21
(g22
(dp2574
g24
g25
(g26
(I0
tp2575
g28
tp2576
Rp2577
(I1
(I6
tp2578
g35
I00
(lp2579
g39
ag40
ag41
ag42
ag43
ag44
atp2580
bsg15
Nstp2581
Rp2582
a(dp2583
g71
(dp2584
g73
g2556
sg74
(lp2585
(dp2586
g77
g78
(I0
I6
I1
tp2587
Rp2588
sg81
g2569
sasstp2589
bsg83
g84
sg15
NsbsF100.0
g7
(g8
g9
Ntp2590
Rp2591
(dp2592
g13
g14
sg16
g7
(g17
g9
Ntp2593
Rp2594
((lp2595
g21
(g22
(dp2596
g24
g25
(g26
(I0
tp2597
g28
tp2598
Rp2599
(I1
(I6
tp2600
g35
I00
(lp2601
g39
ag40
ag41
ag42
ag43
ag44
atp2602
bsg15
Nstp2603
Rp2604
a(lp2605
g25
(g26
(I0
tp2606
g28
tp2607
Rp2608
(I1
(I6
tp2609
g55
I00
S'\xa9\xd4\xa3]Q\xf4\xfd?H\xb4\xbc\xf7\xe7b#@E\xa8\xb3CdO-@`i\xe3\xd7ym\x01@9M\x9c1e\xfe\x01@D\xbf\xc6\x0e\xe6\xcf\xe7?'
p2610
tp2611
ba(lp2612
g21
(g22
(dp2613
g24
g25
(g26
(I0
tp2614
g28
tp2615
Rp2616
(I1
(I6
tp2617
g35
I00
(lp2618
g39
ag40
ag41
ag42
ag43
ag44
atp2619
bsg15
Nstp2620
Rp2621
a(dp2622
g71
(dp2623
g73
g2595
sg74
(lp2624
(dp2625
g77
g78
(I0
I6
I1
tp2626
Rp2627
sg81
g2608
sasstp2628
bsg83
g84
sg15
NsbsF70.0
g7
(g8
g9
Ntp2629
Rp2630
(dp2631
g13
g14
sg16
g7
(g17
g9
Ntp2632
Rp2633
((lp2634
g21
(g22
(dp2635
g24
g25
(g26
(I0
tp2636
g28
tp2637
Rp2638
(I1
(I6
tp2639
g35
I00
(lp2640
g39
ag40
ag41
ag42
ag43
ag44
atp2641
bsg15
Nstp2642
Rp2643
a(lp2644
g25
(g26
(I0
tp2645
g28
tp2646
Rp2647
(I1
(I6
tp2648
g55
I00
S'Z\x9f\xe6"\xee\xe8\xfd?\x7f\xe4\xbd\xbb\xe2\xa2"@fj&W\xa4\xbf.@\x1a([$O4\x01@\x8e\xaf\r0\x8d\x17\x02@\x9e\x99r)\xfbV\xe8?'
p2649
tp2650
ba(lp2651
g21
(g22
(dp2652
g24
g25
(g26
(I0
tp2653
g28
tp2654
Rp2655
(I1
(I6
tp2656
g35
I00
(lp2657
g39
ag40
ag41
ag42
ag43
ag44
atp2658
bsg15
Nstp2659
Rp2660
a(dp2661
g71
(dp2662
g73
g2634
sg74
(lp2663
(dp2664
g77
g78
(I0
I6
I1
tp2665
Rp2666
sg81
g2647
sasstp2667
bsg83
g84
sg15
NsbsF6.0
g7
(g8
g9
Ntp2668
Rp2669
(dp2670
g13
g14
sg16
g7
(g17
g9
Ntp2671
Rp2672
((lp2673
g21
(g22
(dp2674
g24
g25
(g26
(I0
tp2675
g28
tp2676
Rp2677
(I1
(I6
tp2678
g35
I00
(lp2679
g39
ag40
ag41
ag42
ag43
ag44
atp2680
bsg15
Nstp2681
Rp2682
a(lp2683
g25
(g26
(I0
tp2684
g28
tp2685
Rp2686
(I1
(I6
tp2687
g55
I00
S'=$%=\xa9\xbe\xfd?2o\xe8\x99\x14\x8a"@\x12\x95>\xd1\x99K3@b\xe2+\x81\x96c\x01@\x86L\x01\xb3\xd2\xcd\x02@\x90\x8a\xc0\xee\x1c\x82\xea?'
p2688
tp2689
ba(lp2690
g21
(g22
(dp2691
g24
g25
(g26
(I0
tp2692
g28
tp2693
Rp2694
(I1
(I6
tp2695
g35
I00
(lp2696
g39
ag40
ag41
ag42
ag43
ag44
atp2697
bsg15
Nstp2698
Rp2699
a(dp2700
g71
(dp2701
g73
g2673
sg74
(lp2702
(dp2703
g77
g78
(I0
I6
I1
tp2704
Rp2705
sg81
g2686
sasstp2706
bsg83
g84
sg15
NsbsF7.0
g7
(g8
g9
Ntp2707
Rp2708
(dp2709
g13
g14
sg16
g7
(g17
g9
Ntp2710
Rp2711
((lp2712
g21
(g22
(dp2713
g24
g25
(g26
(I0
tp2714
g28
tp2715
Rp2716
(I1
(I6
tp2717
g35
I00
(lp2718
g39
ag40
ag41
ag42
ag43
ag44
atp2719
bsg15
Nstp2720
Rp2721
a(lp2722
g25
(g26
(I0
tp2723
g28
tp2724
Rp2725
(I1
(I6
tp2726
g55
I00
S'=$%=\xa9\xbe\xfd?2o\xe8\x99\x14\x8a"@\x12\x95>\xd1\x99K3@b\xe2+\x81\x96c\x01@\x86L\x01\xb3\xd2\xcd\x02@\x90\x8a\xc0\xee\x1c\x82\xea?'
p2727
tp2728
ba(lp2729
g21
(g22
(dp2730
g24
g25
(g26
(I0
tp2731
g28
tp2732
Rp2733
(I1
(I6
tp2734
g35
I00
(lp2735
g39
ag40
ag41
ag42
ag43
ag44
atp2736
bsg15
Nstp2737
Rp2738
a(dp2739
g71
(dp2740
g73
g2712
sg74
(lp2741
(dp2742
g77
g78
(I0
I6
I1
tp2743
Rp2744
sg81
g2725
sasstp2745
bsg83
g84
sg15
NsbsF8.0
g7
(g8
g9
Ntp2746
Rp2747
(dp2748
g13
g14
sg16
g7
(g17
g9
Ntp2749
Rp2750
((lp2751
g21
(g22
(dp2752
g24
g25
(g26
(I0
tp2753
g28
tp2754
Rp2755
(I1
(I6
tp2756
g35
I00
(lp2757
g39
ag40
ag41
ag42
ag43
ag44
atp2758
bsg15
Nstp2759
Rp2760
a(lp2761
g25
(g26
(I0
tp2762
g28
tp2763
Rp2764
(I1
(I6
tp2765
g55
I00
S'=$%=\xa9\xbe\xfd?2o\xe8\x99\x14\x8a"@\x12\x95>\xd1\x99K3@b\xe2+\x81\x96c\x01@\x86L\x01\xb3\xd2\xcd\x02@\x90\x8a\xc0\xee\x1c\x82\xea?'
p2766
tp2767
ba(lp2768
g21
(g22
(dp2769
g24
g25
(g26
(I0
tp2770
g28
tp2771
Rp2772
(I1
(I6
tp2773
g35
I00
(lp2774
g39
ag40
ag41
ag42
ag43
ag44
atp2775
bsg15
Nstp2776
Rp2777
a(dp2778
g71
(dp2779
g73
g2751
sg74
(lp2780
(dp2781
g77
g78
(I0
I6
I1
tp2782
Rp2783
sg81
g2764
sasstp2784
bsg83
g84
sg15
NsbsF9.0
g7
(g8
g9
Ntp2785
Rp2786
(dp2787
g13
g14
sg16
g7
(g17
g9
Ntp2788
Rp2789
((lp2790
g21
(g22
(dp2791
g24
g25
(g26
(I0
tp2792
g28
tp2793
Rp2794
(I1
(I6
tp2795
g35
I00
(lp2796
g39
ag40
ag41
ag42
ag43
ag44
atp2797
bsg15
Nstp2798
Rp2799
a(lp2800
g25
(g26
(I0
tp2801
g28
tp2802
Rp2803
(I1
(I6
tp2804
g55
I00
S'\xc6\xed\xa7Z\x03\x1f\xfe?\x15\xcd6,\x875#@\xba\x93P\x96\xed+2@\xb56\xd0\xda*E\x01@\xc6\xc7\xf7K\xfbu\x03@x\xf8\x03\x0e\x86u\xea?'
p2805
tp2806
ba(lp2807
g21
(g22
(dp2808
g24
g25
(g26
(I0
tp2809
g28
tp2810
Rp2811
(I1
(I6
tp2812
g35
I00
(lp2813
g39
ag40
ag41
ag42
ag43
ag44
atp2814
bsg15
Nstp2815
Rp2816
a(dp2817
g71
(dp2818
g73
g2790
sg74
(lp2819
(dp2820
g77
g78
(I0
I6
I1
tp2821
Rp2822
sg81
g2803
sasstp2823
bsg83
g84
sg15
NsbsF10.0
g7
(g8
g9
Ntp2824
Rp2825
(dp2826
g13
g14
sg16
g7
(g17
g9
Ntp2827
Rp2828
((lp2829
g21
(g22
(dp2830
g24
g25
(g26
(I0
tp2831
g28
tp2832
Rp2833
(I1
(I6
tp2834
g35
I00
(lp2835
g39
ag40
ag41
ag42
ag43
ag44
atp2836
bsg15
Nstp2837
Rp2838
a(lp2839
g25
(g26
(I0
tp2840
g28
tp2841
Rp2842
(I1
(I6
tp2843
g55
I00
S'\xc6\xed\xa7Z\x03\x1f\xfe?\x15\xcd6,\x875#@\xba\x93P\x96\xed+2@\xb56\xd0\xda*E\x01@\xc6\xc7\xf7K\xfbu\x03@x\xf8\x03\x0e\x86u\xea?'
p2844
tp2845
ba(lp2846
g21
(g22
(dp2847
g24
g25
(g26
(I0
tp2848
g28
tp2849
Rp2850
(I1
(I6
tp2851
g35
I00
(lp2852
g39
ag40
ag41
ag42
ag43
ag44
atp2853
bsg15
Nstp2854
Rp2855
a(dp2856
g71
(dp2857
g73
g2829
sg74
(lp2858
(dp2859
g77
g78
(I0
I6
I1
tp2860
Rp2861
sg81
g2842
sasstp2862
bsg83
g84
sg15
NsbsF15.0
g7
(g8
g9
Ntp2863
Rp2864
(dp2865
g13
g14
sg16
g7
(g17
g9
Ntp2866
Rp2867
((lp2868
g21
(g22
(dp2869
g24
g25
(g26
(I0
tp2870
g28
tp2871
Rp2872
(I1
(I6
tp2873
g35
I00
(lp2874
g39
ag40
ag41
ag42
ag43
ag44
atp2875
bsg15
Nstp2876
Rp2877
a(lp2878
g25
(g26
(I0
tp2879
g28
tp2880
Rp2881
(I1
(I6
tp2882
g55
I00
S'\x0e_lo\x10\x0c\xfe?z\n\x88\xdei\xbb"@\xa4\xf7\xce\xe0\xcbk0@\x1df\x9d\xce\xccB\x01@\xcd\x17f\x80r[\x03@\x8d\x12L^\x9f_\xea?'
p2883
tp2884
ba(lp2885
g21
(g22
(dp2886
g24
g25
(g26
(I0
tp2887
g28
tp2888
Rp2889
(I1
(I6
tp2890
g35
I00
(lp2891
g39
ag40
ag41
ag42
ag43
ag44
atp2892
bsg15
Nstp2893
Rp2894
a(dp2895
g71
(dp2896
g73
g2868
sg74
(lp2897
(dp2898
g77
g78
(I0
I6
I1
tp2899
Rp2900
sg81
g2881
sasstp2901
bsg83
g84
sg15
NsbsF80.0
g7
(g8
g9
Ntp2902
Rp2903
(dp2904
g13
g14
sg16
g7
(g17
g9
Ntp2905
Rp2906
((lp2907
g21
(g22
(dp2908
g24
g25
(g26
(I0
tp2909
g28
tp2910
Rp2911
(I1
(I6
tp2912
g35
I00
(lp2913
g39
ag40
ag41
ag42
ag43
ag44
atp2914
bsg15
Nstp2915
Rp2916
a(lp2917
g25
(g26
(I0
tp2918
g28
tp2919
Rp2920
(I1
(I6
tp2921
g55
I00
S'\xaa\xf8v\x19\x81\xf6\xfd?\xc3\xc92rq\x1c#@\x8d\xc3UKx\xce-@\n\x1d\x14\xfem(\x01@\x9e\xc1\xa4>`\r\x02@\x1e\xea\xfev\xc8\x07\xe8?'
p2922
tp2923
ba(lp2924
g21
(g22
(dp2925
g24
g25
(g26
(I0
tp2926
g28
tp2927
Rp2928
(I1
(I6
tp2929
g35
I00
(lp2930
g39
ag40
ag41
ag42
ag43
ag44
atp2931
bsg15
Nstp2932
Rp2933
a(dp2934
g71
(dp2935
g73
g2907
sg74
(lp2936
(dp2937
g77
g78
(I0
I6
I1
tp2938
Rp2939
sg81
g2920
sasstp2940
bsg83
g84
sg15
NsbsF40.0
g7
(g8
g9
Ntp2941
Rp2942
(dp2943
g13
g14
sg16
g7
(g17
g9
Ntp2944
Rp2945
((lp2946
g21
(g22
(dp2947
g24
g25
(g26
(I0
tp2948
g28
tp2949
Rp2950
(I1
(I6
tp2951
g35
I00
(lp2952
g39
ag40
ag41
ag42
ag43
ag44
atp2953
bsg15
Nstp2954
Rp2955
a(lp2956
g25
(g26
(I0
tp2957
g28
tp2958
Rp2959
(I1
(I6
tp2960
g55
I00
S' 2\x12\xf4\xdf\x8b\xfd?\xaaZ\xce\xcf\x07p"@\xdd\xab\xf3\xffS\x8d/@\xc0\xe4\xe8\xd7\x996\x01@J\xbexO\xb0G\x02@\xbb\xaa\x88\xbe\xe68\xe9?'
p2961
tp2962
ba(lp2963
g21
(g22
(dp2964
g24
g25
(g26
(I0
tp2965
g28
tp2966
Rp2967
(I1
(I6
tp2968
g35
I00
(lp2969
g39
ag40
ag41
ag42
ag43
ag44
atp2970
bsg15
Nstp2971
Rp2972
a(dp2973
g71
(dp2974
g73
g2946
sg74
(lp2975
(dp2976
g77
g78
(I0
I6
I1
tp2977
Rp2978
sg81
g2959
sasstp2979
bsg83
g84
sg15
NsbsF50.0
g7
(g8
g9
Ntp2980
Rp2981
(dp2982
g13
g14
sg16
g7
(g17
g9
Ntp2983
Rp2984
((lp2985
g21
(g22
(dp2986
g24
g25
(g26
(I0
tp2987
g28
tp2988
Rp2989
(I1
(I6
tp2990
g35
I00
(lp2991
g39
ag40
ag41
ag42
ag43
ag44
atp2992
bsg15
Nstp2993
Rp2994
a(lp2995
g25
(g26
(I0
tp2996
g28
tp2997
Rp2998
(I1
(I6
tp2999
g55
I00
S'\xd5\xdd\x194\x9c\x9d\xfd?7\xee\xe0/\xbbN"@c}p\x82<\x0b/@#\x7ft\xdfaH\x01@q\xc3Sj\x1e\x1f\x02@\x8e\x15R\x92\x8be\xe9?'
p3000
tp3001
ba(lp3002
g21
(g22
(dp3003
g24
g25
(g26
(I0
tp3004
g28
tp3005
Rp3006
(I1
(I6
tp3007
g35
I00
(lp3008
g39
ag40
ag41
ag42
ag43
ag44
atp3009
bsg15
Nstp3010
Rp3011
a(dp3012
g71
(dp3013
g73
g2985
sg74
(lp3014
(dp3015
g77
g78
(I0
I6
I1
tp3016
Rp3017
sg81
g2998
sasstp3018
bsg83
g84
sg15
NsbsF20.0
g7
(g8
g9
Ntp3019
Rp3020
(dp3021
g13
g14
sg16
g7
(g17
g9
Ntp3022
Rp3023
((lp3024
g21
(g22
(dp3025
g24
g25
(g26
(I0
tp3026
g28
tp3027
Rp3028
(I1
(I6
tp3029
g35
I00
(lp3030
g39
ag40
ag41
ag42
ag43
ag44
atp3031
bsg15
Nstp3032
Rp3033
a(lp3034
g25
(g26
(I0
tp3035
g28
tp3036
Rp3037
(I1
(I6
tp3038
g55
I00
S'=]q\x96\xe9\x04\xfe?/T\x1cJ\xc3v"@\xd8\xcd\x13\x1cr`0@]"F\xce\x12\xec\x00@\x17\xe3\xb8\xa7\x02\x99\x02@p\xedf\xad\x84V\xea?'
p3039
tp3040
ba(lp3041
g21
(g22
(dp3042
g24
g25
(g26
(I0
tp3043
g28
tp3044
Rp3045
(I1
(I6
tp3046
g35
I00
(lp3047
g39
ag40
ag41
ag42
ag43
ag44
atp3048
bsg15
Nstp3049
Rp3050
a(dp3051
g71
(dp3052
g73
g3024
sg74
(lp3053
(dp3054
g77
g78
(I0
I6
I1
tp3055
Rp3056
sg81
g3037
sasstp3057
bsg83
g84
sg15
NsbsF90.0
g7
(g8
g9
Ntp3058
Rp3059
(dp3060
g13
g14
sg16
g7
(g17
g9
Ntp3061
Rp3062
((lp3063
g21
(g22
(dp3064
g24
g25
(g26
(I0
tp3065
g28
tp3066
Rp3067
(I1
(I6
tp3068
g35
I00
(lp3069
g39
ag40
ag41
ag42
ag43
ag44
atp3070
bsg15
Nstp3071
Rp3072
a(lp3073
g25
(g26
(I0
tp3074
g28
tp3075
Rp3076
(I1
(I6
tp3077
g55
I00
S'\xee\x92Q\xba\x94\x1d\xfe?\xda\x11\x99Z\x80.#@HQ\xb0{\x13\xc7.@06u%\x12N\x01@\x1a\xb4\xde\xb3\x9f\x16\x02@\x93H\x16X\x86\xca\xe8?'
p3078
tp3079
ba(lp3080
g21
(g22
(dp3081
g24
g25
(g26
(I0
tp3082
g28
tp3083
Rp3084
(I1
(I6
tp3085
g35
I00
(lp3086
g39
ag40
ag41
ag42
ag43
ag44
atp3087
bsg15
Nstp3088
Rp3089
a(dp3090
g71
(dp3091
g73
g3063
sg74
(lp3092
(dp3093
g77
g78
(I0
I6
I1
tp3094
Rp3095
sg81
g3076
sasstp3096
bsg83
g84
sg15
NsbsF60.0
g7
(g8
g9
Ntp3097
Rp3098
(dp3099
g13
g14
sg16
g7
(g17
g9
Ntp3100
Rp3101
((lp3102
g21
(g22
(dp3103
g24
g25
(g26
(I0
tp3104
g28
tp3105
Rp3106
(I1
(I6
tp3107
g35
I00
(lp3108
g39
ag40
ag41
ag42
ag43
ag44
atp3109
bsg15
Nstp3110
Rp3111
a(lp3112
g25
(g26
(I0
tp3113
g28
tp3114
Rp3115
(I1
(I6
tp3116
g55
I00
S'\x8bY\x18J\xd9\xc1\xfd?~\xaf\n\x97G&#@\xfb\xf7\xef\xc6kb/@\xa0d\xdc-Vm\x01@\xa2\xa3\x0ex\x7f<\x02@\x9d\x982\x91\x85\xe9\xe9?'
p3117
tp3118
ba(lp3119
g21
(g22
(dp3120
g24
g25
(g26
(I0
tp3121
g28
tp3122
Rp3123
(I1
(I6
tp3124
g35
I00
(lp3125
g39
ag40
ag41
ag42
ag43
ag44
atp3126
bsg15
Nstp3127
Rp3128
a(dp3129
g71
(dp3130
g73
g3102
sg74
(lp3131
(dp3132
g77
g78
(I0
I6
I1
tp3133
Rp3134
sg81
g3115
sasstp3135
bsg83
g84
sg15
NsbsF30.0
g7
(g8
g9
Ntp3136
Rp3137
(dp3138
g13
g14
sg16
g7
(g17
g9
Ntp3139
Rp3140
((lp3141
g21
(g22
(dp3142
g24
g25
(g26
(I0
tp3143
g28
tp3144
Rp3145
(I1
(I6
tp3146
g35
I00
(lp3147
g39
ag40
ag41
ag42
ag43
ag44
atp3148
bsg15
Nstp3149
Rp3150
a(lp3151
g25
(g26
(I0
tp3152
g28
tp3153
Rp3154
(I1
(I6
tp3155
g55
I00
S'\xdb\x0eH+\x02P\xfe?\x81b\xd6U\xaf\xb3"@Z<\xb8\xaaH?0@\x91_\x85\xcbo\x07\x01@^\x02\xbf\x91\x92\x80\x02@\xf8NZV$\x0e\xea?'
p3156
tp3157
ba(lp3158
g21
(g22
(dp3159
g24
g25
(g26
(I0
tp3160
g28
tp3161
Rp3162
(I1
(I6
tp3163
g35
I00
(lp3164
g39
ag40
ag41
ag42
ag43
ag44
atp3165
bsg15
Nstp3166
Rp3167
a(dp3168
g71
(dp3169
g73
g3141
sg74
(lp3170
(dp3171
g77
g78
(I0
I6
I1
tp3172
Rp3173
sg81
g3154
sasstp3174
bsg83
g84
sg15
Nsbssg670
(dp3175
F0.0
g7
(g8
g9
Ntp3176
Rp3177
(dp3178
g13
g14
sg16
g7
(g17
g9
Ntp3179
Rp3180
((lp3181
g21
(g22
(dp3182
g24
g25
(g26
(I0
tp3183
g28
tp3184
Rp3185
(I1
(I6
tp3186
g35
I00
(lp3187
g39
ag40
ag41
ag42
ag43
ag44
atp3188
bsg15
Nstp3189
Rp3190
a(lp3191
g25
(g26
(I0
tp3192
g28
tp3193
Rp3194
(I1
(I6
tp3195
g55
I00
S'\xda|\x1f\xa9_11@\xaa\x11\xd8\xf2\xdfn\x1f@\xd7[\xfd`\xc1r4@\xf8l\xa5\x9a\x1a(2@\x0e\x91\xa2\xd9\xcf5-@\tYP\xe9\x13\x9f0@'
p3196
tp3197
ba(lp3198
g21
(g22
(dp3199
g24
g25
(g26
(I0
tp3200
g28
tp3201
Rp3202
(I1
(I6
tp3203
g35
I00
(lp3204
g39
ag40
ag41
ag42
ag43
ag44
atp3205
bsg15
Nstp3206
Rp3207
a(dp3208
g71
(dp3209
g73
g3181
sg74
(lp3210
(dp3211
g77
g78
(I0
I6
I1
tp3212
Rp3213
sg81
g3194
sasstp3214
bsg83
g84
sg15
NsbsF100.0
g7
(g8
g9
Ntp3215
Rp3216
(dp3217
g13
g14
sg16
g7
(g17
g9
Ntp3218
Rp3219
((lp3220
g21
(g22
(dp3221
g24
g25
(g26
(I0
tp3222
g28
tp3223
Rp3224
(I1
(I6
tp3225
g35
I00
(lp3226
g39
ag40
ag41
ag42
ag43
ag44
atp3227
bsg15
Nstp3228
Rp3229
a(lp3230
g25
(g26
(I0
tp3231
g28
tp3232
Rp3233
(I1
(I6
tp3234
g55
I00
S'\xce:\xc5w\x1a\x92\xfe?\xfb\x90\x7f\xa7\xdc\x8d\x1c@\xefG\xb3\x1e\xb4~1@Pv\xdb\xa9\xa9\x1d\xfc?V\xa1\xb20\xea/\x01@c\xbf\xac-D\xe9\xe5?'
p3235
tp3236
ba(lp3237
g21
(g22
(dp3238
g24
g25
(g26
(I0
tp3239
g28
tp3240
Rp3241
(I1
(I6
tp3242
g35
I00
(lp3243
g39
ag40
ag41
ag42
ag43
ag44
atp3244
bsg15
Nstp3245
Rp3246
a(dp3247
g71
(dp3248
g73
g3220
sg74
(lp3249
(dp3250
g77
g78
(I0
I6
I1
tp3251
Rp3252
sg81
g3233
sasstp3253
bsg83
g84
sg15
NsbsF70.0
g7
(g8
g9
Ntp3254
Rp3255
(dp3256
g13
g14
sg16
g7
(g17
g9
Ntp3257
Rp3258
((lp3259
g21
(g22
(dp3260
g24
g25
(g26
(I0
tp3261
g28
tp3262
Rp3263
(I1
(I6
tp3264
g35
I00
(lp3265
g39
ag40
ag41
ag42
ag43
ag44
atp3266
bsg15
Nstp3267
Rp3268
a(lp3269
g25
(g26
(I0
tp3270
g28
tp3271
Rp3272
(I1
(I6
tp3273
g55
I00
S"N-\xc3V\xe7\x86\xff?\xb3-P\xf8Ps\x1e@\xf2C\xbb]p\xa81@\x8axN\x82W_\xfd?\xed\xf8\xd9\xf5\xef\xc1\x01@v\x0f\xb8'B\xc4\xeb?"
p3274
tp3275
ba(lp3276
g21
(g22
(dp3277
g24
g25
(g26
(I0
tp3278
g28
tp3279
Rp3280
(I1
(I6
tp3281
g35
I00
(lp3282
g39
ag40
ag41
ag42
ag43
ag44
atp3283
bsg15
Nstp3284
Rp3285
a(dp3286
g71
(dp3287
g73
g3259
sg74
(lp3288
(dp3289
g77
g78
(I0
I6
I1
tp3290
Rp3291
sg81
g3272
sasstp3292
bsg83
g84
sg15
NsbsF6.0
g7
(g8
g9
Ntp3293
Rp3294
(dp3295
g13
g14
sg16
g7
(g17
g9
Ntp3296
Rp3297
((lp3298
g21
(g22
(dp3299
g24
g25
(g26
(I0
tp3300
g28
tp3301
Rp3302
(I1
(I6
tp3303
g35
I00
(lp3304
g39
ag40
ag41
ag42
ag43
ag44
atp3305
bsg15
Nstp3306
Rp3307
a(lp3308
g25
(g26
(I0
tp3309
g28
tp3310
Rp3311
(I1
(I6
tp3312
g55
I00
S'Rol\xe2\xa3\xcd\x06@\x9e`V@?o"@p\x0c^\xab\xbc\x039@\xd7\xa4\x07\xb1\x02\xaf\x06@\xca\xfa9\xb6\x1e_\x11@\xac\xcf7j#%\x18@'
p3313
tp3314
ba(lp3315
g21
(g22
(dp3316
g24
g25
(g26
(I0
tp3317
g28
tp3318
Rp3319
(I1
(I6
tp3320
g35
I00
(lp3321
g39
ag40
ag41
ag42
ag43
ag44
atp3322
bsg15
Nstp3323
Rp3324
a(dp3325
g71
(dp3326
g73
g3298
sg74
(lp3327
(dp3328
g77
g78
(I0
I6
I1
tp3329
Rp3330
sg81
g3311
sasstp3331
bsg83
g84
sg15
NsbsF7.0
g7
(g8
g9
Ntp3332
Rp3333
(dp3334
g13
g14
sg16
g7
(g17
g9
Ntp3335
Rp3336
((lp3337
g21
(g22
(dp3338
g24
g25
(g26
(I0
tp3339
g28
tp3340
Rp3341
(I1
(I6
tp3342
g35
I00
(lp3343
g39
ag40
ag41
ag42
ag43
ag44
atp3344
bsg15
Nstp3345
Rp3346
a(lp3347
g25
(g26
(I0
tp3348
g28
tp3349
Rp3350
(I1
(I6
tp3351
g55
I00
S'Rol\xe2\xa3\xcd\x06@\x9e`V@?o"@p\x0c^\xab\xbc\x039@\xd7\xa4\x07\xb1\x02\xaf\x06@\xca\xfa9\xb6\x1e_\x11@\xac\xcf7j#%\x18@'
p3352
tp3353
ba(lp3354
g21
(g22
(dp3355
g24
g25
(g26
(I0
tp3356
g28
tp3357
Rp3358
(I1
(I6
tp3359
g35
I00
(lp3360
g39
ag40
ag41
ag42
ag43
ag44
atp3361
bsg15
Nstp3362
Rp3363
a(dp3364
g71
(dp3365
g73
g3337
sg74
(lp3366
(dp3367
g77
g78
(I0
I6
I1
tp3368
Rp3369
sg81
g3350
sasstp3370
bsg83
g84
sg15
NsbsF8.0
g7
(g8
g9
Ntp3371
Rp3372
(dp3373
g13
g14
sg16
g7
(g17
g9
Ntp3374
Rp3375
((lp3376
g21
(g22
(dp3377
g24
g25
(g26
(I0
tp3378
g28
tp3379
Rp3380
(I1
(I6
tp3381
g35
I00
(lp3382
g39
ag40
ag41
ag42
ag43
ag44
atp3383
bsg15
Nstp3384
Rp3385
a(lp3386
g25
(g26
(I0
tp3387
g28
tp3388
Rp3389
(I1
(I6
tp3390
g55
I00
S'Rol\xe2\xa3\xcd\x06@\x9e`V@?o"@p\x0c^\xab\xbc\x039@\xd7\xa4\x07\xb1\x02\xaf\x06@\xca\xfa9\xb6\x1e_\x11@\xac\xcf7j#%\x18@'
p3391
tp3392
ba(lp3393
g21
(g22
(dp3394
g24
g25
(g26
(I0
tp3395
g28
tp3396
Rp3397
(I1
(I6
tp3398
g35
I00
(lp3399
g39
ag40
ag41
ag42
ag43
ag44
atp3400
bsg15
Nstp3401
Rp3402
a(dp3403
g71
(dp3404
g73
g3376
sg74
(lp3405
(dp3406
g77
g78
(I0
I6
I1
tp3407
Rp3408
sg81
g3389
sasstp3409
bsg83
g84
sg15
NsbsF9.0
g7
(g8
g9
Ntp3410
Rp3411
(dp3412
g13
g14
sg16
g7
(g17
g9
Ntp3413
Rp3414
((lp3415
g21
(g22
(dp3416
g24
g25
(g26
(I0
tp3417
g28
tp3418
Rp3419
(I1
(I6
tp3420
g35
I00
(lp3421
g39
ag40
ag41
ag42
ag43
ag44
atp3422
bsg15
Nstp3423
Rp3424
a(lp3425
g25
(g26
(I0
tp3426
g28
tp3427
Rp3428
(I1
(I6
tp3429
g55
I00
S'\xb6\x96\xd40bw\x03@\xfa\xac\xbdJ~\x0f$@\xc6\xf7f\xbd\xdf\xdd7@/\x01\x9aK\ru\x07@\x08\xe4\x0b\x1d]\x02\x0e@g\xab\x98\x8fcM\x12@'
p3430
tp3431
ba(lp3432
g21
(g22
(dp3433
g24
g25
(g26
(I0
tp3434
g28
tp3435
Rp3436
(I1
(I6
tp3437
g35
I00
(lp3438
g39
ag40
ag41
ag42
ag43
ag44
atp3439
bsg15
Nstp3440
Rp3441
a(dp3442
g71
(dp3443
g73
g3415
sg74
(lp3444
(dp3445
g77
g78
(I0
I6
I1
tp3446
Rp3447
sg81
g3428
sasstp3448
bsg83
g84
sg15
NsbsF10.0
g7
(g8
g9
Ntp3449
Rp3450
(dp3451
g13
g14
sg16
g7
(g17
g9
Ntp3452
Rp3453
((lp3454
g21
(g22
(dp3455
g24
g25
(g26
(I0
tp3456
g28
tp3457
Rp3458
(I1
(I6
tp3459
g35
I00
(lp3460
g39
ag40
ag41
ag42
ag43
ag44
atp3461
bsg15
Nstp3462
Rp3463
a(lp3464
g25
(g26
(I0
tp3465
g28
tp3466
Rp3467
(I1
(I6
tp3468
g55
I00
S'\xb6\x96\xd40bw\x03@\xfa\xac\xbdJ~\x0f$@\xc6\xf7f\xbd\xdf\xdd7@/\x01\x9aK\ru\x07@\x08\xe4\x0b\x1d]\x02\x0e@g\xab\x98\x8fcM\x12@'
p3469
tp3470
ba(lp3471
g21
(g22
(dp3472
g24
g25
(g26
(I0
tp3473
g28
tp3474
Rp3475
(I1
(I6
tp3476
g35
I00
(lp3477
g39
ag40
ag41
ag42
ag43
ag44
atp3478
bsg15
Nstp3479
Rp3480
a(dp3481
g71
(dp3482
g73
g3454
sg74
(lp3483
(dp3484
g77
g78
(I0
I6
I1
tp3485
Rp3486
sg81
g3467
sasstp3487
bsg83
g84
sg15
NsbsF15.0
g7
(g8
g9
Ntp3488
Rp3489
(dp3490
g13
g14
sg16
g7
(g17
g9
Ntp3491
Rp3492
((lp3493
g21
(g22
(dp3494
g24
g25
(g26
(I0
tp3495
g28
tp3496
Rp3497
(I1
(I6
tp3498
g35
I00
(lp3499
g39
ag40
ag41
ag42
ag43
ag44
atp3500
bsg15
Nstp3501
Rp3502
a(lp3503
g25
(g26
(I0
tp3504
g28
tp3505
Rp3506
(I1
(I6
tp3507
g55
I00
S'\x04N"\x85\x1c&\x02@\xc0u\x84\xc4Z\xd8\x1e@\'\xc1\xb9h\xc9\x995@j\xd0\xc1&[@\x00@Z_\nT\x94\xa5\x06@Kg4\xbc|o\xf7?'
p3508
tp3509
ba(lp3510
g21
(g22
(dp3511
g24
g25
(g26
(I0
tp3512
g28
tp3513
Rp3514
(I1
(I6
tp3515
g35
I00
(lp3516
g39
ag40
ag41
ag42
ag43
ag44
atp3517
bsg15
Nstp3518
Rp3519
a(dp3520
g71
(dp3521
g73
g3493
sg74
(lp3522
(dp3523
g77
g78
(I0
I6
I1
tp3524
Rp3525
sg81
g3506
sasstp3526
bsg83
g84
sg15
NsbsF80.0
g7
(g8
g9
Ntp3527
Rp3528
(dp3529
g13
g14
sg16
g7
(g17
g9
Ntp3530
Rp3531
((lp3532
g21
(g22
(dp3533
g24
g25
(g26
(I0
tp3534
g28
tp3535
Rp3536
(I1
(I6
tp3537
g35
I00
(lp3538
g39
ag40
ag41
ag42
ag43
ag44
atp3539
bsg15
Nstp3540
Rp3541
a(lp3542
g25
(g26
(I0
tp3543
g28
tp3544
Rp3545
(I1
(I6
tp3546
g55
I00
S'\xc2\x08`\xe7._\xff?j\x99\xef0!\x8e\x1c@\xe6\x11\x9b\x90\x0c\xd21@c\x03C\xb5\x04\x93\xfc?\xc5\x13\xe5g\x1f\xc0\x01@\x05oY\xc3\t\xa0\xe9?'
p3547
tp3548
ba(lp3549
g21
(g22
(dp3550
g24
g25
(g26
(I0
tp3551
g28
tp3552
Rp3553
(I1
(I6
tp3554
g35
I00
(lp3555
g39
ag40
ag41
ag42
ag43
ag44
atp3556
bsg15
Nstp3557
Rp3558
a(dp3559
g71
(dp3560
g73
g3532
sg74
(lp3561
(dp3562
g77
g78
(I0
I6
I1
tp3563
Rp3564
sg81
g3545
sasstp3565
bsg83
g84
sg15
NsbsF40.0
g7
(g8
g9
Ntp3566
Rp3567
(dp3568
g13
g14
sg16
g7
(g17
g9
Ntp3569
Rp3570
((lp3571
g21
(g22
(dp3572
g24
g25
(g26
(I0
tp3573
g28
tp3574
Rp3575
(I1
(I6
tp3576
g35
I00
(lp3577
g39
ag40
ag41
ag42
ag43
ag44
atp3578
bsg15
Nstp3579
Rp3580
a(lp3581
g25
(g26
(I0
tp3582
g28
tp3583
Rp3584
(I1
(I6
tp3585
g55
I00
S'N*f\xfe\xa2\x01\x00@\x9dh\x9a\xff\xc9\x7f\x1d@\x13\x9d\xf5\x12-\xf61@6\xbcu\xa6\x87]\xfe?\xbd\x8f\xf0?\x0b\x01\x02@\xe6\xf2\x02\x0e\xd9P\xed?'
p3586
tp3587
ba(lp3588
g21
(g22
(dp3589
g24
g25
(g26
(I0
tp3590
g28
tp3591
Rp3592
(I1
(I6
tp3593
g35
I00
(lp3594
g39
ag40
ag41
ag42
ag43
ag44
atp3595
bsg15
Nstp3596
Rp3597
a(dp3598
g71
(dp3599
g73
g3571
sg74
(lp3600
(dp3601
g77
g78
(I0
I6
I1
tp3602
Rp3603
sg81
g3584
sasstp3604
bsg83
g84
sg15
NsbsF50.0
g7
(g8
g9
Ntp3605
Rp3606
(dp3607
g13
g14
sg16
g7
(g17
g9
Ntp3608
Rp3609
((lp3610
g21
(g22
(dp3611
g24
g25
(g26
(I0
tp3612
g28
tp3613
Rp3614
(I1
(I6
tp3615
g35
I00
(lp3616
g39
ag40
ag41
ag42
ag43
ag44
atp3617
bsg15
Nstp3618
Rp3619
a(lp3620
g25
(g26
(I0
tp3621
g28
tp3622
Rp3623
(I1
(I6
tp3624
g55
I00
S'\x8eN\x1f\xc7;T\xff?%%CLQo\x1d@\x0e\xe2z\xbd\x1a$1@\x1bN\xd9- z\xfd?:\xa78\x87\x7f=\x01@c\x0bx\x83q~\xee?'
p3625
tp3626
ba(lp3627
g21
(g22
(dp3628
g24
g25
(g26
(I0
tp3629
g28
tp3630
Rp3631
(I1
(I6
tp3632
g35
I00
(lp3633
g39
ag40
ag41
ag42
ag43
ag44
atp3634
bsg15
Nstp3635
Rp3636
a(dp3637
g71
(dp3638
g73
g3610
sg74
(lp3639
(dp3640
g77
g78
(I0
I6
I1
tp3641
Rp3642
sg81
g3623
sasstp3643
bsg83
g84
sg15
NsbsF20.0
g7
(g8
g9
Ntp3644
Rp3645
(dp3646
g13
g14
sg16
g7
(g17
g9
Ntp3647
Rp3648
((lp3649
g21
(g22
(dp3650
g24
g25
(g26
(I0
tp3651
g28
tp3652
Rp3653
(I1
(I6
tp3654
g35
I00
(lp3655
g39
ag40
ag41
ag42
ag43
ag44
atp3656
bsg15
Nstp3657
Rp3658
a(lp3659
g25
(g26
(I0
tp3660
g28
tp3661
Rp3662
(I1
(I6
tp3663
g55
I00
S'6\xa0\x0cJ^\xd2\x01@\x10\xd83aQ7 @\x014\x92\xcfm\t5@.\x83D\r\xb7a\xff?\xca\x04dt\xe26\x06@N\x9e\x80\x01\xfe\xa4\xf3?'
p3664
tp3665
ba(lp3666
g21
(g22
(dp3667
g24
g25
(g26
(I0
tp3668
g28
tp3669
Rp3670
(I1
(I6
tp3671
g35
I00
(lp3672
g39
ag40
ag41
ag42
ag43
ag44
atp3673
bsg15
Nstp3674
Rp3675
a(dp3676
g71
(dp3677
g73
g3649
sg74
(lp3678
(dp3679
g77
g78
(I0
I6
I1
tp3680
Rp3681
sg81
g3662
sasstp3682
bsg83
g84
sg15
NsbsF90.0
g7
(g8
g9
Ntp3683
Rp3684
(dp3685
g13
g14
sg16
g7
(g17
g9
Ntp3686
Rp3687
((lp3688
g21
(g22
(dp3689
g24
g25
(g26
(I0
tp3690
g28
tp3691
Rp3692
(I1
(I6
tp3693
g35
I00
(lp3694
g39
ag40
ag41
ag42
ag43
ag44
atp3695
bsg15
Nstp3696
Rp3697
a(lp3698
g25
(g26
(I0
tp3699
g28
tp3700
Rp3701
(I1
(I6
tp3702
g55
I00
S'\xde5o\x026\xee\xfe?\xae\xa81~\x8a\x12\x1e@r{\xb5\x87\xad\xad0@\xe2\x8c)\x17q\x8c\xfd?\xf7\xe3\xa1\x17\x884\x01@#\x0f\xab\x92Kc\xe7?'
p3703
tp3704
ba(lp3705
g21
(g22
(dp3706
g24
g25
(g26
(I0
tp3707
g28
tp3708
Rp3709
(I1
(I6
tp3710
g35
I00
(lp3711
g39
ag40
ag41
ag42
ag43
ag44
atp3712
bsg15
Nstp3713
Rp3714
a(dp3715
g71
(dp3716
g73
g3688
sg74
(lp3717
(dp3718
g77
g78
(I0
I6
I1
tp3719
Rp3720
sg81
g3701
sasstp3721
bsg83
g84
sg15
NsbsF60.0
g7
(g8
g9
Ntp3722
Rp3723
(dp3724
g13
g14
sg16
g7
(g17
g9
Ntp3725
Rp3726
((lp3727
g21
(g22
(dp3728
g24
g25
(g26
(I0
tp3729
g28
tp3730
Rp3731
(I1
(I6
tp3732
g35
I00
(lp3733
g39
ag40
ag41
ag42
ag43
ag44
atp3734
bsg15
Nstp3735
Rp3736
a(lp3737
g25
(g26
(I0
tp3738
g28
tp3739
Rp3740
(I1
(I6
tp3741
g55
I00
S'.\\\x8cg]Z\xff?\xe6\xb9~\x9d\xf1\xd9\x1d@\xfb\x89\xa4\xc4<%1@\xd8\xf5g"~e\xfd?\xc6M\xd5\xfe\x83\xa4\x01@\xbe\xda\xf5_\xed\xb3\xea?'
p3742
tp3743
ba(lp3744
g21
(g22
(dp3745
g24
g25
(g26
(I0
tp3746
g28
tp3747
Rp3748
(I1
(I6
tp3749
g35
I00
(lp3750
g39
ag40
ag41
ag42
ag43
ag44
atp3751
bsg15
Nstp3752
Rp3753
a(dp3754
g71
(dp3755
g73
g3727
sg74
(lp3756
(dp3757
g77
g78
(I0
I6
I1
tp3758
Rp3759
sg81
g3740
sasstp3760
bsg83
g84
sg15
NsbsF30.0
g7
(g8
g9
Ntp3761
Rp3762
(dp3763
g13
g14
sg16
g7
(g17
g9
Ntp3764
Rp3765
((lp3766
g21
(g22
(dp3767
g24
g25
(g26
(I0
tp3768
g28
tp3769
Rp3770
(I1
(I6
tp3771
g35
I00
(lp3772
g39
ag40
ag41
ag42
ag43
ag44
atp3773
bsg15
Nstp3774
Rp3775
a(lp3776
g25
(g26
(I0
tp3777
g28
tp3778
Rp3779
(I1
(I6
tp3780
g55
I00
S'\xf0\x9b\xfat\xc7\xe4\xff?R\x80\xc5\xe50\x14\x1f@\xc0\xb6U\xb9\xf0o3@\xc5m\xb9U\x07h\xff?\xda\x7f\\\t\xa1\\\x02@8\x82\xaa\xb3\xe4U\xf0?'
p3781
tp3782
ba(lp3783
g21
(g22
(dp3784
g24
g25
(g26
(I0
tp3785
g28
tp3786
Rp3787
(I1
(I6
tp3788
g35
I00
(lp3789
g39
ag40
ag41
ag42
ag43
ag44
atp3790
bsg15
Nstp3791
Rp3792
a(dp3793
g71
(dp3794
g73
g3766
sg74
(lp3795
(dp3796
g77
g78
(I0
I6
I1
tp3797
Rp3798
sg81
g3779
sasstp3799
bsg83
g84
sg15
Nsbsssg1296
(dp3800
g5
(dp3801
F0.0
g7
(g8
g9
Ntp3802
Rp3803
(dp3804
g13
g14
sg16
g7
(g17
g9
Ntp3805
Rp3806
((lp3807
g21
(g22
(dp3808
g24
g25
(g26
(I0
tp3809
g28
tp3810
Rp3811
(I1
(I6
tp3812
g35
I00
(lp3813
g39
ag40
ag41
ag42
ag43
ag44
atp3814
bsg15
Nstp3815
Rp3816
a(lp3817
g25
(g26
(I0
tp3818
g28
tp3819
Rp3820
(I1
(I6
tp3821
g55
I00
S'1\xbd\x0cSW\x9e\x00@GN\x93\xd5\xa1R"@\x16\xf1\xa3\x11\xafa8@\x10C<\xd0\x1bT\x05@\x01\x90\xe3\x88\x95\xf2\x06@\x86\xf8\xb8\xf8#\xfe\xf3?'
p3822
tp3823
ba(lp3824
g21
(g22
(dp3825
g24
g25
(g26
(I0
tp3826
g28
tp3827
Rp3828
(I1
(I6
tp3829
g35
I00
(lp3830
g39
ag40
ag41
ag42
ag43
ag44
atp3831
bsg15
Nstp3832
Rp3833
a(dp3834
g71
(dp3835
g73
g3807
sg74
(lp3836
(dp3837
g77
g78
(I0
I6
I1
tp3838
Rp3839
sg81
g3820
sasstp3840
bsg83
g84
sg15
NsbsF100.0
g7
(g8
g9
Ntp3841
Rp3842
(dp3843
g13
g14
sg16
g7
(g17
g9
Ntp3844
Rp3845
((lp3846
g21
(g22
(dp3847
g24
g25
(g26
(I0
tp3848
g28
tp3849
Rp3850
(I1
(I6
tp3851
g35
I00
(lp3852
g39
ag40
ag41
ag42
ag43
ag44
atp3853
bsg15
Nstp3854
Rp3855
a(lp3856
g25
(g26
(I0
tp3857
g28
tp3858
Rp3859
(I1
(I6
tp3860
g55
I00
S'V\xc2^b\x95{\xfd?\xbav\x92\x07\x08\xf8"@\xb6_\x19\x0c\x15\xc3/@\x14\xd2\xabqD\xc3\x00@\x1aR\xf4p?\xb9\x01@&\x98\xbf\x98\x8d\xfb\xe7?'
p3861
tp3862
ba(lp3863
g21
(g22
(dp3864
g24
g25
(g26
(I0
tp3865
g28
tp3866
Rp3867
(I1
(I6
tp3868
g35
I00
(lp3869
g39
ag40
ag41
ag42
ag43
ag44
atp3870
bsg15
Nstp3871
Rp3872
a(dp3873
g71
(dp3874
g73
g3846
sg74
(lp3875
(dp3876
g77
g78
(I0
I6
I1
tp3877
Rp3878
sg81
g3859
sasstp3879
bsg83
g84
sg15
NsbsF70.0
g7
(g8
g9
Ntp3880
Rp3881
(dp3882
g13
g14
sg16
g7
(g17
g9
Ntp3883
Rp3884
((lp3885
g21
(g22
(dp3886
g24
g25
(g26
(I0
tp3887
g28
tp3888
Rp3889
(I1
(I6
tp3890
g35
I00
(lp3891
g39
ag40
ag41
ag42
ag43
ag44
atp3892
bsg15
Nstp3893
Rp3894
a(lp3895
g25
(g26
(I0
tp3896
g28
tp3897
Rp3898
(I1
(I6
tp3899
g55
I00
S'\xbd\xcc\x16\xf9\xa2\xda\xff?\x9b1\xac\x9d\x89\xf8 @#+\x8c\xfa\x84\xdd.@E\x13\xb5\x03\x94f\x00@\x976z\x07<\xed\x01@\x0e\xb0\x97\xa1\xbe\xbd\xe7?'
p3900
tp3901
ba(lp3902
g21
(g22
(dp3903
g24
g25
(g26
(I0
tp3904
g28
tp3905
Rp3906
(I1
(I6
tp3907
g35
I00
(lp3908
g39
ag40
ag41
ag42
ag43
ag44
atp3909
bsg15
Nstp3910
Rp3911
a(dp3912
g71
(dp3913
g73
g3885
sg74
(lp3914
(dp3915
g77
g78
(I0
I6
I1
tp3916
Rp3917
sg81
g3898
sasstp3918
bsg83
g84
sg15
NsbsF6.0
g7
(g8
g9
Ntp3919
Rp3920
(dp3921
g13
g14
sg16
g7
(g17
g9
Ntp3922
Rp3923
((lp3924
g21
(g22
(dp3925
g24
g25
(g26
(I0
tp3926
g28
tp3927
Rp3928
(I1
(I6
tp3929
g35
I00
(lp3930
g39
ag40
ag41
ag42
ag43
ag44
atp3931
bsg15
Nstp3932
Rp3933
a(lp3934
g25
(g26
(I0
tp3935
g28
tp3936
Rp3937
(I1
(I6
tp3938
g55
I00
S'\x9e\xe7cd\xa3y\x01@\x97\x91\x8f\xfd\xab\x12"@fR\xabM/*3@d\x9f \xa8sn\x00@U\xc2\x8b\xc1\xc8\x87\x05@\x16\xcb_vr\xdc\xe8?'
p3939
tp3940
ba(lp3941
g21
(g22
(dp3942
g24
g25
(g26
(I0
tp3943
g28
tp3944
Rp3945
(I1
(I6
tp3946
g35
I00
(lp3947
g39
ag40
ag41
ag42
ag43
ag44
atp3948
bsg15
Nstp3949
Rp3950
a(dp3951
g71
(dp3952
g73
g3924
sg74
(lp3953
(dp3954
g77
g78
(I0
I6
I1
tp3955
Rp3956
sg81
g3937
sasstp3957
bsg83
g84
sg15
NsbsF7.0
g7
(g8
g9
Ntp3958
Rp3959
(dp3960
g13
g14
sg16
g7
(g17
g9
Ntp3961
Rp3962
((lp3963
g21
(g22
(dp3964
g24
g25
(g26
(I0
tp3965
g28
tp3966
Rp3967
(I1
(I6
tp3968
g35
I00
(lp3969
g39
ag40
ag41
ag42
ag43
ag44
atp3970
bsg15
Nstp3971
Rp3972
a(lp3973
g25
(g26
(I0
tp3974
g28
tp3975
Rp3976
(I1
(I6
tp3977
g55
I00
S'\xac\x16\xda`\xa3y\x01@\x9f\x03\x84\xff\xab\x12"@\x8a\xc1\xc6N/*3@\x0e\r\xef\xa6sn\x00@\xe5C}\xc1\xc8\x87\x05@\xb5\x1f\xb8ur\xdc\xe8?'
p3978
tp3979
ba(lp3980
g21
(g22
(dp3981
g24
g25
(g26
(I0
tp3982
g28
tp3983
Rp3984
(I1
(I6
tp3985
g35
I00
(lp3986
g39
ag40
ag41
ag42
ag43
ag44
atp3987
bsg15
Nstp3988
Rp3989
a(dp3990
g71
(dp3991
g73
g3963
sg74
(lp3992
(dp3993
g77
g78
(I0
I6
I1
tp3994
Rp3995
sg81
g3976
sasstp3996
bsg83
g84
sg15
NsbsF8.0
g7
(g8
g9
Ntp3997
Rp3998
(dp3999
g13
g14
sg16
g7
(g17
g9
Ntp4000
Rp4001
((lp4002
g21
(g22
(dp4003
g24
g25
(g26
(I0
tp4004
g28
tp4005
Rp4006
(I1
(I6
tp4007
g35
I00
(lp4008
g39
ag40
ag41
ag42
ag43
ag44
atp4009
bsg15
Nstp4010
Rp4011
a(lp4012
g25
(g26
(I0
tp4013
g28
tp4014
Rp4015
(I1
(I6
tp4016
g55
I00
S'\xec>\xd9`\xa3y\x01@\x16?\x83\xff\xab\x12"@\xc1:\xc6N/*3@\xe5#\xef\xa6sn\x00@\x92\xa4|\xc1\xc8\x87\x05@l\n\xb8ur\xdc\xe8?'
p4017
tp4018
ba(lp4019
g21
(g22
(dp4020
g24
g25
(g26
(I0
tp4021
g28
tp4022
Rp4023
(I1
(I6
tp4024
g35
I00
(lp4025
g39
ag40
ag41
ag42
ag43
ag44
atp4026
bsg15
Nstp4027
Rp4028
a(dp4029
g71
(dp4030
g73
g4002
sg74
(lp4031
(dp4032
g77
g78
(I0
I6
I1
tp4033
Rp4034
sg81
g4015
sasstp4035
bsg83
g84
sg15
NsbsF9.0
g7
(g8
g9
Ntp4036
Rp4037
(dp4038
g13
g14
sg16
g7
(g17
g9
Ntp4039
Rp4040
((lp4041
g21
(g22
(dp4042
g24
g25
(g26
(I0
tp4043
g28
tp4044
Rp4045
(I1
(I6
tp4046
g35
I00
(lp4047
g39
ag40
ag41
ag42
ag43
ag44
atp4048
bsg15
Nstp4049
Rp4050
a(lp4051
g25
(g26
(I0
tp4052
g28
tp4053
Rp4054
(I1
(I6
tp4055
g55
I00
S'\x8a\xc2\xb67\xc4b\x01@^EXNm\xba!@\xea\x1bXF\xb3\xd42@[\xf8\xc0\xf8\xe2\xe7\x00@Z&\x1c\x99zg\x05@\x13\xaa\x1aa\xb2l\xe9?'
p4056
tp4057
ba(lp4058
g21
(g22
(dp4059
g24
g25
(g26
(I0
tp4060
g28
tp4061
Rp4062
(I1
(I6
tp4063
g35
I00
(lp4064
g39
ag40
ag41
ag42
ag43
ag44
atp4065
bsg15
Nstp4066
Rp4067
a(dp4068
g71
(dp4069
g73
g4041
sg74
(lp4070
(dp4071
g77
g78
(I0
I6
I1
tp4072
Rp4073
sg81
g4054
sasstp4074
bsg83
g84
sg15
NsbsF10.0
g7
(g8
g9
Ntp4075
Rp4076
(dp4077
g13
g14
sg16
g7
(g17
g9
Ntp4078
Rp4079
((lp4080
g21
(g22
(dp4081
g24
g25
(g26
(I0
tp4082
g28
tp4083
Rp4084
(I1
(I6
tp4085
g35
I00
(lp4086
g39
ag40
ag41
ag42
ag43
ag44
atp4087
bsg15
Nstp4088
Rp4089
a(lp4090
g25
(g26
(I0
tp4091
g28
tp4092
Rp4093
(I1
(I6
tp4094
g55
I00
S'>\x10T6\xc4b\x01@\xe1ypMm\xba!@\xf31\x1cJ\xb3\xd42@j\x8d\xf2\xf6\xe2\xe7\x00@\xb3\xbf@\x96zg\x05@O\xeb\xb0a\xb2l\xe9?'
p4095
tp4096
ba(lp4097
g21
(g22
(dp4098
g24
g25
(g26
(I0
tp4099
g28
tp4100
Rp4101
(I1
(I6
tp4102
g35
I00
(lp4103
g39
ag40
ag41
ag42
ag43
ag44
atp4104
bsg15
Nstp4105
Rp4106
a(dp4107
g71
(dp4108
g73
g4080
sg74
(lp4109
(dp4110
g77
g78
(I0
I6
I1
tp4111
Rp4112
sg81
g4093
sasstp4113
bsg83
g84
sg15
NsbsF15.0
g7
(g8
g9
Ntp4114
Rp4115
(dp4116
g13
g14
sg16
g7
(g17
g9
Ntp4117
Rp4118
((lp4119
g21
(g22
(dp4120
g24
g25
(g26
(I0
tp4121
g28
tp4122
Rp4123
(I1
(I6
tp4124
g35
I00
(lp4125
g39
ag40
ag41
ag42
ag43
ag44
atp4126
bsg15
Nstp4127
Rp4128
a(lp4129
g25
(g26
(I0
tp4130
g28
tp4131
Rp4132
(I1
(I6
tp4133
g55
I00
S'P\xc82\nv\x9b\x01@S[\xda\\w\xe0!@\xaa\n?\xfb\x08\xb40@J\xa9\\\xafT\xf1\x00@z\xaf\x14\x9c\x88\xab\x06@[\xb8?\x03\x1f,\xe9?'
p4134
tp4135
ba(lp4136
g21
(g22
(dp4137
g24
g25
(g26
(I0
tp4138
g28
tp4139
Rp4140
(I1
(I6
tp4141
g35
I00
(lp4142
g39
ag40
ag41
ag42
ag43
ag44
atp4143
bsg15
Nstp4144
Rp4145
a(dp4146
g71
(dp4147
g73
g4119
sg74
(lp4148
(dp4149
g77
g78
(I0
I6
I1
tp4150
Rp4151
sg81
g4132
sasstp4152
bsg83
g84
sg15
NsbsF80.0
g7
(g8
g9
Ntp4153
Rp4154
(dp4155
g13
g14
sg16
g7
(g17
g9
Ntp4156
Rp4157
((lp4158
g21
(g22
(dp4159
g24
g25
(g26
(I0
tp4160
g28
tp4161
Rp4162
(I1
(I6
tp4163
g35
I00
(lp4164
g39
ag40
ag41
ag42
ag43
ag44
atp4165
bsg15
Nstp4166
Rp4167
a(lp4168
g25
(g26
(I0
tp4169
g28
tp4170
Rp4171
(I1
(I6
tp4172
g55
I00
S'\xf3\xa6=\xa5\\6\xff?+%\x9f\x9c\x14\x03"@\xb3\xe3Xm\xd5K/@\x14\xd0\xdfU\xb27\x00@N \xfe{\x0f\xcc\x02@\xb2d;],\xc3\xe6?'
p4173
tp4174
ba(lp4175
g21
(g22
(dp4176
g24
g25
(g26
(I0
tp4177
g28
tp4178
Rp4179
(I1
(I6
tp4180
g35
I00
(lp4181
g39
ag40
ag41
ag42
ag43
ag44
atp4182
bsg15
Nstp4183
Rp4184
a(dp4185
g71
(dp4186
g73
g4158
sg74
(lp4187
(dp4188
g77
g78
(I0
I6
I1
tp4189
Rp4190
sg81
g4171
sasstp4191
bsg83
g84
sg15
NsbsF40.0
g7
(g8
g9
Ntp4192
Rp4193
(dp4194
g13
g14
sg16
g7
(g17
g9
Ntp4195
Rp4196
((lp4197
g21
(g22
(dp4198
g24
g25
(g26
(I0
tp4199
g28
tp4200
Rp4201
(I1
(I6
tp4202
g35
I00
(lp4203
g39
ag40
ag41
ag42
ag43
ag44
atp4204
bsg15
Nstp4205
Rp4206
a(lp4207
g25
(g26
(I0
tp4208
g28
tp4209
Rp4210
(I1
(I6
tp4211
g55
I00
S'\xbb\x9d\xef\xfc\x11\xab\xff?\x07D\xe8\xa2cz!@X"\xcd`^X0@\xaa\x1d@\xe99\x81\x00@\xbe\x8bG\x1c\x96/\x04@M\xdf\xa3\xa4\xc5\xfb\xe7?'
p4212
tp4213
ba(lp4214
g21
(g22
(dp4215
g24
g25
(g26
(I0
tp4216
g28
tp4217
Rp4218
(I1
(I6
tp4219
g35
I00
(lp4220
g39
ag40
ag41
ag42
ag43
ag44
atp4221
bsg15
Nstp4222
Rp4223
a(dp4224
g71
(dp4225
g73
g4197
sg74
(lp4226
(dp4227
g77
g78
(I0
I6
I1
tp4228
Rp4229
sg81
g4210
sasstp4230
bsg83
g84
sg15
NsbsF50.0
g7
(g8
g9
Ntp4231
Rp4232
(dp4233
g13
g14
sg16
g7
(g17
g9
Ntp4234
Rp4235
((lp4236
g21
(g22
(dp4237
g24
g25
(g26
(I0
tp4238
g28
tp4239
Rp4240
(I1
(I6
tp4241
g35
I00
(lp4242
g39
ag40
ag41
ag42
ag43
ag44
atp4243
bsg15
Nstp4244
Rp4245
a(lp4246
g25
(g26
(I0
tp4247
g28
tp4248
Rp4249
(I1
(I6
tp4250
g55
I00
S'\xbb\xa7n!\x14l\xff?@g\xe9L\xb2\xe9 @(\n\xeaOCr0@\x03Z\xc7\xee\xfds\x00@ \x7f\xd7(D\xa8\x02@\x030\x1e\x9c\xbd\xe5\xe7?'
p4251
tp4252
ba(lp4253
g21
(g22
(dp4254
g24
g25
(g26
(I0
tp4255
g28
tp4256
Rp4257
(I1
(I6
tp4258
g35
I00
(lp4259
g39
ag40
ag41
ag42
ag43
ag44
atp4260
bsg15
Nstp4261
Rp4262
a(dp4263
g71
(dp4264
g73
g4236
sg74
(lp4265
(dp4266
g77
g78
(I0
I6
I1
tp4267
Rp4268
sg81
g4249
sasstp4269
bsg83
g84
sg15
NsbsF20.0
g7
(g8
g9
Ntp4270
Rp4271
(dp4272
g13
g14
sg16
g7
(g17
g9
Ntp4273
Rp4274
((lp4275
g21
(g22
(dp4276
g24
g25
(g26
(I0
tp4277
g28
tp4278
Rp4279
(I1
(I6
tp4280
g35
I00
(lp4281
g39
ag40
ag41
ag42
ag43
ag44
atp4282
bsg15
Nstp4283
Rp4284
a(lp4285
g25
(g26
(I0
tp4286
g28
tp4287
Rp4288
(I1
(I6
tp4289
g55
I00
S'\x91\x0b\xdf\x9b\t\x9d\x01@\x82\xdb\x1e\xf9\xf4p @\x01\x89\xa8]\x8d\xd11@\x88\xd9\x01\x10\xba~\x00@Z\x98\xdc\x1d\xa5T\x06@.k\xd49\x029\xe8?'
p4290
tp4291
ba(lp4292
g21
(g22
(dp4293
g24
g25
(g26
(I0
tp4294
g28
tp4295
Rp4296
(I1
(I6
tp4297
g35
I00
(lp4298
g39
ag40
ag41
ag42
ag43
ag44
atp4299
bsg15
Nstp4300
Rp4301
a(dp4302
g71
(dp4303
g73
g4275
sg74
(lp4304
(dp4305
g77
g78
(I0
I6
I1
tp4306
Rp4307
sg81
g4288
sasstp4308
bsg83
g84
sg15
NsbsF90.0
g7
(g8
g9
Ntp4309
Rp4310
(dp4311
g13
g14
sg16
g7
(g17
g9
Ntp4312
Rp4313
((lp4314
g21
(g22
(dp4315
g24
g25
(g26
(I0
tp4316
g28
tp4317
Rp4318
(I1
(I6
tp4319
g35
I00
(lp4320
g39
ag40
ag41
ag42
ag43
ag44
atp4321
bsg15
Nstp4322
Rp4323
a(lp4324
g25
(g26
(I0
tp4325
g28
tp4326
Rp4327
(I1
(I6
tp4328
g55
I00
S'\x0b\x85G\x12[#\xfe?}\x9c\xb0\x9e\x07U"@F\x04\xfb&\xa2\xd9/@\xd6\xc27\xad\x9ch\x00@\xd5\x8d\xe5\x05\x1b\xa4\x01@&-\xde\xc2\xfa\xd4\xe7?'
p4329
tp4330
ba(lp4331
g21
(g22
(dp4332
g24
g25
(g26
(I0
tp4333
g28
tp4334
Rp4335
(I1
(I6
tp4336
g35
I00
(lp4337
g39
ag40
ag41
ag42
ag43
ag44
atp4338
bsg15
Nstp4339
Rp4340
a(dp4341
g71
(dp4342
g73
g4314
sg74
(lp4343
(dp4344
g77
g78
(I0
I6
I1
tp4345
Rp4346
sg81
g4327
sasstp4347
bsg83
g84
sg15
NsbsF60.0
g7
(g8
g9
Ntp4348
Rp4349
(dp4350
g13
g14
sg16
g7
(g17
g9
Ntp4351
Rp4352
((lp4353
g21
(g22
(dp4354
g24
g25
(g26
(I0
tp4355
g28
tp4356
Rp4357
(I1
(I6
tp4358
g35
I00
(lp4359
g39
ag40
ag41
ag42
ag43
ag44
atp4360
bsg15
Nstp4361
Rp4362
a(lp4363
g25
(g26
(I0
tp4364
g28
tp4365
Rp4366
(I1
(I6
tp4367
g55
I00
S'\xdf\x8b\xa8\x8c\xd4(\x00@\xeb?d\x15EF!@\x80v\xec}v\x180@\xba\xf7\xb2\xa9~\x86\x00@\xb0\xb5\xcb%;\x16\x03@NOK\x84\x82\x18\xe8?'
p4368
tp4369
ba(lp4370
g21
(g22
(dp4371
g24
g25
(g26
(I0
tp4372
g28
tp4373
Rp4374
(I1
(I6
tp4375
g35
I00
(lp4376
g39
ag40
ag41
ag42
ag43
ag44
atp4377
bsg15
Nstp4378
Rp4379
a(dp4380
g71
(dp4381
g73
g4353
sg74
(lp4382
(dp4383
g77
g78
(I0
I6
I1
tp4384
Rp4385
sg81
g4366
sasstp4386
bsg83
g84
sg15
NsbsF30.0
g7
(g8
g9
Ntp4387
Rp4388
(dp4389
g13
g14
sg16
g7
(g17
g9
Ntp4390
Rp4391
((lp4392
g21
(g22
(dp4393
g24
g25
(g26
(I0
tp4394
g28
tp4395
Rp4396
(I1
(I6
tp4397
g35
I00
(lp4398
g39
ag40
ag41
ag42
ag43
ag44
atp4399
bsg15
Nstp4400
Rp4401
a(lp4402
g25
(g26
(I0
tp4403
g28
tp4404
Rp4405
(I1
(I6
tp4406
g55
I00
S'\xc2|`\xf5\xd7)\x00@J\xd6\x9e\xbb%\xab!@z\xf0\t\xc8-\x810@\xf9_\x01\xb0jq\x00@\xdd\xccM:0\x12\x04@\x1d\x8a^\x99\xadv\xe8?'
p4407
tp4408
ba(lp4409
g21
(g22
(dp4410
g24
g25
(g26
(I0
tp4411
g28
tp4412
Rp4413
(I1
(I6
tp4414
g35
I00
(lp4415
g39
ag40
ag41
ag42
ag43
ag44
atp4416
bsg15
Nstp4417
Rp4418
a(dp4419
g71
(dp4420
g73
g4392
sg74
(lp4421
(dp4422
g77
g78
(I0
I6
I1
tp4423
Rp4424
sg81
g4405
sasstp4425
bsg83
g84
sg15
Nsbssg670
(dp4426
F0.0
g7
(g8
g9
Ntp4427
Rp4428
(dp4429
g13
g14
sg16
g7
(g17
g9
Ntp4430
Rp4431
((lp4432
g21
(g22
(dp4433
g24
g25
(g26
(I0
tp4434
g28
tp4435
Rp4436
(I1
(I6
tp4437
g35
I00
(lp4438
g39
ag40
ag41
ag42
ag43
ag44
atp4439
bsg15
Nstp4440
Rp4441
a(lp4442
g25
(g26
(I0
tp4443
g28
tp4444
Rp4445
(I1
(I6
tp4446
g55
I00
S'\xda|\x1f\xa9_11@\xaa\x11\xd8\xf2\xdfn\x1f@\xd7[\xfd`\xc1r4@\xf8l\xa5\x9a\x1a(2@\x0e\x91\xa2\xd9\xcf5-@\tYP\xe9\x13\x9f0@'
p4447
tp4448
ba(lp4449
g21
(g22
(dp4450
g24
g25
(g26
(I0
tp4451
g28
tp4452
Rp4453
(I1
(I6
tp4454
g35
I00
(lp4455
g39
ag40
ag41
ag42
ag43
ag44
atp4456
bsg15
Nstp4457
Rp4458
a(dp4459
g71
(dp4460
g73
g4432
sg74
(lp4461
(dp4462
g77
g78
(I0
I6
I1
tp4463
Rp4464
sg81
g4445
sasstp4465
bsg83
g84
sg15
NsbsF100.0
g7
(g8
g9
Ntp4466
Rp4467
(dp4468
g13
g14
sg16
g7
(g17
g9
Ntp4469
Rp4470
((lp4471
g21
(g22
(dp4472
g24
g25
(g26
(I0
tp4473
g28
tp4474
Rp4475
(I1
(I6
tp4476
g35
I00
(lp4477
g39
ag40
ag41
ag42
ag43
ag44
atp4478
bsg15
Nstp4479
Rp4480
a(lp4481
g25
(g26
(I0
tp4482
g28
tp4483
Rp4484
(I1
(I6
tp4485
g55
I00
S'\xe0\x81\x07\n\xe4d\xfe?\xb0O\x16\x01\xde\x83\x1c@\x92\x9a\xe1$}H2@@i\xfb\xb7\x18|\xfc?\xa5\xb1l\x17\x9e\x1c\x01@\xbb\xaby\xc7\xc6\x17\xe6?'
p4486
tp4487
ba(lp4488
g21
(g22
(dp4489
g24
g25
(g26
(I0
tp4490
g28
tp4491
Rp4492
(I1
(I6
tp4493
g35
I00
(lp4494
g39
ag40
ag41
ag42
ag43
ag44
atp4495
bsg15
Nstp4496
Rp4497
a(dp4498
g71
(dp4499
g73
g4471
sg74
(lp4500
(dp4501
g77
g78
(I0
I6
I1
tp4502
Rp4503
sg81
g4484
sasstp4504
bsg83
g84
sg15
NsbsF70.0
g7
(g8
g9
Ntp4505
Rp4506
(dp4507
g13
g14
sg16
g7
(g17
g9
Ntp4508
Rp4509
((lp4510
g21
(g22
(dp4511
g24
g25
(g26
(I0
tp4512
g28
tp4513
Rp4514
(I1
(I6
tp4515
g35
I00
(lp4516
g39
ag40
ag41
ag42
ag43
ag44
atp4517
bsg15
Nstp4518
Rp4519
a(lp4520
g25
(g26
(I0
tp4521
g28
tp4522
Rp4523
(I1
(I6
tp4524
g55
I00
S'\x1b\xad\xa4<\xda/\xff?\xa2\xa4\x83-\xa1\xa9\x1d@\xfb\xf6\xed\xbcy\xce3@\xb8\xd6\x17\xb2\xfdj\xfd?ri\xa6\xf6t\xd6\x01@[\x8d\x9d\xcb;\xc8\xea?'
p4525
tp4526
ba(lp4527
g21
(g22
(dp4528
g24
g25
(g26
(I0
tp4529
g28
tp4530
Rp4531
(I1
(I6
tp4532
g35
I00
(lp4533
g39
ag40
ag41
ag42
ag43
ag44
atp4534
bsg15
Nstp4535
Rp4536
a(dp4537
g71
(dp4538
g73
g4510
sg74
(lp4539
(dp4540
g77
g78
(I0
I6
I1
tp4541
Rp4542
sg81
g4523
sasstp4543
bsg83
g84
sg15
NsbsF6.0
g7
(g8
g9
Ntp4544
Rp4545
(dp4546
g13
g14
sg16
g7
(g17
g9
Ntp4547
Rp4548
((lp4549
g21
(g22
(dp4550
g24
g25
(g26
(I0
tp4551
g28
tp4552
Rp4553
(I1
(I6
tp4554
g35
I00
(lp4555
g39
ag40
ag41
ag42
ag43
ag44
atp4556
bsg15
Nstp4557
Rp4558
a(lp4559
g25
(g26
(I0
tp4560
g28
tp4561
Rp4562
(I1
(I6
tp4563
g55
I00
S'Rol\xe2\xa3\xcd\x06@\x9e`V@?o"@p\x0c^\xab\xbc\x039@\xd7\xa4\x07\xb1\x02\xaf\x06@\xca\xfa9\xb6\x1e_\x11@\xac\xcf7j#%\x18@'
p4564
tp4565
ba(lp4566
g21
(g22
(dp4567
g24
g25
(g26
(I0
tp4568
g28
tp4569
Rp4570
(I1
(I6
tp4571
g35
I00
(lp4572
g39
ag40
ag41
ag42
ag43
ag44
atp4573
bsg15
Nstp4574
Rp4575
a(dp4576
g71
(dp4577
g73
g4549
sg74
(lp4578
(dp4579
g77
g78
(I0
I6
I1
tp4580
Rp4581
sg81
g4562
sasstp4582
bsg83
g84
sg15
NsbsF7.0
g7
(g8
g9
Ntp4583
Rp4584
(dp4585
g13
g14
sg16
g7
(g17
g9
Ntp4586
Rp4587
((lp4588
g21
(g22
(dp4589
g24
g25
(g26
(I0
tp4590
g28
tp4591
Rp4592
(I1
(I6
tp4593
g35
I00
(lp4594
g39
ag40
ag41
ag42
ag43
ag44
atp4595
bsg15
Nstp4596
Rp4597
a(lp4598
g25
(g26
(I0
tp4599
g28
tp4600
Rp4601
(I1
(I6
tp4602
g55
I00
S'Rol\xe2\xa3\xcd\x06@\x9e`V@?o"@p\x0c^\xab\xbc\x039@\xd7\xa4\x07\xb1\x02\xaf\x06@\xca\xfa9\xb6\x1e_\x11@\xac\xcf7j#%\x18@'
p4603
tp4604
ba(lp4605
g21
(g22
(dp4606
g24
g25
(g26
(I0
tp4607
g28
tp4608
Rp4609
(I1
(I6
tp4610
g35
I00
(lp4611
g39
ag40
ag41
ag42
ag43
ag44
atp4612
bsg15
Nstp4613
Rp4614
a(dp4615
g71
(dp4616
g73
g4588
sg74
(lp4617
(dp4618
g77
g78
(I0
I6
I1
tp4619
Rp4620
sg81
g4601
sasstp4621
bsg83
g84
sg15
NsbsF8.0
g7
(g8
g9
Ntp4622
Rp4623
(dp4624
g13
g14
sg16
g7
(g17
g9
Ntp4625
Rp4626
((lp4627
g21
(g22
(dp4628
g24
g25
(g26
(I0
tp4629
g28
tp4630
Rp4631
(I1
(I6
tp4632
g35
I00
(lp4633
g39
ag40
ag41
ag42
ag43
ag44
atp4634
bsg15
Nstp4635
Rp4636
a(lp4637
g25
(g26
(I0
tp4638
g28
tp4639
Rp4640
(I1
(I6
tp4641
g55
I00
S'Rol\xe2\xa3\xcd\x06@\x9e`V@?o"@p\x0c^\xab\xbc\x039@\xd7\xa4\x07\xb1\x02\xaf\x06@\xca\xfa9\xb6\x1e_\x11@\xac\xcf7j#%\x18@'
p4642
tp4643
ba(lp4644
g21
(g22
(dp4645
g24
g25
(g26
(I0
tp4646
g28
tp4647
Rp4648
(I1
(I6
tp4649
g35
I00
(lp4650
g39
ag40
ag41
ag42
ag43
ag44
atp4651
bsg15
Nstp4652
Rp4653
a(dp4654
g71
(dp4655
g73
g4627
sg74
(lp4656
(dp4657
g77
g78
(I0
I6
I1
tp4658
Rp4659
sg81
g4640
sasstp4660
bsg83
g84
sg15
NsbsF9.0
g7
(g8
g9
Ntp4661
Rp4662
(dp4663
g13
g14
sg16
g7
(g17
g9
Ntp4664
Rp4665
((lp4666
g21
(g22
(dp4667
g24
g25
(g26
(I0
tp4668
g28
tp4669
Rp4670
(I1
(I6
tp4671
g35
I00
(lp4672
g39
ag40
ag41
ag42
ag43
ag44
atp4673
bsg15
Nstp4674
Rp4675
a(lp4676
g25
(g26
(I0
tp4677
g28
tp4678
Rp4679
(I1
(I6
tp4680
g55
I00
S'\xb6\x96\xd40bw\x03@\xfa\xac\xbdJ~\x0f$@\xc6\xf7f\xbd\xdf\xdd7@/\x01\x9aK\ru\x07@\x08\xe4\x0b\x1d]\x02\x0e@g\xab\x98\x8fcM\x12@'
p4681
tp4682
ba(lp4683
g21
(g22
(dp4684
g24
g25
(g26
(I0
tp4685
g28
tp4686
Rp4687
(I1
(I6
tp4688
g35
I00
(lp4689
g39
ag40
ag41
ag42
ag43
ag44
atp4690
bsg15
Nstp4691
Rp4692
a(dp4693
g71
(dp4694
g73
g4666
sg74
(lp4695
(dp4696
g77
g78
(I0
I6
I1
tp4697
Rp4698
sg81
g4679
sasstp4699
bsg83
g84
sg15
NsbsF10.0
g7
(g8
g9
Ntp4700
Rp4701
(dp4702
g13
g14
sg16
g7
(g17
g9
Ntp4703
Rp4704
((lp4705
g21
(g22
(dp4706
g24
g25
(g26
(I0
tp4707
g28
tp4708
Rp4709
(I1
(I6
tp4710
g35
I00
(lp4711
g39
ag40
ag41
ag42
ag43
ag44
atp4712
bsg15
Nstp4713
Rp4714
a(lp4715
g25
(g26
(I0
tp4716
g28
tp4717
Rp4718
(I1
(I6
tp4719
g55
I00
S'\xb6\x96\xd40bw\x03@\xfa\xac\xbdJ~\x0f$@\xc6\xf7f\xbd\xdf\xdd7@/\x01\x9aK\ru\x07@\x08\xe4\x0b\x1d]\x02\x0e@g\xab\x98\x8fcM\x12@'
p4720
tp4721
ba(lp4722
g21
(g22
(dp4723
g24
g25
(g26
(I0
tp4724
g28
tp4725
Rp4726
(I1
(I6
tp4727
g35
I00
(lp4728
g39
ag40
ag41
ag42
ag43
ag44
atp4729
bsg15
Nstp4730
Rp4731
a(dp4732
g71
(dp4733
g73
g4705
sg74
(lp4734
(dp4735
g77
g78
(I0
I6
I1
tp4736
Rp4737
sg81
g4718
sasstp4738
bsg83
g84
sg15
NsbsF15.0
g7
(g8
g9
Ntp4739
Rp4740
(dp4741
g13
g14
sg16
g7
(g17
g9
Ntp4742
Rp4743
((lp4744
g21
(g22
(dp4745
g24
g25
(g26
(I0
tp4746
g28
tp4747
Rp4748
(I1
(I6
tp4749
g35
I00
(lp4750
g39
ag40
ag41
ag42
ag43
ag44
atp4751
bsg15
Nstp4752
Rp4753
a(lp4754
g25
(g26
(I0
tp4755
g28
tp4756
Rp4757
(I1
(I6
tp4758
g55
I00
S'\x04N"\x85\x1c&\x02@\xc0u\x84\xc4Z\xd8\x1e@\'\xc1\xb9h\xc9\x995@j\xd0\xc1&[@\x00@Z_\nT\x94\xa5\x06@Kg4\xbc|o\xf7?'
p4759
tp4760
ba(lp4761
g21
(g22
(dp4762
g24
g25
(g26
(I0
tp4763
g28
tp4764
Rp4765
(I1
(I6
tp4766
g35
I00
(lp4767
g39
ag40
ag41
ag42
ag43
ag44
atp4768
bsg15
Nstp4769
Rp4770
a(dp4771
g71
(dp4772
g73
g4744
sg74
(lp4773
(dp4774
g77
g78
(I0
I6
I1
tp4775
Rp4776
sg81
g4757
sasstp4777
bsg83
g84
sg15
NsbsF80.0
g7
(g8
g9
Ntp4778
Rp4779
(dp4780
g13
g14
sg16
g7
(g17
g9
Ntp4781
Rp4782
((lp4783
g21
(g22
(dp4784
g24
g25
(g26
(I0
tp4785
g28
tp4786
Rp4787
(I1
(I6
tp4788
g35
I00
(lp4789
g39
ag40
ag41
ag42
ag43
ag44
atp4790
bsg15
Nstp4791
Rp4792
a(lp4793
g25
(g26
(I0
tp4794
g28
tp4795
Rp4796
(I1
(I6
tp4797
g55
I00
S'{\xf9\x19\x97\xafr\xff?\xde\xd6`\xbbf\xb3\x1c@ a\xe6XID2@\xb8]\xd1$D^\xfc?."Q\xc5\x02Z\x01@\xf5\xdd\xaf\x97\x94\xfb\xe9?'
p4798
tp4799
ba(lp4800
g21
(g22
(dp4801
g24
g25
(g26
(I0
tp4802
g28
tp4803
Rp4804
(I1
(I6
tp4805
g35
I00
(lp4806
g39
ag40
ag41
ag42
ag43
ag44
atp4807
bsg15
Nstp4808
Rp4809
a(dp4810
g71
(dp4811
g73
g4783
sg74
(lp4812
(dp4813
g77
g78
(I0
I6
I1
tp4814
Rp4815
sg81
g4796
sasstp4816
bsg83
g84
sg15
NsbsF40.0
g7
(g8
g9
Ntp4817
Rp4818
(dp4819
g13
g14
sg16
g7
(g17
g9
Ntp4820
Rp4821
((lp4822
g21
(g22
(dp4823
g24
g25
(g26
(I0
tp4824
g28
tp4825
Rp4826
(I1
(I6
tp4827
g35
I00
(lp4828
g39
ag40
ag41
ag42
ag43
ag44
atp4829
bsg15
Nstp4830
Rp4831
a(lp4832
g25
(g26
(I0
tp4833
g28
tp4834
Rp4835
(I1
(I6
tp4836
g55
I00
S'\x86\x00>\x1a\xa1$\x00@\xe59a\x80\x98\xe9\x1d@l\x11o\xacC\x812@\x88U\xd39Ck\xfe?j\xaa\xc6\xe9\x94\xf3\x01@v\xa8\xa5\xe3\x9d\xe9\xec?'
p4837
tp4838
ba(lp4839
g21
(g22
(dp4840
g24
g25
(g26
(I0
tp4841
g28
tp4842
Rp4843
(I1
(I6
tp4844
g35
I00
(lp4845
g39
ag40
ag41
ag42
ag43
ag44
atp4846
bsg15
Nstp4847
Rp4848
a(dp4849
g71
(dp4850
g73
g4822
sg74
(lp4851
(dp4852
g77
g78
(I0
I6
I1
tp4853
Rp4854
sg81
g4835
sasstp4855
bsg83
g84
sg15
NsbsF50.0
g7
(g8
g9
Ntp4856
Rp4857
(dp4858
g13
g14
sg16
g7
(g17
g9
Ntp4859
Rp4860
((lp4861
g21
(g22
(dp4862
g24
g25
(g26
(I0
tp4863
g28
tp4864
Rp4865
(I1
(I6
tp4866
g35
I00
(lp4867
g39
ag40
ag41
ag42
ag43
ag44
atp4868
bsg15
Nstp4869
Rp4870
a(lp4871
g25
(g26
(I0
tp4872
g28
tp4873
Rp4874
(I1
(I6
tp4875
g55
I00
S'^w\x9fo1.\x00@\xb0\xc7d`\x8dw\x1d@\x12}\xc8\xeb\xe1h2@\xbb\x93\x96\xd1\xf8A\xfe?\n|p\xe9\xff\x92\x01@+\x1b\x13t\xafp\xef?'
p4876
tp4877
ba(lp4878
g21
(g22
(dp4879
g24
g25
(g26
(I0
tp4880
g28
tp4881
Rp4882
(I1
(I6
tp4883
g35
I00
(lp4884
g39
ag40
ag41
ag42
ag43
ag44
atp4885
bsg15
Nstp4886
Rp4887
a(dp4888
g71
(dp4889
g73
g4861
sg74
(lp4890
(dp4891
g77
g78
(I0
I6
I1
tp4892
Rp4893
sg81
g4874
sasstp4894
bsg83
g84
sg15
NsbsF20.0
g7
(g8
g9
Ntp4895
Rp4896
(dp4897
g13
g14
sg16
g7
(g17
g9
Ntp4898
Rp4899
((lp4900
g21
(g22
(dp4901
g24
g25
(g26
(I0
tp4902
g28
tp4903
Rp4904
(I1
(I6
tp4905
g35
I00
(lp4906
g39
ag40
ag41
ag42
ag43
ag44
atp4907
bsg15
Nstp4908
Rp4909
a(lp4910
g25
(g26
(I0
tp4911
g28
tp4912
Rp4913
(I1
(I6
tp4914
g55
I00
S'\xc1\xbf\x8c\xab.+\x01@:\x91\xc3-B\xff @\xf9\xe1\xa3\xb0\xbe\xb15@\xcf,`C\xe2\x8b\x00@\x16\xba\xaa\t3]\x06@\xb0\xf4\xa5*\x91E\xf2?'
p4915
tp4916
ba(lp4917
g21
(g22
(dp4918
g24
g25
(g26
(I0
tp4919
g28
tp4920
Rp4921
(I1
(I6
tp4922
g35
I00
(lp4923
g39
ag40
ag41
ag42
ag43
ag44
atp4924
bsg15
Nstp4925
Rp4926
a(dp4927
g71
(dp4928
g73
g4900
sg74
(lp4929
(dp4930
g77
g78
(I0
I6
I1
tp4931
Rp4932
sg81
g4913
sasstp4933
bsg83
g84
sg15
NsbsF90.0
g7
(g8
g9
Ntp4934
Rp4935
(dp4936
g13
g14
sg16
g7
(g17
g9
Ntp4937
Rp4938
((lp4939
g21
(g22
(dp4940
g24
g25
(g26
(I0
tp4941
g28
tp4942
Rp4943
(I1
(I6
tp4944
g35
I00
(lp4945
g39
ag40
ag41
ag42
ag43
ag44
atp4946
bsg15
Nstp4947
Rp4948
a(lp4949
g25
(g26
(I0
tp4950
g28
tp4951
Rp4952
(I1
(I6
tp4953
g55
I00
S"\x05\xa6\xde\xfcB\xc2\xfe?\xb3\xfa VQ\x8a\x1d@\x03\xe6'k\xfa\xf31@\xcaz\xc9j\xed\x89\xfd?\x80\x94\x81.a\x1b\x01@\x85\xe8F\x98\xd5\x1b\xe7?"
p4954
tp4955
ba(lp4956
g21
(g22
(dp4957
g24
g25
(g26
(I0
tp4958
g28
tp4959
Rp4960
(I1
(I6
tp4961
g35
I00
(lp4962
g39
ag40
ag41
ag42
ag43
ag44
atp4963
bsg15
Nstp4964
Rp4965
a(dp4966
g71
(dp4967
g73
g4939
sg74
(lp4968
(dp4969
g77
g78
(I0
I6
I1
tp4970
Rp4971
sg81
g4952
sasstp4972
bsg83
g84
sg15
NsbsF60.0
g7
(g8
g9
Ntp4973
Rp4974
(dp4975
g13
g14
sg16
g7
(g17
g9
Ntp4976
Rp4977
((lp4978
g21
(g22
(dp4979
g24
g25
(g26
(I0
tp4980
g28
tp4981
Rp4982
(I1
(I6
tp4983
g35
I00
(lp4984
g39
ag40
ag41
ag42
ag43
ag44
atp4985
bsg15
Nstp4986
Rp4987
a(lp4988
g25
(g26
(I0
tp4989
g28
tp4990
Rp4991
(I1
(I6
tp4992
g55
I00
S'\rF\x18\xdaz\xc2\xfe?\xdd\xd6\xac\xbcOq\x1e@^\xf9]nV\x172@+\x85\xf4_`z\xfd?p\xf2k\xd5\x9c`\x01@\xc3\xf1H\xe9g\x95\xec?'
p4993
tp4994
ba(lp4995
g21
(g22
(dp4996
g24
g25
(g26
(I0
tp4997
g28
tp4998
Rp4999
(I1
(I6
tp5000
g35
I00
(lp5001
g39
ag40
ag41
ag42
ag43
ag44
atp5002
bsg15
Nstp5003
Rp5004
a(dp5005
g71
(dp5006
g73
g4978
sg74
(lp5007
(dp5008
g77
g78
(I0
I6
I1
tp5009
Rp5010
sg81
g4991
sasstp5011
bsg83
g84
sg15
NsbsF30.0
g7
(g8
g9
Ntp5012
Rp5013
(dp5014
g13
g14
sg16
g7
(g17
g9
Ntp5015
Rp5016
((lp5017
g21
(g22
(dp5018
g24
g25
(g26
(I0
tp5019
g28
tp5020
Rp5021
(I1
(I6
tp5022
g35
I00
(lp5023
g39
ag40
ag41
ag42
ag43
ag44
atp5024
bsg15
Nstp5025
Rp5026
a(lp5027
g25
(g26
(I0
tp5028
g28
tp5029
Rp5030
(I1
(I6
tp5031
g55
I00
S"\xef^\xb3\xe8\x84f\x00@\xc3\xa2-c\x102 @\xbd}\xf2\xc0\xbaw3@\xce6-Bq\xfa\xff?t\x90\x179\xfd\xe4\x02@\xad\x97\xca\x03'k\xef?"
p5032
tp5033
ba(lp5034
g21
(g22
(dp5035
g24
g25
(g26
(I0
tp5036
g28
tp5037
Rp5038
(I1
(I6
tp5039
g35
I00
(lp5040
g39
ag40
ag41
ag42
ag43
ag44
atp5041
bsg15
Nstp5042
Rp5043
a(dp5044
g71
(dp5045
g73
g5017
sg74
(lp5046
(dp5047
g77
g78
(I0
I6
I1
tp5048
Rp5049
sg81
g5030
sasstp5050
bsg83
g84
sg15
NsbsssssI4
(dp5051
g2
(dp5052
g2
(dp5053
g5
(dp5054
F0.0
g7
(g8
g9
Ntp5055
Rp5056
(dp5057
g13
g14
sg16
g7
(g17
g9
Ntp5058
Rp5059
((lp5060
g21
(g22
(dp5061
g24
g25
(g26
(I0
tp5062
g28
tp5063
Rp5064
(I1
(I6
tp5065
g35
I00
(lp5066
g39
ag40
ag41
ag42
ag43
ag44
atp5067
bsg15
Nstp5068
Rp5069
a(lp5070
g25
(g26
(I0
tp5071
g28
tp5072
Rp5073
(I1
(I6
tp5074
g55
I00
S"\xe5l\xc1y\x87G\xff?'\xbf\xf2\xb3\xff\x06'@\xc9@\x80q\xfe\x0f2@C\x92\xe7\x8f\xd3\x90\x03@\xb9\xe0j\xd6\x8bk\x05@X\x81\xa6\x90\x83&\xf0?"
p5075
tp5076
ba(lp5077
g21
(g22
(dp5078
g24
g25
(g26
(I0
tp5079
g28
tp5080
Rp5081
(I1
(I6
tp5082
g35
I00
(lp5083
g39
ag40
ag41
ag42
ag43
ag44
atp5084
bsg15
Nstp5085
Rp5086
a(dp5087
g71
(dp5088
g73
g5060
sg74
(lp5089
(dp5090
g77
g78
(I0
I6
I1
tp5091
Rp5092
sg81
g5073
sasstp5093
bsg83
g84
sg15
NsbsF100.0
g7
(g8
g9
Ntp5094
Rp5095
(dp5096
g13
g14
sg16
g7
(g17
g9
Ntp5097
Rp5098
((lp5099
g21
(g22
(dp5100
g24
g25
(g26
(I0
tp5101
g28
tp5102
Rp5103
(I1
(I6
tp5104
g35
I00
(lp5105
g39
ag40
ag41
ag42
ag43
ag44
atp5106
bsg15
Nstp5107
Rp5108
a(lp5109
g25
(g26
(I0
tp5110
g28
tp5111
Rp5112
(I1
(I6
tp5113
g55
I00
S"{\xbc *}\x88\xff?>\xd7D\xf6\x03\xf2#@\x10\xb7\xda\xbd\xcde,@yb\xeb\x9d\xe4'\x01@\x17\xc7\xf0\x90\xf9\x0c\x04@\xfd\xd4\xdd:\x93\x94\xf0?"
p5114
tp5115
ba(lp5116
g21
(g22
(dp5117
g24
g25
(g26
(I0
tp5118
g28
tp5119
Rp5120
(I1
(I6
tp5121
g35
I00
(lp5122
g39
ag40
ag41
ag42
ag43
ag44
atp5123
bsg15
Nstp5124
Rp5125
a(dp5126
g71
(dp5127
g73
g5099
sg74
(lp5128
(dp5129
g77
g78
(I0
I6
I1
tp5130
Rp5131
sg81
g5112
sasstp5132
bsg83
g84
sg15
NsbsF70.0
g7
(g8
g9
Ntp5133
Rp5134
(dp5135
g13
g14
sg16
g7
(g17
g9
Ntp5136
Rp5137
((lp5138
g21
(g22
(dp5139
g24
g25
(g26
(I0
tp5140
g28
tp5141
Rp5142
(I1
(I6
tp5143
g35
I00
(lp5144
g39
ag40
ag41
ag42
ag43
ag44
atp5145
bsg15
Nstp5146
Rp5147
a(lp5148
g25
(g26
(I0
tp5149
g28
tp5150
Rp5151
(I1
(I6
tp5152
g55
I00
S'\xaa\x05\x95\x87\x07\x80\xff?\x0e\x9b\xd3>d\r$@5\xb4\xf9\x87m\x19-@\x1e\x97\xc4f\xd6\xa8\x01@GU\xce\xe0\xdc\xfa\x02@R\xf5\x1a\x03>\xa2\xed?'
p5153
tp5154
ba(lp5155
g21
(g22
(dp5156
g24
g25
(g26
(I0
tp5157
g28
tp5158
Rp5159
(I1
(I6
tp5160
g35
I00
(lp5161
g39
ag40
ag41
ag42
ag43
ag44
atp5162
bsg15
Nstp5163
Rp5164
a(dp5165
g71
(dp5166
g73
g5138
sg74
(lp5167
(dp5168
g77
g78
(I0
I6
I1
tp5169
Rp5170
sg81
g5151
sasstp5171
bsg83
g84
sg15
NsbsF6.0
g7
(g8
g9
Ntp5172
Rp5173
(dp5174
g13
g14
sg16
g7
(g17
g9
Ntp5175
Rp5176
((lp5177
g21
(g22
(dp5178
g24
g25
(g26
(I0
tp5179
g28
tp5180
Rp5181
(I1
(I6
tp5182
g35
I00
(lp5183
g39
ag40
ag41
ag42
ag43
ag44
atp5184
bsg15
Nstp5185
Rp5186
a(lp5187
g25
(g26
(I0
tp5188
g28
tp5189
Rp5190
(I1
(I6
tp5191
g55
I00
S'\xea_\xeb\x0f\x8a\xf0\xfe?\x1e\xd9KZ\xc1\x92$@\x04(\xa7Q,\x816@z\r\xdc\x1a\x7f\xf8\x01@v\xe9\x15\xa0\t\xc0\x04@n\x99F^$3\xec?'
p5192
tp5193
ba(lp5194
g21
(g22
(dp5195
g24
g25
(g26
(I0
tp5196
g28
tp5197
Rp5198
(I1
(I6
tp5199
g35
I00
(lp5200
g39
ag40
ag41
ag42
ag43
ag44
atp5201
bsg15
Nstp5202
Rp5203
a(dp5204
g71
(dp5205
g73
g5177
sg74
(lp5206
(dp5207
g77
g78
(I0
I6
I1
tp5208
Rp5209
sg81
g5190
sasstp5210
bsg83
g84
sg15
NsbsF7.0
g7
(g8
g9
Ntp5211
Rp5212
(dp5213
g13
g14
sg16
g7
(g17
g9
Ntp5214
Rp5215
((lp5216
g21
(g22
(dp5217
g24
g25
(g26
(I0
tp5218
g28
tp5219
Rp5220
(I1
(I6
tp5221
g35
I00
(lp5222
g39
ag40
ag41
ag42
ag43
ag44
atp5223
bsg15
Nstp5224
Rp5225
a(lp5226
g25
(g26
(I0
tp5227
g28
tp5228
Rp5229
(I1
(I6
tp5230
g55
I00
S'\xea_\xeb\x0f\x8a\xf0\xfe?\x1e\xd9KZ\xc1\x92$@\x04(\xa7Q,\x816@z\r\xdc\x1a\x7f\xf8\x01@v\xe9\x15\xa0\t\xc0\x04@n\x99F^$3\xec?'
p5231
tp5232
ba(lp5233
g21
(g22
(dp5234
g24
g25
(g26
(I0
tp5235
g28
tp5236
Rp5237
(I1
(I6
tp5238
g35
I00
(lp5239
g39
ag40
ag41
ag42
ag43
ag44
atp5240
bsg15
Nstp5241
Rp5242
a(dp5243
g71
(dp5244
g73
g5216
sg74
(lp5245
(dp5246
g77
g78
(I0
I6
I1
tp5247
Rp5248
sg81
g5229
sasstp5249
bsg83
g84
sg15
NsbsF8.0
g7
(g8
g9
Ntp5250
Rp5251
(dp5252
g13
g14
sg16
g7
(g17
g9
Ntp5253
Rp5254
((lp5255
g21
(g22
(dp5256
g24
g25
(g26
(I0
tp5257
g28
tp5258
Rp5259
(I1
(I6
tp5260
g35
I00
(lp5261
g39
ag40
ag41
ag42
ag43
ag44
atp5262
bsg15
Nstp5263
Rp5264
a(lp5265
g25
(g26
(I0
tp5266
g28
tp5267
Rp5268
(I1
(I6
tp5269
g55
I00
S'\xea_\xeb\x0f\x8a\xf0\xfe?\x1e\xd9KZ\xc1\x92$@\x04(\xa7Q,\x816@z\r\xdc\x1a\x7f\xf8\x01@v\xe9\x15\xa0\t\xc0\x04@n\x99F^$3\xec?'
p5270
tp5271
ba(lp5272
g21
(g22
(dp5273
g24
g25
(g26
(I0
tp5274
g28
tp5275
Rp5276
(I1
(I6
tp5277
g35
I00
(lp5278
g39
ag40
ag41
ag42
ag43
ag44
atp5279
bsg15
Nstp5280
Rp5281
a(dp5282
g71
(dp5283
g73
g5255
sg74
(lp5284
(dp5285
g77
g78
(I0
I6
I1
tp5286
Rp5287
sg81
g5268
sasstp5288
bsg83
g84
sg15
NsbsF9.0
g7
(g8
g9
Ntp5289
Rp5290
(dp5291
g13
g14
sg16
g7
(g17
g9
Ntp5292
Rp5293
((lp5294
g21
(g22
(dp5295
g24
g25
(g26
(I0
tp5296
g28
tp5297
Rp5298
(I1
(I6
tp5299
g35
I00
(lp5300
g39
ag40
ag41
ag42
ag43
ag44
atp5301
bsg15
Nstp5302
Rp5303
a(lp5304
g25
(g26
(I0
tp5305
g28
tp5306
Rp5307
(I1
(I6
tp5308
g55
I00
S'\xd8\xd3\xd6+,\xb4\xfe?/\x96\xa8X\x85\xa5#@\x9f\xd9\xd3KcL5@\xb7\x93K\x9dZw\x01@\xe6\xff\x07,C)\x04@k\xf0\xc8\xe5\x02\xfc\xeb?'
p5309
tp5310
ba(lp5311
g21
(g22
(dp5312
g24
g25
(g26
(I0
tp5313
g28
tp5314
Rp5315
(I1
(I6
tp5316
g35
I00
(lp5317
g39
ag40
ag41
ag42
ag43
ag44
atp5318
bsg15
Nstp5319
Rp5320
a(dp5321
g71
(dp5322
g73
g5294
sg74
(lp5323
(dp5324
g77
g78
(I0
I6
I1
tp5325
Rp5326
sg81
g5307
sasstp5327
bsg83
g84
sg15
NsbsF10.0
g7
(g8
g9
Ntp5328
Rp5329
(dp5330
g13
g14
sg16
g7
(g17
g9
Ntp5331
Rp5332
((lp5333
g21
(g22
(dp5334
g24
g25
(g26
(I0
tp5335
g28
tp5336
Rp5337
(I1
(I6
tp5338
g35
I00
(lp5339
g39
ag40
ag41
ag42
ag43
ag44
atp5340
bsg15
Nstp5341
Rp5342
a(lp5343
g25
(g26
(I0
tp5344
g28
tp5345
Rp5346
(I1
(I6
tp5347
g55
I00
S'\xd8\xd3\xd6+,\xb4\xfe?/\x96\xa8X\x85\xa5#@\x9f\xd9\xd3KcL5@\xb7\x93K\x9dZw\x01@\xe6\xff\x07,C)\x04@k\xf0\xc8\xe5\x02\xfc\xeb?'
p5348
tp5349
ba(lp5350
g21
(g22
(dp5351
g24
g25
(g26
(I0
tp5352
g28
tp5353
Rp5354
(I1
(I6
tp5355
g35
I00
(lp5356
g39
ag40
ag41
ag42
ag43
ag44
atp5357
bsg15
Nstp5358
Rp5359
a(dp5360
g71
(dp5361
g73
g5333
sg74
(lp5362
(dp5363
g77
g78
(I0
I6
I1
tp5364
Rp5365
sg81
g5346
sasstp5366
bsg83
g84
sg15
NsbsF15.0
g7
(g8
g9
Ntp5367
Rp5368
(dp5369
g13
g14
sg16
g7
(g17
g9
Ntp5370
Rp5371
((lp5372
g21
(g22
(dp5373
g24
g25
(g26
(I0
tp5374
g28
tp5375
Rp5376
(I1
(I6
tp5377
g35
I00
(lp5378
g39
ag40
ag41
ag42
ag43
ag44
atp5379
bsg15
Nstp5380
Rp5381
a(lp5382
g25
(g26
(I0
tp5383
g28
tp5384
Rp5385
(I1
(I6
tp5386
g55
I00
S'\xb3\x86$*\xef&\xfe?\x1e\xe0\x93\xc7\x88\x87#@\xf9\xfax\x1a\xf5\xd22@X\xa1\xb2I\x1fm\x01@\xcd`y\xe1\xae-\x04@\xe6\x1c\x9c\xa2\xfc;\xeb?'
p5387
tp5388
ba(lp5389
g21
(g22
(dp5390
g24
g25
(g26
(I0
tp5391
g28
tp5392
Rp5393
(I1
(I6
tp5394
g35
I00
(lp5395
g39
ag40
ag41
ag42
ag43
ag44
atp5396
bsg15
Nstp5397
Rp5398
a(dp5399
g71
(dp5400
g73
g5372
sg74
(lp5401
(dp5402
g77
g78
(I0
I6
I1
tp5403
Rp5404
sg81
g5385
sasstp5405
bsg83
g84
sg15
NsbsF80.0
g7
(g8
g9
Ntp5406
Rp5407
(dp5408
g13
g14
sg16
g7
(g17
g9
Ntp5409
Rp5410
((lp5411
g21
(g22
(dp5412
g24
g25
(g26
(I0
tp5413
g28
tp5414
Rp5415
(I1
(I6
tp5416
g35
I00
(lp5417
g39
ag40
ag41
ag42
ag43
ag44
atp5418
bsg15
Nstp5419
Rp5420
a(lp5421
g25
(g26
(I0
tp5422
g28
tp5423
Rp5424
(I1
(I6
tp5425
g55
I00
S'\x1dVz\xf8\x04\xe4\xfe?O\xd2\x9dZ\xc9\xce#@\xb6\xd9\xbf\xd7\x84I-@Cgs#"?\x01@2b\xfe_\xc2Z\x04@;8_p\xa3\x8e\xee?'
p5426
tp5427
ba(lp5428
g21
(g22
(dp5429
g24
g25
(g26
(I0
tp5430
g28
tp5431
Rp5432
(I1
(I6
tp5433
g35
I00
(lp5434
g39
ag40
ag41
ag42
ag43
ag44
atp5435
bsg15
Nstp5436
Rp5437
a(dp5438
g71
(dp5439
g73
g5411
sg74
(lp5440
(dp5441
g77
g78
(I0
I6
I1
tp5442
Rp5443
sg81
g5424
sasstp5444
bsg83
g84
sg15
NsbsF40.0
g7
(g8
g9
Ntp5445
Rp5446
(dp5447
g13
g14
sg16
g7
(g17
g9
Ntp5448
Rp5449
((lp5450
g21
(g22
(dp5451
g24
g25
(g26
(I0
tp5452
g28
tp5453
Rp5454
(I1
(I6
tp5455
g35
I00
(lp5456
g39
ag40
ag41
ag42
ag43
ag44
atp5457
bsg15
Nstp5458
Rp5459
a(lp5460
g25
(g26
(I0
tp5461
g28
tp5462
Rp5463
(I1
(I6
tp5464
g55
I00
S']Q\xe37-\xe6\xfe?V\x16\x04\x8a=\x1e$@\xfd/\xb1]\x90\xbf/@b\xfa\x91(8\xb9\x01@#\x18Uh\n`\x03@z\xd1\xd6\x14\xaa\xa0\xec?'
p5465
tp5466
ba(lp5467
g21
(g22
(dp5468
g24
g25
(g26
(I0
tp5469
g28
tp5470
Rp5471
(I1
(I6
tp5472
g35
I00
(lp5473
g39
ag40
ag41
ag42
ag43
ag44
atp5474
bsg15
Nstp5475
Rp5476
a(dp5477
g71
(dp5478
g73
g5450
sg74
(lp5479
(dp5480
g77
g78
(I0
I6
I1
tp5481
Rp5482
sg81
g5463
sasstp5483
bsg83
g84
sg15
NsbsF50.0
g7
(g8
g9
Ntp5484
Rp5485
(dp5486
g13
g14
sg16
g7
(g17
g9
Ntp5487
Rp5488
((lp5489
g21
(g22
(dp5490
g24
g25
(g26
(I0
tp5491
g28
tp5492
Rp5493
(I1
(I6
tp5494
g35
I00
(lp5495
g39
ag40
ag41
ag42
ag43
ag44
atp5496
bsg15
Nstp5497
Rp5498
a(lp5499
g25
(g26
(I0
tp5500
g28
tp5501
Rp5502
(I1
(I6
tp5503
g55
I00
S'\xe3u\x83\xa1\xe4!\xfe?_i\x08+\x9d(#@\xfa\xa0\xcc>-\x8a/@\xd6\xc0\n\x9f\xcc\x16\x01@\xce\x1bx\xc3Fi\x03@\xd3,\xc9\xf4Xc\xec?'
p5504
tp5505
ba(lp5506
g21
(g22
(dp5507
g24
g25
(g26
(I0
tp5508
g28
tp5509
Rp5510
(I1
(I6
tp5511
g35
I00
(lp5512
g39
ag40
ag41
ag42
ag43
ag44
atp5513
bsg15
Nstp5514
Rp5515
a(dp5516
g71
(dp5517
g73
g5489
sg74
(lp5518
(dp5519
g77
g78
(I0
I6
I1
tp5520
Rp5521
sg81
g5502
sasstp5522
bsg83
g84
sg15
NsbsF20.0
g7
(g8
g9
Ntp5523
Rp5524
(dp5525
g13
g14
sg16
g7
(g17
g9
Ntp5526
Rp5527
((lp5528
g21
(g22
(dp5529
g24
g25
(g26
(I0
tp5530
g28
tp5531
Rp5532
(I1
(I6
tp5533
g35
I00
(lp5534
g39
ag40
ag41
ag42
ag43
ag44
atp5535
bsg15
Nstp5536
Rp5537
a(lp5538
g25
(g26
(I0
tp5539
g28
tp5540
Rp5541
(I1
(I6
tp5542
g55
I00
S'\xa5^\xeeX\xccL\xfe?\xe0\xf7\xca1/\x16$@<\xd6v\xc3T|1@\xbbF\xdf7\x8ac\x01@\xbe<\xd2C\xfd\x0b\x04@\xddE2\xb5\xc21\xed?'
p5543
tp5544
ba(lp5545
g21
(g22
(dp5546
g24
g25
(g26
(I0
tp5547
g28
tp5548
Rp5549
(I1
(I6
tp5550
g35
I00
(lp5551
g39
ag40
ag41
ag42
ag43
ag44
atp5552
bsg15
Nstp5553
Rp5554
a(dp5555
g71
(dp5556
g73
g5528
sg74
(lp5557
(dp5558
g77
g78
(I0
I6
I1
tp5559
Rp5560
sg81
g5541
sasstp5561
bsg83
g84
sg15
NsbsF90.0
g7
(g8
g9
Ntp5562
Rp5563
(dp5564
g13
g14
sg16
g7
(g17
g9
Ntp5565
Rp5566
((lp5567
g21
(g22
(dp5568
g24
g25
(g26
(I0
tp5569
g28
tp5570
Rp5571
(I1
(I6
tp5572
g35
I00
(lp5573
g39
ag40
ag41
ag42
ag43
ag44
atp5574
bsg15
Nstp5575
Rp5576
a(lp5577
g25
(g26
(I0
tp5578
g28
tp5579
Rp5580
(I1
(I6
tp5581
g55
I00
S'\xda.6V/\x11\xff?\xca\xe0\x95=m\xc2#@K\xc8\xedF\xe9\x16,@\xe4\xb1\xd7\xe5\xa6\x1d\x01@3\x8c\xdfU-\x80\x03@\xa7C\x06rpi\xf0?'
p5582
tp5583
ba(lp5584
g21
(g22
(dp5585
g24
g25
(g26
(I0
tp5586
g28
tp5587
Rp5588
(I1
(I6
tp5589
g35
I00
(lp5590
g39
ag40
ag41
ag42
ag43
ag44
atp5591
bsg15
Nstp5592
Rp5593
a(dp5594
g71
(dp5595
g73
g5567
sg74
(lp5596
(dp5597
g77
g78
(I0
I6
I1
tp5598
Rp5599
sg81
g5580
sasstp5600
bsg83
g84
sg15
NsbsF60.0
g7
(g8
g9
Ntp5601
Rp5602
(dp5603
g13
g14
sg16
g7
(g17
g9
Ntp5604
Rp5605
((lp5606
g21
(g22
(dp5607
g24
g25
(g26
(I0
tp5608
g28
tp5609
Rp5610
(I1
(I6
tp5611
g35
I00
(lp5612
g39
ag40
ag41
ag42
ag43
ag44
atp5613
bsg15
Nstp5614
Rp5615
a(lp5616
g25
(g26
(I0
tp5617
g28
tp5618
Rp5619
(I1
(I6
tp5620
g55
I00
S'*\xbc\x12\xbb\x02\x83\xfe?ehi\xb8\x9d\xc1"@\xfew\xa8\x85dm/@\x89\xbe\xe0&_\xff\x00@J\xe3\xf1\xd6\xd3B\x03@\x18\x92\x17Ff\xd4\xec?'
p5621
tp5622
ba(lp5623
g21
(g22
(dp5624
g24
g25
(g26
(I0
tp5625
g28
tp5626
Rp5627
(I1
(I6
tp5628
g35
I00
(lp5629
g39
ag40
ag41
ag42
ag43
ag44
atp5630
bsg15
Nstp5631
Rp5632
a(dp5633
g71
(dp5634
g73
g5606
sg74
(lp5635
(dp5636
g77
g78
(I0
I6
I1
tp5637
Rp5638
sg81
g5619
sasstp5639
bsg83
g84
sg15
NsbsF30.0
g7
(g8
g9
Ntp5640
Rp5641
(dp5642
g13
g14
sg16
g7
(g17
g9
Ntp5643
Rp5644
((lp5645
g21
(g22
(dp5646
g24
g25
(g26
(I0
tp5647
g28
tp5648
Rp5649
(I1
(I6
tp5650
g35
I00
(lp5651
g39
ag40
ag41
ag42
ag43
ag44
atp5652
bsg15
Nstp5653
Rp5654
a(lp5655
g25
(g26
(I0
tp5656
g28
tp5657
Rp5658
(I1
(I6
tp5659
g55
I00
S'^S;\x19\x92\xb9\xfe?\xfbO\x89@\x96\x1e"@\xf7c\xdb\x91Qj0@K\x08G~_\xb5\x00@\xc0\x19h\xe5\xedK\x03@@\xee7\xaf\x06]\xeb?'
p5660
tp5661
ba(lp5662
g21
(g22
(dp5663
g24
g25
(g26
(I0
tp5664
g28
tp5665
Rp5666
(I1
(I6
tp5667
g35
I00
(lp5668
g39
ag40
ag41
ag42
ag43
ag44
atp5669
bsg15
Nstp5670
Rp5671
a(dp5672
g71
(dp5673
g73
g5645
sg74
(lp5674
(dp5675
g77
g78
(I0
I6
I1
tp5676
Rp5677
sg81
g5658
sasstp5678
bsg83
g84
sg15
Nsbssg670
(dp5679
F0.0
g7
(g8
g9
Ntp5680
Rp5681
(dp5682
g13
g14
sg16
g7
(g17
g9
Ntp5683
Rp5684
((lp5685
g21
(g22
(dp5686
g24
g25
(g26
(I0
tp5687
g28
tp5688
Rp5689
(I1
(I6
tp5690
g35
I00
(lp5691
g39
ag40
ag41
ag42
ag43
ag44
atp5692
bsg15
Nstp5693
Rp5694
a(lp5695
g25
(g26
(I0
tp5696
g28
tp5697
Rp5698
(I1
(I6
tp5699
g55
I00
S'\xe9\xf5\x92\x92\x04$!@A\xc9\xe8\xf1N\x14"@7R\xeb\xab<\xcf5@\xa9`\x12\x00I\xca%@\x92\n\xc2\x0ce\xb2\x1d@W\x8e\x921\x95N\x13@'
p5700
tp5701
ba(lp5702
g21
(g22
(dp5703
g24
g25
(g26
(I0
tp5704
g28
tp5705
Rp5706
(I1
(I6
tp5707
g35
I00
(lp5708
g39
ag40
ag41
ag42
ag43
ag44
atp5709
bsg15
Nstp5710
Rp5711
a(dp5712
g71
(dp5713
g73
g5685
sg74
(lp5714
(dp5715
g77
g78
(I0
I6
I1
tp5716
Rp5717
sg81
g5698
sasstp5718
bsg83
g84
sg15
NsbsF100.0
g7
(g8
g9
Ntp5719
Rp5720
(dp5721
g13
g14
sg16
g7
(g17
g9
Ntp5722
Rp5723
((lp5724
g21
(g22
(dp5725
g24
g25
(g26
(I0
tp5726
g28
tp5727
Rp5728
(I1
(I6
tp5729
g35
I00
(lp5730
g39
ag40
ag41
ag42
ag43
ag44
atp5731
bsg15
Nstp5732
Rp5733
a(lp5734
g25
(g26
(I0
tp5735
g28
tp5736
Rp5737
(I1
(I6
tp5738
g55
I00
S'\x90\x0f\xb8\xe3\xf4\xfc\xfe?:o\xa5\xb9?-\x1b@\xca<P"\xce\x961@*_\xe4H\x1bc\xfb?@VU\xe3\x0f\xc2\x01@\xf6kM\xda\xe0\xf8\xe6?'
p5739
tp5740
ba(lp5741
g21
(g22
(dp5742
g24
g25
(g26
(I0
tp5743
g28
tp5744
Rp5745
(I1
(I6
tp5746
g35
I00
(lp5747
g39
ag40
ag41
ag42
ag43
ag44
atp5748
bsg15
Nstp5749
Rp5750
a(dp5751
g71
(dp5752
g73
g5724
sg74
(lp5753
(dp5754
g77
g78
(I0
I6
I1
tp5755
Rp5756
sg81
g5737
sasstp5757
bsg83
g84
sg15
NsbsF70.0
g7
(g8
g9
Ntp5758
Rp5759
(dp5760
g13
g14
sg16
g7
(g17
g9
Ntp5761
Rp5762
((lp5763
g21
(g22
(dp5764
g24
g25
(g26
(I0
tp5765
g28
tp5766
Rp5767
(I1
(I6
tp5768
g35
I00
(lp5769
g39
ag40
ag41
ag42
ag43
ag44
atp5770
bsg15
Nstp5771
Rp5772
a(lp5773
g25
(g26
(I0
tp5774
g28
tp5775
Rp5776
(I1
(I6
tp5777
g55
I00
S'\xda\x94,\x7f]6\xff?"\xf8:\xd56=\x1c@\xfe\xdd\x84\x95F\xda0@%|^\xdf\xd1\xb9\xfb?3\xf5\\\xe2\xd4"\x02@u\x90eN=P\xe8?'
p5778
tp5779
ba(lp5780
g21
(g22
(dp5781
g24
g25
(g26
(I0
tp5782
g28
tp5783
Rp5784
(I1
(I6
tp5785
g35
I00
(lp5786
g39
ag40
ag41
ag42
ag43
ag44
atp5787
bsg15
Nstp5788
Rp5789
a(dp5790
g71
(dp5791
g73
g5763
sg74
(lp5792
(dp5793
g77
g78
(I0
I6
I1
tp5794
Rp5795
sg81
g5776
sasstp5796
bsg83
g84
sg15
NsbsF6.0
g7
(g8
g9
Ntp5797
Rp5798
(dp5799
g13
g14
sg16
g7
(g17
g9
Ntp5800
Rp5801
((lp5802
g21
(g22
(dp5803
g24
g25
(g26
(I0
tp5804
g28
tp5805
Rp5806
(I1
(I6
tp5807
g35
I00
(lp5808
g39
ag40
ag41
ag42
ag43
ag44
atp5809
bsg15
Nstp5810
Rp5811
a(lp5812
g25
(g26
(I0
tp5813
g28
tp5814
Rp5815
(I1
(I6
tp5816
g55
I00
S'\x9f\xc4 s\x02U\x03@\xc2\x833\xaa\xe7\xc9!@\xa4\x9ed\x04\xb4c6@$9p;\xfdI\x02@\x98k{Her\x10@\xe6\xa6\xdc\xdb>M\x08@'
p5817
tp5818
ba(lp5819
g21
(g22
(dp5820
g24
g25
(g26
(I0
tp5821
g28
tp5822
Rp5823
(I1
(I6
tp5824
g35
I00
(lp5825
g39
ag40
ag41
ag42
ag43
ag44
atp5826
bsg15
Nstp5827
Rp5828
a(dp5829
g71
(dp5830
g73
g5802
sg74
(lp5831
(dp5832
g77
g78
(I0
I6
I1
tp5833
Rp5834
sg81
g5815
sasstp5835
bsg83
g84
sg15
NsbsF7.0
g7
(g8
g9
Ntp5836
Rp5837
(dp5838
g13
g14
sg16
g7
(g17
g9
Ntp5839
Rp5840
((lp5841
g21
(g22
(dp5842
g24
g25
(g26
(I0
tp5843
g28
tp5844
Rp5845
(I1
(I6
tp5846
g35
I00
(lp5847
g39
ag40
ag41
ag42
ag43
ag44
atp5848
bsg15
Nstp5849
Rp5850
a(lp5851
g25
(g26
(I0
tp5852
g28
tp5853
Rp5854
(I1
(I6
tp5855
g55
I00
S'\x9f\xc4 s\x02U\x03@\xc2\x833\xaa\xe7\xc9!@\xa4\x9ed\x04\xb4c6@$9p;\xfdI\x02@\x98k{Her\x10@\xe6\xa6\xdc\xdb>M\x08@'
p5856
tp5857
ba(lp5858
g21
(g22
(dp5859
g24
g25
(g26
(I0
tp5860
g28
tp5861
Rp5862
(I1
(I6
tp5863
g35
I00
(lp5864
g39
ag40
ag41
ag42
ag43
ag44
atp5865
bsg15
Nstp5866
Rp5867
a(dp5868
g71
(dp5869
g73
g5841
sg74
(lp5870
(dp5871
g77
g78
(I0
I6
I1
tp5872
Rp5873
sg81
g5854
sasstp5874
bsg83
g84
sg15
NsbsF8.0
g7
(g8
g9
Ntp5875
Rp5876
(dp5877
g13
g14
sg16
g7
(g17
g9
Ntp5878
Rp5879
((lp5880
g21
(g22
(dp5881
g24
g25
(g26
(I0
tp5882
g28
tp5883
Rp5884
(I1
(I6
tp5885
g35
I00
(lp5886
g39
ag40
ag41
ag42
ag43
ag44
atp5887
bsg15
Nstp5888
Rp5889
a(lp5890
g25
(g26
(I0
tp5891
g28
tp5892
Rp5893
(I1
(I6
tp5894
g55
I00
S'\x9f\xc4 s\x02U\x03@\xc2\x833\xaa\xe7\xc9!@\xa4\x9ed\x04\xb4c6@$9p;\xfdI\x02@\x98k{Her\x10@\xe6\xa6\xdc\xdb>M\x08@'
p5895
tp5896
ba(lp5897
g21
(g22
(dp5898
g24
g25
(g26
(I0
tp5899
g28
tp5900
Rp5901
(I1
(I6
tp5902
g35
I00
(lp5903
g39
ag40
ag41
ag42
ag43
ag44
atp5904
bsg15
Nstp5905
Rp5906
a(dp5907
g71
(dp5908
g73
g5880
sg74
(lp5909
(dp5910
g77
g78
(I0
I6
I1
tp5911
Rp5912
sg81
g5893
sasstp5913
bsg83
g84
sg15
NsbsF9.0
g7
(g8
g9
Ntp5914
Rp5915
(dp5916
g13
g14
sg16
g7
(g17
g9
Ntp5917
Rp5918
((lp5919
g21
(g22
(dp5920
g24
g25
(g26
(I0
tp5921
g28
tp5922
Rp5923
(I1
(I6
tp5924
g35
I00
(lp5925
g39
ag40
ag41
ag42
ag43
ag44
atp5926
bsg15
Nstp5927
Rp5928
a(lp5929
g25
(g26
(I0
tp5930
g28
tp5931
Rp5932
(I1
(I6
tp5933
g55
I00
S'q\xe8\xf3\xcb\x91\x08\x03@\xb6E\xb4@\xf5\xb0 @\x8b\xaa\x8e\xff\xf924@\x89\xfc\xa2\xcb\x8e\x13\x05@l"\xdeH8\xf3\x08@\xe8\x96W\xf1S\xa7\n@'
p5934
tp5935
ba(lp5936
g21
(g22
(dp5937
g24
g25
(g26
(I0
tp5938
g28
tp5939
Rp5940
(I1
(I6
tp5941
g35
I00
(lp5942
g39
ag40
ag41
ag42
ag43
ag44
atp5943
bsg15
Nstp5944
Rp5945
a(dp5946
g71
(dp5947
g73
g5919
sg74
(lp5948
(dp5949
g77
g78
(I0
I6
I1
tp5950
Rp5951
sg81
g5932
sasstp5952
bsg83
g84
sg15
NsbsF10.0
g7
(g8
g9
Ntp5953
Rp5954
(dp5955
g13
g14
sg16
g7
(g17
g9
Ntp5956
Rp5957
((lp5958
g21
(g22
(dp5959
g24
g25
(g26
(I0
tp5960
g28
tp5961
Rp5962
(I1
(I6
tp5963
g35
I00
(lp5964
g39
ag40
ag41
ag42
ag43
ag44
atp5965
bsg15
Nstp5966
Rp5967
a(lp5968
g25
(g26
(I0
tp5969
g28
tp5970
Rp5971
(I1
(I6
tp5972
g55
I00
S'q\xe8\xf3\xcb\x91\x08\x03@\xb6E\xb4@\xf5\xb0 @\x8b\xaa\x8e\xff\xf924@\x89\xfc\xa2\xcb\x8e\x13\x05@l"\xdeH8\xf3\x08@\xe8\x96W\xf1S\xa7\n@'
p5973
tp5974
ba(lp5975
g21
(g22
(dp5976
g24
g25
(g26
(I0
tp5977
g28
tp5978
Rp5979
(I1
(I6
tp5980
g35
I00
(lp5981
g39
ag40
ag41
ag42
ag43
ag44
atp5982
bsg15
Nstp5983
Rp5984
a(dp5985
g71
(dp5986
g73
g5958
sg74
(lp5987
(dp5988
g77
g78
(I0
I6
I1
tp5989
Rp5990
sg81
g5971
sasstp5991
bsg83
g84
sg15
NsbsF15.0
g7
(g8
g9
Ntp5992
Rp5993
(dp5994
g13
g14
sg16
g7
(g17
g9
Ntp5995
Rp5996
((lp5997
g21
(g22
(dp5998
g24
g25
(g26
(I0
tp5999
g28
tp6000
Rp6001
(I1
(I6
tp6002
g35
I00
(lp6003
g39
ag40
ag41
ag42
ag43
ag44
atp6004
bsg15
Nstp6005
Rp6006
a(lp6007
g25
(g26
(I0
tp6008
g28
tp6009
Rp6010
(I1
(I6
tp6011
g55
I00
S"\xb8I\xe0NL\x04\x01@\x02ku\x91\xc9\x9e @\x1b\xd7\xc3\x05\x9e:3@\xb5'\xf9\x0fO\x10\xfe?;\xf2\x01`1@\x04@V\x18\xf3\x95\xe5\x0f\xfc?"
p6012
tp6013
ba(lp6014
g21
(g22
(dp6015
g24
g25
(g26
(I0
tp6016
g28
tp6017
Rp6018
(I1
(I6
tp6019
g35
I00
(lp6020
g39
ag40
ag41
ag42
ag43
ag44
atp6021
bsg15
Nstp6022
Rp6023
a(dp6024
g71
(dp6025
g73
g5997
sg74
(lp6026
(dp6027
g77
g78
(I0
I6
I1
tp6028
Rp6029
sg81
g6010
sasstp6030
bsg83
g84
sg15
NsbsF80.0
g7
(g8
g9
Ntp6031
Rp6032
(dp6033
g13
g14
sg16
g7
(g17
g9
Ntp6034
Rp6035
((lp6036
g21
(g22
(dp6037
g24
g25
(g26
(I0
tp6038
g28
tp6039
Rp6040
(I1
(I6
tp6041
g35
I00
(lp6042
g39
ag40
ag41
ag42
ag43
ag44
atp6043
bsg15
Nstp6044
Rp6045
a(lp6046
g25
(g26
(I0
tp6047
g28
tp6048
Rp6049
(I1
(I6
tp6050
g55
I00
S'\xfa\x82Es\xf4\x19\xff?\xc3=\x04\xbb\xd3s\x1c@\x07\xdd[\xd8\x81D0@\xda*uL\xe9O\xfc?U\xf6\xb5\xd5\x1d\xe7\x01@D\xc5\x81\xab\xc5\x92\xe8?'
p6051
tp6052
ba(lp6053
g21
(g22
(dp6054
g24
g25
(g26
(I0
tp6055
g28
tp6056
Rp6057
(I1
(I6
tp6058
g35
I00
(lp6059
g39
ag40
ag41
ag42
ag43
ag44
atp6060
bsg15
Nstp6061
Rp6062
a(dp6063
g71
(dp6064
g73
g6036
sg74
(lp6065
(dp6066
g77
g78
(I0
I6
I1
tp6067
Rp6068
sg81
g6049
sasstp6069
bsg83
g84
sg15
NsbsF40.0
g7
(g8
g9
Ntp6070
Rp6071
(dp6072
g13
g14
sg16
g7
(g17
g9
Ntp6073
Rp6074
((lp6075
g21
(g22
(dp6076
g24
g25
(g26
(I0
tp6077
g28
tp6078
Rp6079
(I1
(I6
tp6080
g35
I00
(lp6081
g39
ag40
ag41
ag42
ag43
ag44
atp6082
bsg15
Nstp6083
Rp6084
a(lp6085
g25
(g26
(I0
tp6086
g28
tp6087
Rp6088
(I1
(I6
tp6089
g55
I00
S'\x1e\xb9+\xac\xc8b\x00@\rY\xcc\x079\xaf\x1d@\xee+\x06\x0f\n\xfa0@\xb8\xbc\xfd\x9f!\x95\xfc?r\x1d\x8a\x83\x8f}\x02@z\xb3=B\xbc\xb2\xe9?'
p6090
tp6091
ba(lp6092
g21
(g22
(dp6093
g24
g25
(g26
(I0
tp6094
g28
tp6095
Rp6096
(I1
(I6
tp6097
g35
I00
(lp6098
g39
ag40
ag41
ag42
ag43
ag44
atp6099
bsg15
Nstp6100
Rp6101
a(dp6102
g71
(dp6103
g73
g6075
sg74
(lp6104
(dp6105
g77
g78
(I0
I6
I1
tp6106
Rp6107
sg81
g6088
sasstp6108
bsg83
g84
sg15
NsbsF50.0
g7
(g8
g9
Ntp6109
Rp6110
(dp6111
g13
g14
sg16
g7
(g17
g9
Ntp6112
Rp6113
((lp6114
g21
(g22
(dp6115
g24
g25
(g26
(I0
tp6116
g28
tp6117
Rp6118
(I1
(I6
tp6119
g35
I00
(lp6120
g39
ag40
ag41
ag42
ag43
ag44
atp6121
bsg15
Nstp6122
Rp6123
a(lp6124
g25
(g26
(I0
tp6125
g28
tp6126
Rp6127
(I1
(I6
tp6128
g55
I00
S'pD\xbeP\x9ej\x00@CTk\xc0\x0e>\x1c@7\xc8D\xd3y\xce0@\x9a\xf1\xdcq\xb3k\xfc?\x02\xde\x89\xe2gy\x02@\x8a\xa9\x06\x12\xaa\xbd\xe9?'
p6129
tp6130
ba(lp6131
g21
(g22
(dp6132
g24
g25
(g26
(I0
tp6133
g28
tp6134
Rp6135
(I1
(I6
tp6136
g35
I00
(lp6137
g39
ag40
ag41
ag42
ag43
ag44
atp6138
bsg15
Nstp6139
Rp6140
a(dp6141
g71
(dp6142
g73
g6114
sg74
(lp6143
(dp6144
g77
g78
(I0
I6
I1
tp6145
Rp6146
sg81
g6127
sasstp6147
bsg83
g84
sg15
NsbsF20.0
g7
(g8
g9
Ntp6148
Rp6149
(dp6150
g13
g14
sg16
g7
(g17
g9
Ntp6151
Rp6152
((lp6153
g21
(g22
(dp6154
g24
g25
(g26
(I0
tp6155
g28
tp6156
Rp6157
(I1
(I6
tp6158
g35
I00
(lp6159
g39
ag40
ag41
ag42
ag43
ag44
atp6160
bsg15
Nstp6161
Rp6162
a(lp6163
g25
(g26
(I0
tp6164
g28
tp6165
Rp6166
(I1
(I6
tp6167
g55
I00
S'\x84_\xa4\xb7C\xfd\x00@\x9e\x82H\x10\x05\x7f\x1e@b\x84;\xd7\x98t3@\xeaZ\xcfT-\x0f\xfe?f-\xe8]\xa7\xe6\x04@(\x0e\xe4-\x0f>\xf0?'
p6168
tp6169
ba(lp6170
g21
(g22
(dp6171
g24
g25
(g26
(I0
tp6172
g28
tp6173
Rp6174
(I1
(I6
tp6175
g35
I00
(lp6176
g39
ag40
ag41
ag42
ag43
ag44
atp6177
bsg15
Nstp6178
Rp6179
a(dp6180
g71
(dp6181
g73
g6153
sg74
(lp6182
(dp6183
g77
g78
(I0
I6
I1
tp6184
Rp6185
sg81
g6166
sasstp6186
bsg83
g84
sg15
NsbsF90.0
g7
(g8
g9
Ntp6187
Rp6188
(dp6189
g13
g14
sg16
g7
(g17
g9
Ntp6190
Rp6191
((lp6192
g21
(g22
(dp6193
g24
g25
(g26
(I0
tp6194
g28
tp6195
Rp6196
(I1
(I6
tp6197
g35
I00
(lp6198
g39
ag40
ag41
ag42
ag43
ag44
atp6199
bsg15
Nstp6200
Rp6201
a(lp6202
g25
(g26
(I0
tp6203
g28
tp6204
Rp6205
(I1
(I6
tp6206
g55
I00
S'@a\xee\xf4\x04\x82\xff?\xa5\xf7\xa2b\xbfb\x1c@\xe2N\x07 \x91\xcc2@\xca\xbe\xdeF\xd78\xfb?W&\xafsE\xf9\x01@\x92\xbf\xf2\x1f\n6\xe8?'
p6207
tp6208
ba(lp6209
g21
(g22
(dp6210
g24
g25
(g26
(I0
tp6211
g28
tp6212
Rp6213
(I1
(I6
tp6214
g35
I00
(lp6215
g39
ag40
ag41
ag42
ag43
ag44
atp6216
bsg15
Nstp6217
Rp6218
a(dp6219
g71
(dp6220
g73
g6192
sg74
(lp6221
(dp6222
g77
g78
(I0
I6
I1
tp6223
Rp6224
sg81
g6205
sasstp6225
bsg83
g84
sg15
NsbsF60.0
g7
(g8
g9
Ntp6226
Rp6227
(dp6228
g13
g14
sg16
g7
(g17
g9
Ntp6229
Rp6230
((lp6231
g21
(g22
(dp6232
g24
g25
(g26
(I0
tp6233
g28
tp6234
Rp6235
(I1
(I6
tp6236
g35
I00
(lp6237
g39
ag40
ag41
ag42
ag43
ag44
atp6238
bsg15
Nstp6239
Rp6240
a(lp6241
g25
(g26
(I0
tp6242
g28
tp6243
Rp6244
(I1
(I6
tp6245
g55
I00
S'2rZe\xa3\xaf\xff?\xad\x10\xec\x7f\xcf\xc8\x1c@F\x8a\x9cNLB1@\xde\xb2\xe6[\xf9\x04\xfc?b\x98;fx$\x02@\x89\xf4p\x82\xc3\xdf\xe7?'
p6246
tp6247
ba(lp6248
g21
(g22
(dp6249
g24
g25
(g26
(I0
tp6250
g28
tp6251
Rp6252
(I1
(I6
tp6253
g35
I00
(lp6254
g39
ag40
ag41
ag42
ag43
ag44
atp6255
bsg15
Nstp6256
Rp6257
a(dp6258
g71
(dp6259
g73
g6231
sg74
(lp6260
(dp6261
g77
g78
(I0
I6
I1
tp6262
Rp6263
sg81
g6244
sasstp6264
bsg83
g84
sg15
NsbsF30.0
g7
(g8
g9
Ntp6265
Rp6266
(dp6267
g13
g14
sg16
g7
(g17
g9
Ntp6268
Rp6269
((lp6270
g21
(g22
(dp6271
g24
g25
(g26
(I0
tp6272
g28
tp6273
Rp6274
(I1
(I6
tp6275
g35
I00
(lp6276
g39
ag40
ag41
ag42
ag43
ag44
atp6277
bsg15
Nstp6278
Rp6279
a(lp6280
g25
(g26
(I0
tp6281
g28
tp6282
Rp6283
(I1
(I6
tp6284
g55
I00
S"\x13\xc01\xcd\xa6N\x00@\xae\xc3\xea\xd6/\x8a\x1d@\xd9'A\xd0z\xbb1@\xa5\xd9\xc1R4:\xfd?\xdeZjB\xe3\r\x03@\x10T\xc1\x17Ay\xeb?"
p6285
tp6286
ba(lp6287
g21
(g22
(dp6288
g24
g25
(g26
(I0
tp6289
g28
tp6290
Rp6291
(I1
(I6
tp6292
g35
I00
(lp6293
g39
ag40
ag41
ag42
ag43
ag44
atp6294
bsg15
Nstp6295
Rp6296
a(dp6297
g71
(dp6298
g73
g6270
sg74
(lp6299
(dp6300
g77
g78
(I0
I6
I1
tp6301
Rp6302
sg81
g6283
sasstp6303
bsg83
g84
sg15
Nsbsssg1296
(dp6304
g5
(dp6305
F0.0
g7
(g8
g9
Ntp6306
Rp6307
(dp6308
g13
g14
sg16
g7
(g17
g9
Ntp6309
Rp6310
((lp6311
g21
(g22
(dp6312
g24
g25
(g26
(I0
tp6313
g28
tp6314
Rp6315
(I1
(I6
tp6316
g35
I00
(lp6317
g39
ag40
ag41
ag42
ag43
ag44
atp6318
bsg15
Nstp6319
Rp6320
a(lp6321
g25
(g26
(I0
tp6322
g28
tp6323
Rp6324
(I1
(I6
tp6325
g55
I00
S"\xe5l\xc1y\x87G\xff?'\xbf\xf2\xb3\xff\x06'@\xc9@\x80q\xfe\x0f2@C\x92\xe7\x8f\xd3\x90\x03@\xb9\xe0j\xd6\x8bk\x05@X\x81\xa6\x90\x83&\xf0?"
p6326
tp6327
ba(lp6328
g21
(g22
(dp6329
g24
g25
(g26
(I0
tp6330
g28
tp6331
Rp6332
(I1
(I6
tp6333
g35
I00
(lp6334
g39
ag40
ag41
ag42
ag43
ag44
atp6335
bsg15
Nstp6336
Rp6337
a(dp6338
g71
(dp6339
g73
g6311
sg74
(lp6340
(dp6341
g77
g78
(I0
I6
I1
tp6342
Rp6343
sg81
g6324
sasstp6344
bsg83
g84
sg15
NsbsF100.0
g7
(g8
g9
Ntp6345
Rp6346
(dp6347
g13
g14
sg16
g7
(g17
g9
Ntp6348
Rp6349
((lp6350
g21
(g22
(dp6351
g24
g25
(g26
(I0
tp6352
g28
tp6353
Rp6354
(I1
(I6
tp6355
g35
I00
(lp6356
g39
ag40
ag41
ag42
ag43
ag44
atp6357
bsg15
Nstp6358
Rp6359
a(lp6360
g25
(g26
(I0
tp6361
g28
tp6362
Rp6363
(I1
(I6
tp6364
g55
I00
S'\xd5+\xaf[\xf4,\xff?1O6K\x8ck#@z\xa5~$\xc9\x18,@\xa2\x8c\xc1\x9a\xb7\xe7\x00@\xe0[\x07\xa4\x1e\x1b\x03@\xc5a\x8cpJ\x7f\xed?'
p6365
tp6366
ba(lp6367
g21
(g22
(dp6368
g24
g25
(g26
(I0
tp6369
g28
tp6370
Rp6371
(I1
(I6
tp6372
g35
I00
(lp6373
g39
ag40
ag41
ag42
ag43
ag44
atp6374
bsg15
Nstp6375
Rp6376
a(dp6377
g71
(dp6378
g73
g6350
sg74
(lp6379
(dp6380
g77
g78
(I0
I6
I1
tp6381
Rp6382
sg81
g6363
sasstp6383
bsg83
g84
sg15
NsbsF70.0
g7
(g8
g9
Ntp6384
Rp6385
(dp6386
g13
g14
sg16
g7
(g17
g9
Ntp6387
Rp6388
((lp6389
g21
(g22
(dp6390
g24
g25
(g26
(I0
tp6391
g28
tp6392
Rp6393
(I1
(I6
tp6394
g35
I00
(lp6395
g39
ag40
ag41
ag42
ag43
ag44
atp6396
bsg15
Nstp6397
Rp6398
a(lp6399
g25
(g26
(I0
tp6400
g28
tp6401
Rp6402
(I1
(I6
tp6403
g55
I00
S'2\x98\x0c\xdb\xdb\xa8\xfe?\xf5\xfdc\x7f\xc1\xc8"@\x05\xb2]\xcc\xf3\xb9.@\x03\xfa\xdc\xdc\xcd\xef\x00@f\x04&?\x8f.\x02@\xdef\xc4\x19\xf0\xf7\xea?'
p6404
tp6405
ba(lp6406
g21
(g22
(dp6407
g24
g25
(g26
(I0
tp6408
g28
tp6409
Rp6410
(I1
(I6
tp6411
g35
I00
(lp6412
g39
ag40
ag41
ag42
ag43
ag44
atp6413
bsg15
Nstp6414
Rp6415
a(dp6416
g71
(dp6417
g73
g6389
sg74
(lp6418
(dp6419
g77
g78
(I0
I6
I1
tp6420
Rp6421
sg81
g6402
sasstp6422
bsg83
g84
sg15
NsbsF6.0
g7
(g8
g9
Ntp6423
Rp6424
(dp6425
g13
g14
sg16
g7
(g17
g9
Ntp6426
Rp6427
((lp6428
g21
(g22
(dp6429
g24
g25
(g26
(I0
tp6430
g28
tp6431
Rp6432
(I1
(I6
tp6433
g35
I00
(lp6434
g39
ag40
ag41
ag42
ag43
ag44
atp6435
bsg15
Nstp6436
Rp6437
a(lp6438
g25
(g26
(I0
tp6439
g28
tp6440
Rp6441
(I1
(I6
tp6442
g55
I00
S'c\x8aB"\xc2\x91\xfe?\x0b3\x86\xa3\xd1\x98$@X\xf1\x01\xcdl\xb76@f))\xb7\xd5A\x02@\x83\xce\x9c\xdd\x81X\x04@\xbep\xfb\xbe\xd1\x97\xec?'
p6443
tp6444
ba(lp6445
g21
(g22
(dp6446
g24
g25
(g26
(I0
tp6447
g28
tp6448
Rp6449
(I1
(I6
tp6450
g35
I00
(lp6451
g39
ag40
ag41
ag42
ag43
ag44
atp6452
bsg15
Nstp6453
Rp6454
a(dp6455
g71
(dp6456
g73
g6428
sg74
(lp6457
(dp6458
g77
g78
(I0
I6
I1
tp6459
Rp6460
sg81
g6441
sasstp6461
bsg83
g84
sg15
NsbsF7.0
g7
(g8
g9
Ntp6462
Rp6463
(dp6464
g13
g14
sg16
g7
(g17
g9
Ntp6465
Rp6466
((lp6467
g21
(g22
(dp6468
g24
g25
(g26
(I0
tp6469
g28
tp6470
Rp6471
(I1
(I6
tp6472
g35
I00
(lp6473
g39
ag40
ag41
ag42
ag43
ag44
atp6474
bsg15
Nstp6475
Rp6476
a(lp6477
g25
(g26
(I0
tp6478
g28
tp6479
Rp6480
(I1
(I6
tp6481
g55
I00
S'}\x17<"\xc2\x91\xfe?\xb8.\x8a\xa3\xd1\x98$@8F?\xcdl\xb76@\xa7\x818\xb7\xd5A\x02@\x1e\xcb\x9c\xdd\x81X\x04@\xe0\xa0\xa5\xbf\xd1\x97\xec?'
p6482
tp6483
ba(lp6484
g21
(g22
(dp6485
g24
g25
(g26
(I0
tp6486
g28
tp6487
Rp6488
(I1
(I6
tp6489
g35
I00
(lp6490
g39
ag40
ag41
ag42
ag43
ag44
atp6491
bsg15
Nstp6492
Rp6493
a(dp6494
g71
(dp6495
g73
g6467
sg74
(lp6496
(dp6497
g77
g78
(I0
I6
I1
tp6498
Rp6499
sg81
g6480
sasstp6500
bsg83
g84
sg15
NsbsF8.0
g7
(g8
g9
Ntp6501
Rp6502
(dp6503
g13
g14
sg16
g7
(g17
g9
Ntp6504
Rp6505
((lp6506
g21
(g22
(dp6507
g24
g25
(g26
(I0
tp6508
g28
tp6509
Rp6510
(I1
(I6
tp6511
g35
I00
(lp6512
g39
ag40
ag41
ag42
ag43
ag44
atp6513
bsg15
Nstp6514
Rp6515
a(lp6516
g25
(g26
(I0
tp6517
g28
tp6518
Rp6519
(I1
(I6
tp6520
g55
I00
S'\xed\xaa\xdd!\xc2\x91\xfe?y\x04\xf8\xa3\xd1\x98$@-\xde\xf7\xcbl\xb76@9\xc1A\xb7\xd5A\x02@\x9d\xba\xa5\xdd\x81X\x04@\xd5\x13\xf3\xbe\xd1\x97\xec?'
p6521
tp6522
ba(lp6523
g21
(g22
(dp6524
g24
g25
(g26
(I0
tp6525
g28
tp6526
Rp6527
(I1
(I6
tp6528
g35
I00
(lp6529
g39
ag40
ag41
ag42
ag43
ag44
atp6530
bsg15
Nstp6531
Rp6532
a(dp6533
g71
(dp6534
g73
g6506
sg74
(lp6535
(dp6536
g77
g78
(I0
I6
I1
tp6537
Rp6538
sg81
g6519
sasstp6539
bsg83
g84
sg15
NsbsF9.0
g7
(g8
g9
Ntp6540
Rp6541
(dp6542
g13
g14
sg16
g7
(g17
g9
Ntp6543
Rp6544
((lp6545
g21
(g22
(dp6546
g24
g25
(g26
(I0
tp6547
g28
tp6548
Rp6549
(I1
(I6
tp6550
g35
I00
(lp6551
g39
ag40
ag41
ag42
ag43
ag44
atp6552
bsg15
Nstp6553
Rp6554
a(lp6555
g25
(g26
(I0
tp6556
g28
tp6557
Rp6558
(I1
(I6
tp6559
g55
I00
S'MY=\xf7\xf5\xbd\xfe?\x16\x9a\x1d/bm#@\xaeY~\xc1"\xc06@\x1e"I2\x07\xb8\x01@]\xfd\xbf\x93_\x0b\x04@M\x07&\x1e~\xde\xeb?'
p6560
tp6561
ba(lp6562
g21
(g22
(dp6563
g24
g25
(g26
(I0
tp6564
g28
tp6565
Rp6566
(I1
(I6
tp6567
g35
I00
(lp6568
g39
ag40
ag41
ag42
ag43
ag44
atp6569
bsg15
Nstp6570
Rp6571
a(dp6572
g71
(dp6573
g73
g6545
sg74
(lp6574
(dp6575
g77
g78
(I0
I6
I1
tp6576
Rp6577
sg81
g6558
sasstp6578
bsg83
g84
sg15
NsbsF10.0
g7
(g8
g9
Ntp6579
Rp6580
(dp6581
g13
g14
sg16
g7
(g17
g9
Ntp6582
Rp6583
((lp6584
g21
(g22
(dp6585
g24
g25
(g26
(I0
tp6586
g28
tp6587
Rp6588
(I1
(I6
tp6589
g35
I00
(lp6590
g39
ag40
ag41
ag42
ag43
ag44
atp6591
bsg15
Nstp6592
Rp6593
a(lp6594
g25
(g26
(I0
tp6595
g28
tp6596
Rp6597
(I1
(I6
tp6598
g55
I00
S'-"H\xf7\xf5\xbd\xfe?x\x88\x1f/bm#@\x1d\x10\x82\xc1"\xc06@/\xd1W2\x07\xb8\x01@B\x19\xc0\x93_\x0b\x04@N\x8a\xb4\x1e~\xde\xeb?'
p6599
tp6600
ba(lp6601
g21
(g22
(dp6602
g24
g25
(g26
(I0
tp6603
g28
tp6604
Rp6605
(I1
(I6
tp6606
g35
I00
(lp6607
g39
ag40
ag41
ag42
ag43
ag44
atp6608
bsg15
Nstp6609
Rp6610
a(dp6611
g71
(dp6612
g73
g6584
sg74
(lp6613
(dp6614
g77
g78
(I0
I6
I1
tp6615
Rp6616
sg81
g6597
sasstp6617
bsg83
g84
sg15
NsbsF15.0
g7
(g8
g9
Ntp6618
Rp6619
(dp6620
g13
g14
sg16
g7
(g17
g9
Ntp6621
Rp6622
((lp6623
g21
(g22
(dp6624
g24
g25
(g26
(I0
tp6625
g28
tp6626
Rp6627
(I1
(I6
tp6628
g35
I00
(lp6629
g39
ag40
ag41
ag42
ag43
ag44
atp6630
bsg15
Nstp6631
Rp6632
a(lp6633
g25
(g26
(I0
tp6634
g28
tp6635
Rp6636
(I1
(I6
tp6637
g55
I00
S"\x06;\xf3\xea\x03\xf3\xfd?S'\x17\xc9\x07\x9f#@~=\x1b\x98\x7f\xc61@\xd2\xbaM\xb8\xcce\x01@b\x14\x86H\xa5\x06\x04@\xe5\xb8\xd6\x92?H\xeb?"
p6638
tp6639
ba(lp6640
g21
(g22
(dp6641
g24
g25
(g26
(I0
tp6642
g28
tp6643
Rp6644
(I1
(I6
tp6645
g35
I00
(lp6646
g39
ag40
ag41
ag42
ag43
ag44
atp6647
bsg15
Nstp6648
Rp6649
a(dp6650
g71
(dp6651
g73
g6623
sg74
(lp6652
(dp6653
g77
g78
(I0
I6
I1
tp6654
Rp6655
sg81
g6636
sasstp6656
bsg83
g84
sg15
NsbsF80.0
g7
(g8
g9
Ntp6657
Rp6658
(dp6659
g13
g14
sg16
g7
(g17
g9
Ntp6660
Rp6661
((lp6662
g21
(g22
(dp6663
g24
g25
(g26
(I0
tp6664
g28
tp6665
Rp6666
(I1
(I6
tp6667
g35
I00
(lp6668
g39
ag40
ag41
ag42
ag43
ag44
atp6669
bsg15
Nstp6670
Rp6671
a(lp6672
g25
(g26
(I0
tp6673
g28
tp6674
Rp6675
(I1
(I6
tp6676
g55
I00
S'\xc2C\xdbM\xec`\xfe?\xbb?\xf5c_\xf5"@\xc2\xcc\xcaL[\xed-@\x93\x07\xf3\x07v\xf5\x00@W\x1c\x90\xf9H\x82\x03@Z\x06\xec\xb0r\xc9\xea?'
p6677
tp6678
ba(lp6679
g21
(g22
(dp6680
g24
g25
(g26
(I0
tp6681
g28
tp6682
Rp6683
(I1
(I6
tp6684
g35
I00
(lp6685
g39
ag40
ag41
ag42
ag43
ag44
atp6686
bsg15
Nstp6687
Rp6688
a(dp6689
g71
(dp6690
g73
g6662
sg74
(lp6691
(dp6692
g77
g78
(I0
I6
I1
tp6693
Rp6694
sg81
g6675
sasstp6695
bsg83
g84
sg15
NsbsF40.0
g7
(g8
g9
Ntp6696
Rp6697
(dp6698
g13
g14
sg16
g7
(g17
g9
Ntp6699
Rp6700
((lp6701
g21
(g22
(dp6702
g24
g25
(g26
(I0
tp6703
g28
tp6704
Rp6705
(I1
(I6
tp6706
g35
I00
(lp6707
g39
ag40
ag41
ag42
ag43
ag44
atp6708
bsg15
Nstp6709
Rp6710
a(lp6711
g25
(g26
(I0
tp6712
g28
tp6713
Rp6714
(I1
(I6
tp6715
g55
I00
S"\x83\xf4\x9eJ\xda\xb0\xfe?\t\xfe\x02\x86\xb5`#@S\xe5\x93\x9f'\x070@fK\xfd\x8c\x08`\x01@\xaa\xd5B\xcc\xc3a\x03@%\x9b\x938\xab\x11\xeb?"
p6716
tp6717
ba(lp6718
g21
(g22
(dp6719
g24
g25
(g26
(I0
tp6720
g28
tp6721
Rp6722
(I1
(I6
tp6723
g35
I00
(lp6724
g39
ag40
ag41
ag42
ag43
ag44
atp6725
bsg15
Nstp6726
Rp6727
a(dp6728
g71
(dp6729
g73
g6701
sg74
(lp6730
(dp6731
g77
g78
(I0
I6
I1
tp6732
Rp6733
sg81
g6714
sasstp6734
bsg83
g84
sg15
NsbsF50.0
g7
(g8
g9
Ntp6735
Rp6736
(dp6737
g13
g14
sg16
g7
(g17
g9
Ntp6738
Rp6739
((lp6740
g21
(g22
(dp6741
g24
g25
(g26
(I0
tp6742
g28
tp6743
Rp6744
(I1
(I6
tp6745
g35
I00
(lp6746
g39
ag40
ag41
ag42
ag43
ag44
atp6747
bsg15
Nstp6748
Rp6749
a(lp6750
g25
(g26
(I0
tp6751
g28
tp6752
Rp6753
(I1
(I6
tp6754
g55
I00
S'\x8d7\xc9\x0e\x1d\x00\xfe?\xc1~^\xce\xe2\x03#@\xd3C\x00p\xdcz/@\x1e&\x8e\x19\x16\x06\x01@"\xfad\x02\x97\x89\x03@sm41\xa4W\xeb?'
p6755
tp6756
ba(lp6757
g21
(g22
(dp6758
g24
g25
(g26
(I0
tp6759
g28
tp6760
Rp6761
(I1
(I6
tp6762
g35
I00
(lp6763
g39
ag40
ag41
ag42
ag43
ag44
atp6764
bsg15
Nstp6765
Rp6766
a(dp6767
g71
(dp6768
g73
g6740
sg74
(lp6769
(dp6770
g77
g78
(I0
I6
I1
tp6771
Rp6772
sg81
g6753
sasstp6773
bsg83
g84
sg15
NsbsF20.0
g7
(g8
g9
Ntp6774
Rp6775
(dp6776
g13
g14
sg16
g7
(g17
g9
Ntp6777
Rp6778
((lp6779
g21
(g22
(dp6780
g24
g25
(g26
(I0
tp6781
g28
tp6782
Rp6783
(I1
(I6
tp6784
g35
I00
(lp6785
g39
ag40
ag41
ag42
ag43
ag44
atp6786
bsg15
Nstp6787
Rp6788
a(lp6789
g25
(g26
(I0
tp6790
g28
tp6791
Rp6792
(I1
(I6
tp6793
g55
I00
S'cU\x95\x0bM\x1b\xfe?\x97\xe8}!:\xf7#@\xa7\xae\xe4\x82\xb7T1@\xa2V\x8b\xb5\xd7h\x01@\xae(\xa5)\n\x07\x04@\xfa\xbf\x05E\x13\xbe\xec?'
p6794
tp6795
ba(lp6796
g21
(g22
(dp6797
g24
g25
(g26
(I0
tp6798
g28
tp6799
Rp6800
(I1
(I6
tp6801
g35
I00
(lp6802
g39
ag40
ag41
ag42
ag43
ag44
atp6803
bsg15
Nstp6804
Rp6805
a(dp6806
g71
(dp6807
g73
g6779
sg74
(lp6808
(dp6809
g77
g78
(I0
I6
I1
tp6810
Rp6811
sg81
g6792
sasstp6812
bsg83
g84
sg15
NsbsF90.0
g7
(g8
g9
Ntp6813
Rp6814
(dp6815
g13
g14
sg16
g7
(g17
g9
Ntp6816
Rp6817
((lp6818
g21
(g22
(dp6819
g24
g25
(g26
(I0
tp6820
g28
tp6821
Rp6822
(I1
(I6
tp6823
g35
I00
(lp6824
g39
ag40
ag41
ag42
ag43
ag44
atp6825
bsg15
Nstp6826
Rp6827
a(lp6828
g25
(g26
(I0
tp6829
g28
tp6830
Rp6831
(I1
(I6
tp6832
g55
I00
S'Xv\xc5;\x94\x8d\xfe?+\x90\xea{\x83\x84"@\xd5\x80@\xc9\xaf<,@\xec\x07t\xb6[\x9b\x00@r*\xa2\x86\xf9\xb8\x02@6g\x9e\xdf\xdex\xed?'
p6833
tp6834
ba(lp6835
g21
(g22
(dp6836
g24
g25
(g26
(I0
tp6837
g28
tp6838
Rp6839
(I1
(I6
tp6840
g35
I00
(lp6841
g39
ag40
ag41
ag42
ag43
ag44
atp6842
bsg15
Nstp6843
Rp6844
a(dp6845
g71
(dp6846
g73
g6818
sg74
(lp6847
(dp6848
g77
g78
(I0
I6
I1
tp6849
Rp6850
sg81
g6831
sasstp6851
bsg83
g84
sg15
NsbsF60.0
g7
(g8
g9
Ntp6852
Rp6853
(dp6854
g13
g14
sg16
g7
(g17
g9
Ntp6855
Rp6856
((lp6857
g21
(g22
(dp6858
g24
g25
(g26
(I0
tp6859
g28
tp6860
Rp6861
(I1
(I6
tp6862
g35
I00
(lp6863
g39
ag40
ag41
ag42
ag43
ag44
atp6864
bsg15
Nstp6865
Rp6866
a(lp6867
g25
(g26
(I0
tp6868
g28
tp6869
Rp6870
(I1
(I6
tp6871
g55
I00
S'\xd0\xcf\x9d\xb9&U\xfe?D\xe1@\x1f\xd3\x1d"@\xeb\x99\x85<\rA.@\x10\xbfw\x86\x95\xb7\x00@\x9al\xc6\'\x8f\xd6\x02@\nPhW\x10\x88\xea?'
p6872
tp6873
ba(lp6874
g21
(g22
(dp6875
g24
g25
(g26
(I0
tp6876
g28
tp6877
Rp6878
(I1
(I6
tp6879
g35
I00
(lp6880
g39
ag40
ag41
ag42
ag43
ag44
atp6881
bsg15
Nstp6882
Rp6883
a(dp6884
g71
(dp6885
g73
g6857
sg74
(lp6886
(dp6887
g77
g78
(I0
I6
I1
tp6888
Rp6889
sg81
g6870
sasstp6890
bsg83
g84
sg15
NsbsF30.0
g7
(g8
g9
Ntp6891
Rp6892
(dp6893
g13
g14
sg16
g7
(g17
g9
Ntp6894
Rp6895
((lp6896
g21
(g22
(dp6897
g24
g25
(g26
(I0
tp6898
g28
tp6899
Rp6900
(I1
(I6
tp6901
g35
I00
(lp6902
g39
ag40
ag41
ag42
ag43
ag44
atp6903
bsg15
Nstp6904
Rp6905
a(lp6906
g25
(g26
(I0
tp6907
g28
tp6908
Rp6909
(I1
(I6
tp6910
g55
I00
S'5\xe7\x18\xd3\xf7y\xfe?\xaafN\xadly"@~\xdc\xf4\xa9\xe9\xc60@\x01\xd9\xfbv\xc5\xe9\x00@\x0eJ\xd0t\x94)\x03@U\x83Sx\xffx\xeb?'
p6911
tp6912
ba(lp6913
g21
(g22
(dp6914
g24
g25
(g26
(I0
tp6915
g28
tp6916
Rp6917
(I1
(I6
tp6918
g35
I00
(lp6919
g39
ag40
ag41
ag42
ag43
ag44
atp6920
bsg15
Nstp6921
Rp6922
a(dp6923
g71
(dp6924
g73
g6896
sg74
(lp6925
(dp6926
g77
g78
(I0
I6
I1
tp6927
Rp6928
sg81
g6909
sasstp6929
bsg83
g84
sg15
Nsbssg670
(dp6930
F0.0
g7
(g8
g9
Ntp6931
Rp6932
(dp6933
g13
g14
sg16
g7
(g17
g9
Ntp6934
Rp6935
((lp6936
g21
(g22
(dp6937
g24
g25
(g26
(I0
tp6938
g28
tp6939
Rp6940
(I1
(I6
tp6941
g35
I00
(lp6942
g39
ag40
ag41
ag42
ag43
ag44
atp6943
bsg15
Nstp6944
Rp6945
a(lp6946
g25
(g26
(I0
tp6947
g28
tp6948
Rp6949
(I1
(I6
tp6950
g55
I00
S'\xe9\xf5\x92\x92\x04$!@A\xc9\xe8\xf1N\x14"@7R\xeb\xab<\xcf5@\xa9`\x12\x00I\xca%@\x92\n\xc2\x0ce\xb2\x1d@W\x8e\x921\x95N\x13@'
p6951
tp6952
ba(lp6953
g21
(g22
(dp6954
g24
g25
(g26
(I0
tp6955
g28
tp6956
Rp6957
(I1
(I6
tp6958
g35
I00
(lp6959
g39
ag40
ag41
ag42
ag43
ag44
atp6960
bsg15
Nstp6961
Rp6962
a(dp6963
g71
(dp6964
g73
g6936
sg74
(lp6965
(dp6966
g77
g78
(I0
I6
I1
tp6967
Rp6968
sg81
g6949
sasstp6969
bsg83
g84
sg15
NsbsF100.0
g7
(g8
g9
Ntp6970
Rp6971
(dp6972
g13
g14
sg16
g7
(g17
g9
Ntp6973
Rp6974
((lp6975
g21
(g22
(dp6976
g24
g25
(g26
(I0
tp6977
g28
tp6978
Rp6979
(I1
(I6
tp6980
g35
I00
(lp6981
g39
ag40
ag41
ag42
ag43
ag44
atp6982
bsg15
Nstp6983
Rp6984
a(lp6985
g25
(g26
(I0
tp6986
g28
tp6987
Rp6988
(I1
(I6
tp6989
g55
I00
S'\x16\xaa\x13\xf2\xe5\n\xff?V\xa5\xed\x81=P\x1b@\xc6\xd1\x16\xc3\x18\xc81@\x03\x9f\xd4\xaepz\xfb?5\xa5)\x92X\xb3\x01@v\xfa\xfa\nl\x0c\xe7?'
p6990
tp6991
ba(lp6992
g21
(g22
(dp6993
g24
g25
(g26
(I0
tp6994
g28
tp6995
Rp6996
(I1
(I6
tp6997
g35
I00
(lp6998
g39
ag40
ag41
ag42
ag43
ag44
atp6999
bsg15
Nstp7000
Rp7001
a(dp7002
g71
(dp7003
g73
g6975
sg74
(lp7004
(dp7005
g77
g78
(I0
I6
I1
tp7006
Rp7007
sg81
g6988
sasstp7008
bsg83
g84
sg15
NsbsF70.0
g7
(g8
g9
Ntp7009
Rp7010
(dp7011
g13
g14
sg16
g7
(g17
g9
Ntp7012
Rp7013
((lp7014
g21
(g22
(dp7015
g24
g25
(g26
(I0
tp7016
g28
tp7017
Rp7018
(I1
(I6
tp7019
g35
I00
(lp7020
g39
ag40
ag41
ag42
ag43
ag44
atp7021
bsg15
Nstp7022
Rp7023
a(lp7024
g25
(g26
(I0
tp7025
g28
tp7026
Rp7027
(I1
(I6
tp7028
g55
I00
S'u\xf7~\xbd\xf7h\xff?m\x935.\x8b\xac\x1c@f:\xd7\xd5\xeao2@m\xaaa\xbb\xf4^\xfc?\x16<\xaf\xd9j\xfa\x01@\x06\\\x0c=7\xcb\xe8?'
p7029
tp7030
ba(lp7031
g21
(g22
(dp7032
g24
g25
(g26
(I0
tp7033
g28
tp7034
Rp7035
(I1
(I6
tp7036
g35
I00
(lp7037
g39
ag40
ag41
ag42
ag43
ag44
atp7038
bsg15
Nstp7039
Rp7040
a(dp7041
g71
(dp7042
g73
g7014
sg74
(lp7043
(dp7044
g77
g78
(I0
I6
I1
tp7045
Rp7046
sg81
g7027
sasstp7047
bsg83
g84
sg15
NsbsF6.0
g7
(g8
g9
Ntp7048
Rp7049
(dp7050
g13
g14
sg16
g7
(g17
g9
Ntp7051
Rp7052
((lp7053
g21
(g22
(dp7054
g24
g25
(g26
(I0
tp7055
g28
tp7056
Rp7057
(I1
(I6
tp7058
g35
I00
(lp7059
g39
ag40
ag41
ag42
ag43
ag44
atp7060
bsg15
Nstp7061
Rp7062
a(lp7063
g25
(g26
(I0
tp7064
g28
tp7065
Rp7066
(I1
(I6
tp7067
g55
I00
S'\x9f\xc4 s\x02U\x03@\xc2\x833\xaa\xe7\xc9!@\xa4\x9ed\x04\xb4c6@$9p;\xfdI\x02@\x98k{Her\x10@\xe6\xa6\xdc\xdb>M\x08@'
p7068
tp7069
ba(lp7070
g21
(g22
(dp7071
g24
g25
(g26
(I0
tp7072
g28
tp7073
Rp7074
(I1
(I6
tp7075
g35
I00
(lp7076
g39
ag40
ag41
ag42
ag43
ag44
atp7077
bsg15
Nstp7078
Rp7079
a(dp7080
g71
(dp7081
g73
g7053
sg74
(lp7082
(dp7083
g77
g78
(I0
I6
I1
tp7084
Rp7085
sg81
g7066
sasstp7086
bsg83
g84
sg15
NsbsF7.0
g7
(g8
g9
Ntp7087
Rp7088
(dp7089
g13
g14
sg16
g7
(g17
g9
Ntp7090
Rp7091
((lp7092
g21
(g22
(dp7093
g24
g25
(g26
(I0
tp7094
g28
tp7095
Rp7096
(I1
(I6
tp7097
g35
I00
(lp7098
g39
ag40
ag41
ag42
ag43
ag44
atp7099
bsg15
Nstp7100
Rp7101
a(lp7102
g25
(g26
(I0
tp7103
g28
tp7104
Rp7105
(I1
(I6
tp7106
g55
I00
S'\x9f\xc4 s\x02U\x03@\xc2\x833\xaa\xe7\xc9!@\xa4\x9ed\x04\xb4c6@$9p;\xfdI\x02@\x98k{Her\x10@\xe6\xa6\xdc\xdb>M\x08@'
p7107
tp7108
ba(lp7109
g21
(g22
(dp7110
g24
g25
(g26
(I0
tp7111
g28
tp7112
Rp7113
(I1
(I6
tp7114
g35
I00
(lp7115
g39
ag40
ag41
ag42
ag43
ag44
atp7116
bsg15
Nstp7117
Rp7118
a(dp7119
g71
(dp7120
g73
g7092
sg74
(lp7121
(dp7122
g77
g78
(I0
I6
I1
tp7123
Rp7124
sg81
g7105
sasstp7125
bsg83
g84
sg15
NsbsF8.0
g7
(g8
g9
Ntp7126
Rp7127
(dp7128
g13
g14
sg16
g7
(g17
g9
Ntp7129
Rp7130
((lp7131
g21
(g22
(dp7132
g24
g25
(g26
(I0
tp7133
g28
tp7134
Rp7135
(I1
(I6
tp7136
g35
I00
(lp7137
g39
ag40
ag41
ag42
ag43
ag44
atp7138
bsg15
Nstp7139
Rp7140
a(lp7141
g25
(g26
(I0
tp7142
g28
tp7143
Rp7144
(I1
(I6
tp7145
g55
I00
S'\x9f\xc4 s\x02U\x03@\xc2\x833\xaa\xe7\xc9!@\xa4\x9ed\x04\xb4c6@$9p;\xfdI\x02@\x98k{Her\x10@\xe6\xa6\xdc\xdb>M\x08@'
p7146
tp7147
ba(lp7148
g21
(g22
(dp7149
g24
g25
(g26
(I0
tp7150
g28
tp7151
Rp7152
(I1
(I6
tp7153
g35
I00
(lp7154
g39
ag40
ag41
ag42
ag43
ag44
atp7155
bsg15
Nstp7156
Rp7157
a(dp7158
g71
(dp7159
g73
g7131
sg74
(lp7160
(dp7161
g77
g78
(I0
I6
I1
tp7162
Rp7163
sg81
g7144
sasstp7164
bsg83
g84
sg15
NsbsF9.0
g7
(g8
g9
Ntp7165
Rp7166
(dp7167
g13
g14
sg16
g7
(g17
g9
Ntp7168
Rp7169
((lp7170
g21
(g22
(dp7171
g24
g25
(g26
(I0
tp7172
g28
tp7173
Rp7174
(I1
(I6
tp7175
g35
I00
(lp7176
g39
ag40
ag41
ag42
ag43
ag44
atp7177
bsg15
Nstp7178
Rp7179
a(lp7180
g25
(g26
(I0
tp7181
g28
tp7182
Rp7183
(I1
(I6
tp7184
g55
I00
S'q\xe8\xf3\xcb\x91\x08\x03@\xb6E\xb4@\xf5\xb0 @\x8b\xaa\x8e\xff\xf924@\x89\xfc\xa2\xcb\x8e\x13\x05@l"\xdeH8\xf3\x08@\xe8\x96W\xf1S\xa7\n@'
p7185
tp7186
ba(lp7187
g21
(g22
(dp7188
g24
g25
(g26
(I0
tp7189
g28
tp7190
Rp7191
(I1
(I6
tp7192
g35
I00
(lp7193
g39
ag40
ag41
ag42
ag43
ag44
atp7194
bsg15
Nstp7195
Rp7196
a(dp7197
g71
(dp7198
g73
g7170
sg74
(lp7199
(dp7200
g77
g78
(I0
I6
I1
tp7201
Rp7202
sg81
g7183
sasstp7203
bsg83
g84
sg15
NsbsF10.0
g7
(g8
g9
Ntp7204
Rp7205
(dp7206
g13
g14
sg16
g7
(g17
g9
Ntp7207
Rp7208
((lp7209
g21
(g22
(dp7210
g24
g25
(g26
(I0
tp7211
g28
tp7212
Rp7213
(I1
(I6
tp7214
g35
I00
(lp7215
g39
ag40
ag41
ag42
ag43
ag44
atp7216
bsg15
Nstp7217
Rp7218
a(lp7219
g25
(g26
(I0
tp7220
g28
tp7221
Rp7222
(I1
(I6
tp7223
g55
I00
S'q\xe8\xf3\xcb\x91\x08\x03@\xb6E\xb4@\xf5\xb0 @\x8b\xaa\x8e\xff\xf924@\x89\xfc\xa2\xcb\x8e\x13\x05@l"\xdeH8\xf3\x08@\xe8\x96W\xf1S\xa7\n@'
p7224
tp7225
ba(lp7226
g21
(g22
(dp7227
g24
g25
(g26
(I0
tp7228
g28
tp7229
Rp7230
(I1
(I6
tp7231
g35
I00
(lp7232
g39
ag40
ag41
ag42
ag43
ag44
atp7233
bsg15
Nstp7234
Rp7235
a(dp7236
g71
(dp7237
g73
g7209
sg74
(lp7238
(dp7239
g77
g78
(I0
I6
I1
tp7240
Rp7241
sg81
g7222
sasstp7242
bsg83
g84
sg15
NsbsF15.0
g7
(g8
g9
Ntp7243
Rp7244
(dp7245
g13
g14
sg16
g7
(g17
g9
Ntp7246
Rp7247
((lp7248
g21
(g22
(dp7249
g24
g25
(g26
(I0
tp7250
g28
tp7251
Rp7252
(I1
(I6
tp7253
g35
I00
(lp7254
g39
ag40
ag41
ag42
ag43
ag44
atp7255
bsg15
Nstp7256
Rp7257
a(lp7258
g25
(g26
(I0
tp7259
g28
tp7260
Rp7261
(I1
(I6
tp7262
g55
I00
S"\xb8I\xe0NL\x04\x01@\x02ku\x91\xc9\x9e @\x1b\xd7\xc3\x05\x9e:3@\xb5'\xf9\x0fO\x10\xfe?;\xf2\x01`1@\x04@V\x18\xf3\x95\xe5\x0f\xfc?"
p7263
tp7264
ba(lp7265
g21
(g22
(dp7266
g24
g25
(g26
(I0
tp7267
g28
tp7268
Rp7269
(I1
(I6
tp7270
g35
I00
(lp7271
g39
ag40
ag41
ag42
ag43
ag44
atp7272
bsg15
Nstp7273
Rp7274
a(dp7275
g71
(dp7276
g73
g7248
sg74
(lp7277
(dp7278
g77
g78
(I0
I6
I1
tp7279
Rp7280
sg81
g7261
sasstp7281
bsg83
g84
sg15
NsbsF80.0
g7
(g8
g9
Ntp7282
Rp7283
(dp7284
g13
g14
sg16
g7
(g17
g9
Ntp7285
Rp7286
((lp7287
g21
(g22
(dp7288
g24
g25
(g26
(I0
tp7289
g28
tp7290
Rp7291
(I1
(I6
tp7292
g35
I00
(lp7293
g39
ag40
ag41
ag42
ag43
ag44
atp7294
bsg15
Nstp7295
Rp7296
a(lp7297
g25
(g26
(I0
tp7298
g28
tp7299
Rp7300
(I1
(I6
tp7301
g55
I00
S'\xda\x98\x12\x1f0[\xff?(DYj\x15M\x1c@\x1e\xf0 \x07\xfam0@\x82\x8fv\xf5F-\xfc?\xce@r%\x9c\xef\x01@\xf0\xe4\xbb_\xda$\xe8?'
p7302
tp7303
ba(lp7304
g21
(g22
(dp7305
g24
g25
(g26
(I0
tp7306
g28
tp7307
Rp7308
(I1
(I6
tp7309
g35
I00
(lp7310
g39
ag40
ag41
ag42
ag43
ag44
atp7311
bsg15
Nstp7312
Rp7313
a(dp7314
g71
(dp7315
g73
g7287
sg74
(lp7316
(dp7317
g77
g78
(I0
I6
I1
tp7318
Rp7319
sg81
g7300
sasstp7320
bsg83
g84
sg15
NsbsF40.0
g7
(g8
g9
Ntp7321
Rp7322
(dp7323
g13
g14
sg16
g7
(g17
g9
Ntp7324
Rp7325
((lp7326
g21
(g22
(dp7327
g24
g25
(g26
(I0
tp7328
g28
tp7329
Rp7330
(I1
(I6
tp7331
g35
I00
(lp7332
g39
ag40
ag41
ag42
ag43
ag44
atp7333
bsg15
Nstp7334
Rp7335
a(lp7336
g25
(g26
(I0
tp7337
g28
tp7338
Rp7339
(I1
(I6
tp7340
g55
I00
S'\x92\xfc}slW\x00@\xad<s\xb0\xa2f\x1d@\xbf\x8f\xb5}\x11\xf20@Z"\xc3\xc9OV\xfd?\xbd\xf3\x95\x87\xb6X\x02@0h\x00\xa4\xf2\xe7\xe9?'
p7341
tp7342
ba(lp7343
g21
(g22
(dp7344
g24
g25
(g26
(I0
tp7345
g28
tp7346
Rp7347
(I1
(I6
tp7348
g35
I00
(lp7349
g39
ag40
ag41
ag42
ag43
ag44
atp7350
bsg15
Nstp7351
Rp7352
a(dp7353
g71
(dp7354
g73
g7326
sg74
(lp7355
(dp7356
g77
g78
(I0
I6
I1
tp7357
Rp7358
sg81
g7339
sasstp7359
bsg83
g84
sg15
NsbsF50.0
g7
(g8
g9
Ntp7360
Rp7361
(dp7362
g13
g14
sg16
g7
(g17
g9
Ntp7363
Rp7364
((lp7365
g21
(g22
(dp7366
g24
g25
(g26
(I0
tp7367
g28
tp7368
Rp7369
(I1
(I6
tp7370
g35
I00
(lp7371
g39
ag40
ag41
ag42
ag43
ag44
atp7372
bsg15
Nstp7373
Rp7374
a(lp7375
g25
(g26
(I0
tp7376
g28
tp7377
Rp7378
(I1
(I6
tp7379
g55
I00
S"\xab\xb6\xb8\xc5\xd6\x1a\x00@\xe8\xe7\xec\xe7\xa6\xa0\x1c@\xd6'\xeei7\xf70@\r\xbf\xe2b\xdaV\xfc?T6\x0eF6r\x02@x\x18P\x17\xcf\x81\xea?"
p7380
tp7381
ba(lp7382
g21
(g22
(dp7383
g24
g25
(g26
(I0
tp7384
g28
tp7385
Rp7386
(I1
(I6
tp7387
g35
I00
(lp7388
g39
ag40
ag41
ag42
ag43
ag44
atp7389
bsg15
Nstp7390
Rp7391
a(dp7392
g71
(dp7393
g73
g7365
sg74
(lp7394
(dp7395
g77
g78
(I0
I6
I1
tp7396
Rp7397
sg81
g7378
sasstp7398
bsg83
g84
sg15
NsbsF20.0
g7
(g8
g9
Ntp7399
Rp7400
(dp7401
g13
g14
sg16
g7
(g17
g9
Ntp7402
Rp7403
((lp7404
g21
(g22
(dp7405
g24
g25
(g26
(I0
tp7406
g28
tp7407
Rp7408
(I1
(I6
tp7409
g35
I00
(lp7410
g39
ag40
ag41
ag42
ag43
ag44
atp7411
bsg15
Nstp7412
Rp7413
a(lp7414
g25
(g26
(I0
tp7415
g28
tp7416
Rp7417
(I1
(I6
tp7418
g55
I00
S'\xd4\xc2\xf1\xd6\xbf\xc4\x00@\xca!\x8d\x88\x92K\x1e@\x9a\x18\xab\x91\xd6O3@\xbb?J\xfa\xaa\xe7\xfd?$\x9c\x87\x9b\x98w\x04@\xed?\xfaM\x10\xa4\xed?'
p7419
tp7420
ba(lp7421
g21
(g22
(dp7422
g24
g25
(g26
(I0
tp7423
g28
tp7424
Rp7425
(I1
(I6
tp7426
g35
I00
(lp7427
g39
ag40
ag41
ag42
ag43
ag44
atp7428
bsg15
Nstp7429
Rp7430
a(dp7431
g71
(dp7432
g73
g7404
sg74
(lp7433
(dp7434
g77
g78
(I0
I6
I1
tp7435
Rp7436
sg81
g7417
sasstp7437
bsg83
g84
sg15
NsbsF90.0
g7
(g8
g9
Ntp7438
Rp7439
(dp7440
g13
g14
sg16
g7
(g17
g9
Ntp7441
Rp7442
((lp7443
g21
(g22
(dp7444
g24
g25
(g26
(I0
tp7445
g28
tp7446
Rp7447
(I1
(I6
tp7448
g35
I00
(lp7449
g39
ag40
ag41
ag42
ag43
ag44
atp7450
bsg15
Nstp7451
Rp7452
a(lp7453
g25
(g26
(I0
tp7454
g28
tp7455
Rp7456
(I1
(I6
tp7457
g55
I00
S'\x05.`\x00\xb2b\xff?u/\xd5\xdf\xed\xae\x1c@\x8e\xd3\x08\xd1{\xb22@\xc2\x9a\xce\xe1L\xc0\xfb?\x9d\xb2\xdcJP\xec\x01@4\xea,\x94g\x9d\xe7?'
p7458
tp7459
ba(lp7460
g21
(g22
(dp7461
g24
g25
(g26
(I0
tp7462
g28
tp7463
Rp7464
(I1
(I6
tp7465
g35
I00
(lp7466
g39
ag40
ag41
ag42
ag43
ag44
atp7467
bsg15
Nstp7468
Rp7469
a(dp7470
g71
(dp7471
g73
g7443
sg74
(lp7472
(dp7473
g77
g78
(I0
I6
I1
tp7474
Rp7475
sg81
g7456
sasstp7476
bsg83
g84
sg15
NsbsF60.0
g7
(g8
g9
Ntp7477
Rp7478
(dp7479
g13
g14
sg16
g7
(g17
g9
Ntp7480
Rp7481
((lp7482
g21
(g22
(dp7483
g24
g25
(g26
(I0
tp7484
g28
tp7485
Rp7486
(I1
(I6
tp7487
g35
I00
(lp7488
g39
ag40
ag41
ag42
ag43
ag44
atp7489
bsg15
Nstp7490
Rp7491
a(lp7492
g25
(g26
(I0
tp7493
g28
tp7494
Rp7495
(I1
(I6
tp7496
g55
I00
S"\xbb(\xf3<\x81w\xff?\xb08\xa7\x0e\xde?\x1d@h\xed\xa2\xfe\xc9\xa10@#\xfb\xec\xde\x9b)\xfc?\xc2\xb2\xb4T'\x10\x02@\xfc\xbc\r\x85\x12\xbc\xe8?"
p7497
tp7498
ba(lp7499
g21
(g22
(dp7500
g24
g25
(g26
(I0
tp7501
g28
tp7502
Rp7503
(I1
(I6
tp7504
g35
I00
(lp7505
g39
ag40
ag41
ag42
ag43
ag44
atp7506
bsg15
Nstp7507
Rp7508
a(dp7509
g71
(dp7510
g73
g7482
sg74
(lp7511
(dp7512
g77
g78
(I0
I6
I1
tp7513
Rp7514
sg81
g7495
sasstp7515
bsg83
g84
sg15
NsbsF30.0
g7
(g8
g9
Ntp7516
Rp7517
(dp7518
g13
g14
sg16
g7
(g17
g9
Ntp7519
Rp7520
((lp7521
g21
(g22
(dp7522
g24
g25
(g26
(I0
tp7523
g28
tp7524
Rp7525
(I1
(I6
tp7526
g35
I00
(lp7527
g39
ag40
ag41
ag42
ag43
ag44
atp7528
bsg15
Nstp7529
Rp7530
a(lp7531
g25
(g26
(I0
tp7532
g28
tp7533
Rp7534
(I1
(I6
tp7535
g55
I00
S'\n\xdc\xa3\xd9\x873\x00@\xad\x1aG\xe3u?\x1d@f\xe7\x1eY\xa9B2@\x86W\xae\xf7\x12\xf2\xfc?\x16\x08\x94\xc6\xfd\xe2\x02@t|\x05a\xce{\xe9?'
p7536
tp7537
ba(lp7538
g21
(g22
(dp7539
g24
g25
(g26
(I0
tp7540
g28
tp7541
Rp7542
(I1
(I6
tp7543
g35
I00
(lp7544
g39
ag40
ag41
ag42
ag43
ag44
atp7545
bsg15
Nstp7546
Rp7547
a(dp7548
g71
(dp7549
g73
g7521
sg74
(lp7550
(dp7551
g77
g78
(I0
I6
I1
tp7552
Rp7553
sg81
g7534
sasstp7554
bsg83
g84
sg15
Nsbssssg1296
(dp7555
g2
(dp7556
g5
(dp7557
F0.0
g7
(g8
g9
Ntp7558
Rp7559
(dp7560
g13
g14
sg16
g7
(g17
g9
Ntp7561
Rp7562
((lp7563
g21
(g22
(dp7564
g24
g25
(g26
(I0
tp7565
g28
tp7566
Rp7567
(I1
(I6
tp7568
g35
I00
(lp7569
g39
ag40
ag41
ag42
ag43
ag44
atp7570
bsg15
Nstp7571
Rp7572
a(lp7573
g25
(g26
(I0
tp7574
g28
tp7575
Rp7576
(I1
(I6
tp7577
g55
I00
S'5\x043\x1f87\xfd?\x96\xe5\x86\xfd\x98\xef\x1f@2\xf9\xff\xdapK<@\x17\xf8\xee\x03t\xde\x00@\xf0\x87\x83*S\x89\x03@&z\xd5\xc2\x12\xbb\xeb?'
p7578
tp7579
ba(lp7580
g21
(g22
(dp7581
g24
g25
(g26
(I0
tp7582
g28
tp7583
Rp7584
(I1
(I6
tp7585
g35
I00
(lp7586
g39
ag40
ag41
ag42
ag43
ag44
atp7587
bsg15
Nstp7588
Rp7589
a(dp7590
g71
(dp7591
g73
g7563
sg74
(lp7592
(dp7593
g77
g78
(I0
I6
I1
tp7594
Rp7595
sg81
g7576
sasstp7596
bsg83
g84
sg15
NsbsF100.0
g7
(g8
g9
Ntp7597
Rp7598
(dp7599
g13
g14
sg16
g7
(g17
g9
Ntp7600
Rp7601
((lp7602
g21
(g22
(dp7603
g24
g25
(g26
(I0
tp7604
g28
tp7605
Rp7606
(I1
(I6
tp7607
g35
I00
(lp7608
g39
ag40
ag41
ag42
ag43
ag44
atp7609
bsg15
Nstp7610
Rp7611
a(lp7612
g25
(g26
(I0
tp7613
g28
tp7614
Rp7615
(I1
(I6
tp7616
g55
I00
S'%\xbc\x83\xee%\xd5\xfd?\xcdm8\x89\xd7\xb4"@\x1d\x0c,\xbc\xf6_/@.\'\x8d\xd0I\xa5\xff?Z\x96<\xdcH\xc8\x03@\xa7\x15\x01\xf0UV\xe8?'
p7617
tp7618
ba(lp7619
g21
(g22
(dp7620
g24
g25
(g26
(I0
tp7621
g28
tp7622
Rp7623
(I1
(I6
tp7624
g35
I00
(lp7625
g39
ag40
ag41
ag42
ag43
ag44
atp7626
bsg15
Nstp7627
Rp7628
a(dp7629
g71
(dp7630
g73
g7602
sg74
(lp7631
(dp7632
g77
g78
(I0
I6
I1
tp7633
Rp7634
sg81
g7615
sasstp7635
bsg83
g84
sg15
NsbsF70.0
g7
(g8
g9
Ntp7636
Rp7637
(dp7638
g13
g14
sg16
g7
(g17
g9
Ntp7639
Rp7640
((lp7641
g21
(g22
(dp7642
g24
g25
(g26
(I0
tp7643
g28
tp7644
Rp7645
(I1
(I6
tp7646
g35
I00
(lp7647
g39
ag40
ag41
ag42
ag43
ag44
atp7648
bsg15
Nstp7649
Rp7650
a(lp7651
g25
(g26
(I0
tp7652
g28
tp7653
Rp7654
(I1
(I6
tp7655
g55
I00
S'z\x19\xcd|\xc1\x82\xfe?\xfdx\xe5\xbbgK!@h\xf5|:\x94,/@V\xfe\x0f]\x0c\xa1\xfe?\x17.\xf4\xd6\x85Y\x04@V\x87\x9d_j\xfa\xe7?'
p7656
tp7657
ba(lp7658
g21
(g22
(dp7659
g24
g25
(g26
(I0
tp7660
g28
tp7661
Rp7662
(I1
(I6
tp7663
g35
I00
(lp7664
g39
ag40
ag41
ag42
ag43
ag44
atp7665
bsg15
Nstp7666
Rp7667
a(dp7668
g71
(dp7669
g73
g7641
sg74
(lp7670
(dp7671
g77
g78
(I0
I6
I1
tp7672
Rp7673
sg81
g7654
sasstp7674
bsg83
g84
sg15
NsbsF6.0
g7
(g8
g9
Ntp7675
Rp7676
(dp7677
g13
g14
sg16
g7
(g17
g9
Ntp7678
Rp7679
((lp7680
g21
(g22
(dp7681
g24
g25
(g26
(I0
tp7682
g28
tp7683
Rp7684
(I1
(I6
tp7685
g35
I00
(lp7686
g39
ag40
ag41
ag42
ag43
ag44
atp7687
bsg15
Nstp7688
Rp7689
a(lp7690
g25
(g26
(I0
tp7691
g28
tp7692
Rp7693
(I1
(I6
tp7694
g55
I00
S'f\x1a\x83\xcd\x0c\xe7\xff?\xc8\\gv\xd5x#@F\xa2\xa9w;f5@}\xcc%\xbaF&\x00@\xb6\xeb\x1fU!\xfa\x04@\xf5\x1b\x1f\x850\xdc\xe8?'
p7695
tp7696
ba(lp7697
g21
(g22
(dp7698
g24
g25
(g26
(I0
tp7699
g28
tp7700
Rp7701
(I1
(I6
tp7702
g35
I00
(lp7703
g39
ag40
ag41
ag42
ag43
ag44
atp7704
bsg15
Nstp7705
Rp7706
a(dp7707
g71
(dp7708
g73
g7680
sg74
(lp7709
(dp7710
g77
g78
(I0
I6
I1
tp7711
Rp7712
sg81
g7693
sasstp7713
bsg83
g84
sg15
NsbsF7.0
g7
(g8
g9
Ntp7714
Rp7715
(dp7716
g13
g14
sg16
g7
(g17
g9
Ntp7717
Rp7718
((lp7719
g21
(g22
(dp7720
g24
g25
(g26
(I0
tp7721
g28
tp7722
Rp7723
(I1
(I6
tp7724
g35
I00
(lp7725
g39
ag40
ag41
ag42
ag43
ag44
atp7726
bsg15
Nstp7727
Rp7728
a(lp7729
g25
(g26
(I0
tp7730
g28
tp7731
Rp7732
(I1
(I6
tp7733
g55
I00
S'f\x1a\x83\xcd\x0c\xe7\xff?\xc8\\gv\xd5x#@F\xa2\xa9w;f5@}\xcc%\xbaF&\x00@\xb6\xeb\x1fU!\xfa\x04@\xf5\x1b\x1f\x850\xdc\xe8?'
p7734
tp7735
ba(lp7736
g21
(g22
(dp7737
g24
g25
(g26
(I0
tp7738
g28
tp7739
Rp7740
(I1
(I6
tp7741
g35
I00
(lp7742
g39
ag40
ag41
ag42
ag43
ag44
atp7743
bsg15
Nstp7744
Rp7745
a(dp7746
g71
(dp7747
g73
g7719
sg74
(lp7748
(dp7749
g77
g78
(I0
I6
I1
tp7750
Rp7751
sg81
g7732
sasstp7752
bsg83
g84
sg15
NsbsF8.0
g7
(g8
g9
Ntp7753
Rp7754
(dp7755
g13
g14
sg16
g7
(g17
g9
Ntp7756
Rp7757
((lp7758
g21
(g22
(dp7759
g24
g25
(g26
(I0
tp7760
g28
tp7761
Rp7762
(I1
(I6
tp7763
g35
I00
(lp7764
g39
ag40
ag41
ag42
ag43
ag44
atp7765
bsg15
Nstp7766
Rp7767
a(lp7768
g25
(g26
(I0
tp7769
g28
tp7770
Rp7771
(I1
(I6
tp7772
g55
I00
S'f\x1a\x83\xcd\x0c\xe7\xff?\xc8\\gv\xd5x#@F\xa2\xa9w;f5@}\xcc%\xbaF&\x00@\xb6\xeb\x1fU!\xfa\x04@\xf5\x1b\x1f\x850\xdc\xe8?'
p7773
tp7774
ba(lp7775
g21
(g22
(dp7776
g24
g25
(g26
(I0
tp7777
g28
tp7778
Rp7779
(I1
(I6
tp7780
g35
I00
(lp7781
g39
ag40
ag41
ag42
ag43
ag44
atp7782
bsg15
Nstp7783
Rp7784
a(dp7785
g71
(dp7786
g73
g7758
sg74
(lp7787
(dp7788
g77
g78
(I0
I6
I1
tp7789
Rp7790
sg81
g7771
sasstp7791
bsg83
g84
sg15
NsbsF9.0
g7
(g8
g9
Ntp7792
Rp7793
(dp7794
g13
g14
sg16
g7
(g17
g9
Ntp7795
Rp7796
((lp7797
g21
(g22
(dp7798
g24
g25
(g26
(I0
tp7799
g28
tp7800
Rp7801
(I1
(I6
tp7802
g35
I00
(lp7803
g39
ag40
ag41
ag42
ag43
ag44
atp7804
bsg15
Nstp7805
Rp7806
a(lp7807
g25
(g26
(I0
tp7808
g28
tp7809
Rp7810
(I1
(I6
tp7811
g55
I00
S'v\xabyy\x1a\x01\xff?B\x8b\xa0\xfa\x95=$@;\xdc\xd2\n\x1f\xd04@;\xb3!i\x17\x02\xff?=\x11\x92e\x8fr\x05@\xf9\xeb"\xbf\xdeO\xe7?'
p7812
tp7813
ba(lp7814
g21
(g22
(dp7815
g24
g25
(g26
(I0
tp7816
g28
tp7817
Rp7818
(I1
(I6
tp7819
g35
I00
(lp7820
g39
ag40
ag41
ag42
ag43
ag44
atp7821
bsg15
Nstp7822
Rp7823
a(dp7824
g71
(dp7825
g73
g7797
sg74
(lp7826
(dp7827
g77
g78
(I0
I6
I1
tp7828
Rp7829
sg81
g7810
sasstp7830
bsg83
g84
sg15
NsbsF10.0
g7
(g8
g9
Ntp7831
Rp7832
(dp7833
g13
g14
sg16
g7
(g17
g9
Ntp7834
Rp7835
((lp7836
g21
(g22
(dp7837
g24
g25
(g26
(I0
tp7838
g28
tp7839
Rp7840
(I1
(I6
tp7841
g35
I00
(lp7842
g39
ag40
ag41
ag42
ag43
ag44
atp7843
bsg15
Nstp7844
Rp7845
a(lp7846
g25
(g26
(I0
tp7847
g28
tp7848
Rp7849
(I1
(I6
tp7850
g55
I00
S'v\xabyy\x1a\x01\xff?B\x8b\xa0\xfa\x95=$@;\xdc\xd2\n\x1f\xd04@;\xb3!i\x17\x02\xff?=\x11\x92e\x8fr\x05@\xf9\xeb"\xbf\xdeO\xe7?'
p7851
tp7852
ba(lp7853
g21
(g22
(dp7854
g24
g25
(g26
(I0
tp7855
g28
tp7856
Rp7857
(I1
(I6
tp7858
g35
I00
(lp7859
g39
ag40
ag41
ag42
ag43
ag44
atp7860
bsg15
Nstp7861
Rp7862
a(dp7863
g71
(dp7864
g73
g7836
sg74
(lp7865
(dp7866
g77
g78
(I0
I6
I1
tp7867
Rp7868
sg81
g7849
sasstp7869
bsg83
g84
sg15
NsbsF15.0
g7
(g8
g9
Ntp7870
Rp7871
(dp7872
g13
g14
sg16
g7
(g17
g9
Ntp7873
Rp7874
((lp7875
g21
(g22
(dp7876
g24
g25
(g26
(I0
tp7877
g28
tp7878
Rp7879
(I1
(I6
tp7880
g35
I00
(lp7881
g39
ag40
ag41
ag42
ag43
ag44
atp7882
bsg15
Nstp7883
Rp7884
a(lp7885
g25
(g26
(I0
tp7886
g28
tp7887
Rp7888
(I1
(I6
tp7889
g55
I00
S'\n\xe2\xaa\xef\x8c|\xfe?C\x08\x92\xa7\xac\xe3!@RO\x88\xd6\xde\xe11@RL\xd0P\xe0\x85\xff?\xca\x8d\xc1*d\xf7\x04@b\xd2\r\xe9\x01\xad\xe7?'
p7890
tp7891
ba(lp7892
g21
(g22
(dp7893
g24
g25
(g26
(I0
tp7894
g28
tp7895
Rp7896
(I1
(I6
tp7897
g35
I00
(lp7898
g39
ag40
ag41
ag42
ag43
ag44
atp7899
bsg15
Nstp7900
Rp7901
a(dp7902
g71
(dp7903
g73
g7875
sg74
(lp7904
(dp7905
g77
g78
(I0
I6
I1
tp7906
Rp7907
sg81
g7888
sasstp7908
bsg83
g84
sg15
NsbsF80.0
g7
(g8
g9
Ntp7909
Rp7910
(dp7911
g13
g14
sg16
g7
(g17
g9
Ntp7912
Rp7913
((lp7914
g21
(g22
(dp7915
g24
g25
(g26
(I0
tp7916
g28
tp7917
Rp7918
(I1
(I6
tp7919
g35
I00
(lp7920
g39
ag40
ag41
ag42
ag43
ag44
atp7921
bsg15
Nstp7922
Rp7923
a(lp7924
g25
(g26
(I0
tp7925
g28
tp7926
Rp7927
(I1
(I6
tp7928
g55
I00
S'\x9a\x07\x18\x00\x82n\xfd?F\x05CP>\x93"@\xde"\x95\xfbEz/@\xd5QJ\xafc:\xff?\xe9\xf7S\x11\t\xbe\x04@\xa5\xc5k8\xfdB\xe8?'
p7929
tp7930
ba(lp7931
g21
(g22
(dp7932
g24
g25
(g26
(I0
tp7933
g28
tp7934
Rp7935
(I1
(I6
tp7936
g35
I00
(lp7937
g39
ag40
ag41
ag42
ag43
ag44
atp7938
bsg15
Nstp7939
Rp7940
a(dp7941
g71
(dp7942
g73
g7914
sg74
(lp7943
(dp7944
g77
g78
(I0
I6
I1
tp7945
Rp7946
sg81
g7927
sasstp7947
bsg83
g84
sg15
NsbsF40.0
g7
(g8
g9
Ntp7948
Rp7949
(dp7950
g13
g14
sg16
g7
(g17
g9
Ntp7951
Rp7952
((lp7953
g21
(g22
(dp7954
g24
g25
(g26
(I0
tp7955
g28
tp7956
Rp7957
(I1
(I6
tp7958
g35
I00
(lp7959
g39
ag40
ag41
ag42
ag43
ag44
atp7960
bsg15
Nstp7961
Rp7962
a(lp7963
g25
(g26
(I0
tp7964
g28
tp7965
Rp7966
(I1
(I6
tp7967
g55
I00
S'\xf8=\x18\x84\xa5\x8f\xfe?\x7fxs\x88pm"@^b<\x16n\x960@\x80\xbfq\xaa/\xba\xff?\n\xb4Q\xec\xfdN\x04@i\x8bMd\xf3G\xe8?'
p7968
tp7969
ba(lp7970
g21
(g22
(dp7971
g24
g25
(g26
(I0
tp7972
g28
tp7973
Rp7974
(I1
(I6
tp7975
g35
I00
(lp7976
g39
ag40
ag41
ag42
ag43
ag44
atp7977
bsg15
Nstp7978
Rp7979
a(dp7980
g71
(dp7981
g73
g7953
sg74
(lp7982
(dp7983
g77
g78
(I0
I6
I1
tp7984
Rp7985
sg81
g7966
sasstp7986
bsg83
g84
sg15
NsbsF50.0
g7
(g8
g9
Ntp7987
Rp7988
(dp7989
g13
g14
sg16
g7
(g17
g9
Ntp7990
Rp7991
((lp7992
g21
(g22
(dp7993
g24
g25
(g26
(I0
tp7994
g28
tp7995
Rp7996
(I1
(I6
tp7997
g35
I00
(lp7998
g39
ag40
ag41
ag42
ag43
ag44
atp7999
bsg15
Nstp8000
Rp8001
a(lp8002
g25
(g26
(I0
tp8003
g28
tp8004
Rp8005
(I1
(I6
tp8006
g55
I00
S'\xeb\x8cR\x99D\xc7\xfd?\x13}\xe6r\xdd\xd4"@\x82\xc8\xad\xffBA0@s\xa8\xa2\x92\x93 \x00@B\x0cg\xee\x17+\x04@VOqS\xbb\xc3\xe8?'
p8007
tp8008
ba(lp8009
g21
(g22
(dp8010
g24
g25
(g26
(I0
tp8011
g28
tp8012
Rp8013
(I1
(I6
tp8014
g35
I00
(lp8015
g39
ag40
ag41
ag42
ag43
ag44
atp8016
bsg15
Nstp8017
Rp8018
a(dp8019
g71
(dp8020
g73
g7992
sg74
(lp8021
(dp8022
g77
g78
(I0
I6
I1
tp8023
Rp8024
sg81
g8005
sasstp8025
bsg83
g84
sg15
NsbsF20.0
g7
(g8
g9
Ntp8026
Rp8027
(dp8028
g13
g14
sg16
g7
(g17
g9
Ntp8029
Rp8030
((lp8031
g21
(g22
(dp8032
g24
g25
(g26
(I0
tp8033
g28
tp8034
Rp8035
(I1
(I6
tp8036
g35
I00
(lp8037
g39
ag40
ag41
ag42
ag43
ag44
atp8038
bsg15
Nstp8039
Rp8040
a(lp8041
g25
(g26
(I0
tp8042
g28
tp8043
Rp8044
(I1
(I6
tp8045
g55
I00
S'\xe0\xd0\x87\xcf\xd3\xcb\xfd?(\x94\x05;\xdfX"@\xa4\xf4p\xa7x|1@[\x7f\xe6%\x8f\xc4\xff?\xfb\xf26\xd7\x07t\x04@\xb5\xd5\xe3%yT\xe8?'
p8046
tp8047
ba(lp8048
g21
(g22
(dp8049
g24
g25
(g26
(I0
tp8050
g28
tp8051
Rp8052
(I1
(I6
tp8053
g35
I00
(lp8054
g39
ag40
ag41
ag42
ag43
ag44
atp8055
bsg15
Nstp8056
Rp8057
a(dp8058
g71
(dp8059
g73
g8031
sg74
(lp8060
(dp8061
g77
g78
(I0
I6
I1
tp8062
Rp8063
sg81
g8044
sasstp8064
bsg83
g84
sg15
NsbsF90.0
g7
(g8
g9
Ntp8065
Rp8066
(dp8067
g13
g14
sg16
g7
(g17
g9
Ntp8068
Rp8069
((lp8070
g21
(g22
(dp8071
g24
g25
(g26
(I0
tp8072
g28
tp8073
Rp8074
(I1
(I6
tp8075
g35
I00
(lp8076
g39
ag40
ag41
ag42
ag43
ag44
atp8077
bsg15
Nstp8078
Rp8079
a(lp8080
g25
(g26
(I0
tp8081
g28
tp8082
Rp8083
(I1
(I6
tp8084
g55
I00
S' X\x97\x83\x14\xbd\xfd?JJ\x0b\xa0\xdb\xf7!@\x06W\xbdC\xed\xeb/@\xedt\xd4\xe7(}\xff?\t\xe8\xd3v\x9e\xd1\x03@\xd5\n,3\x10d\xe8?'
p8085
tp8086
ba(lp8087
g21
(g22
(dp8088
g24
g25
(g26
(I0
tp8089
g28
tp8090
Rp8091
(I1
(I6
tp8092
g35
I00
(lp8093
g39
ag40
ag41
ag42
ag43
ag44
atp8094
bsg15
Nstp8095
Rp8096
a(dp8097
g71
(dp8098
g73
g8070
sg74
(lp8099
(dp8100
g77
g78
(I0
I6
I1
tp8101
Rp8102
sg81
g8083
sasstp8103
bsg83
g84
sg15
NsbsF60.0
g7
(g8
g9
Ntp8104
Rp8105
(dp8106
g13
g14
sg16
g7
(g17
g9
Ntp8107
Rp8108
((lp8109
g21
(g22
(dp8110
g24
g25
(g26
(I0
tp8111
g28
tp8112
Rp8113
(I1
(I6
tp8114
g35
I00
(lp8115
g39
ag40
ag41
ag42
ag43
ag44
atp8116
bsg15
Nstp8117
Rp8118
a(lp8119
g25
(g26
(I0
tp8120
g28
tp8121
Rp8122
(I1
(I6
tp8123
g55
I00
S'"]\xba\x98\x91A\xfe?j&\xd0\x9f\xba<"@\x02\xfe\xccE\xdd\xe9/@\x0b\xb0Z\x96\xd8\xbd\xff?+Ju!\xe3\xf0\x04@\xf68\x184\xfa\x19\xe8?'
p8124
tp8125
ba(lp8126
g21
(g22
(dp8127
g24
g25
(g26
(I0
tp8128
g28
tp8129
Rp8130
(I1
(I6
tp8131
g35
I00
(lp8132
g39
ag40
ag41
ag42
ag43
ag44
atp8133
bsg15
Nstp8134
Rp8135
a(dp8136
g71
(dp8137
g73
g8109
sg74
(lp8138
(dp8139
g77
g78
(I0
I6
I1
tp8140
Rp8141
sg81
g8122
sasstp8142
bsg83
g84
sg15
NsbsF30.0
g7
(g8
g9
Ntp8143
Rp8144
(dp8145
g13
g14
sg16
g7
(g17
g9
Ntp8146
Rp8147
((lp8148
g21
(g22
(dp8149
g24
g25
(g26
(I0
tp8150
g28
tp8151
Rp8152
(I1
(I6
tp8153
g35
I00
(lp8154
g39
ag40
ag41
ag42
ag43
ag44
atp8155
bsg15
Nstp8156
Rp8157
a(lp8158
g25
(g26
(I0
tp8159
g28
tp8160
Rp8161
(I1
(I6
tp8162
g55
I00
S'\xce\xac~\xc7\xeb<\xfe?p \xb3>\x07\t"@\xe2\xaba\xdaw=1@\xba2e@\x85\xed\xff?\x8f\x07\x16\x15\xe4\x8e\x04@Wd?6\x1eK\xe8?'
p8163
tp8164
ba(lp8165
g21
(g22
(dp8166
g24
g25
(g26
(I0
tp8167
g28
tp8168
Rp8169
(I1
(I6
tp8170
g35
I00
(lp8171
g39
ag40
ag41
ag42
ag43
ag44
atp8172
bsg15
Nstp8173
Rp8174
a(dp8175
g71
(dp8176
g73
g8148
sg74
(lp8177
(dp8178
g77
g78
(I0
I6
I1
tp8179
Rp8180
sg81
g8161
sasstp8181
bsg83
g84
sg15
Nsbssg670
(dp8182
F0.0
g7
(g8
g9
Ntp8183
Rp8184
(dp8185
g13
g14
sg16
g7
(g17
g9
Ntp8186
Rp8187
((lp8188
g21
(g22
(dp8189
g24
g25
(g26
(I0
tp8190
g28
tp8191
Rp8192
(I1
(I6
tp8193
g35
I00
(lp8194
g39
ag40
ag41
ag42
ag43
ag44
atp8195
bsg15
Nstp8196
Rp8197
a(lp8198
g25
(g26
(I0
tp8199
g28
tp8200
Rp8201
(I1
(I6
tp8202
g55
I00
S'X\x91\xe8bL\xb0 @WL\x7f\xaa\xeb\x99"@\x10(\xabP\x01k6@\x9dD$\xa7-\xec$@\x88\x13\xcdZ\xdd\xeb\x1b@J\xf7\xef\x98A\x86\x11@'
p8203
tp8204
ba(lp8205
g21
(g22
(dp8206
g24
g25
(g26
(I0
tp8207
g28
tp8208
Rp8209
(I1
(I6
tp8210
g35
I00
(lp8211
g39
ag40
ag41
ag42
ag43
ag44
atp8212
bsg15
Nstp8213
Rp8214
a(dp8215
g71
(dp8216
g73
g8188
sg74
(lp8217
(dp8218
g77
g78
(I0
I6
I1
tp8219
Rp8220
sg81
g8201
sasstp8221
bsg83
g84
sg15
NsbsF100.0
g7
(g8
g9
Ntp8222
Rp8223
(dp8224
g13
g14
sg16
g7
(g17
g9
Ntp8225
Rp8226
((lp8227
g21
(g22
(dp8228
g24
g25
(g26
(I0
tp8229
g28
tp8230
Rp8231
(I1
(I6
tp8232
g35
I00
(lp8233
g39
ag40
ag41
ag42
ag43
ag44
atp8234
bsg15
Nstp8235
Rp8236
a(lp8237
g25
(g26
(I0
tp8238
g28
tp8239
Rp8240
(I1
(I6
tp8241
g55
I00
S'p\x83\xf8c\tL\xff?2\xd40`\xf5\xb0\x1e@\xea\x82\xd5p1\xbe0@\xae\x07\xb6\x83\xd9\x98\xfc?\xe7\xb4\x9a\x07_\x0c\x02@:Wf\xe7.\x97\xe8?'
p8242
tp8243
ba(lp8244
g21
(g22
(dp8245
g24
g25
(g26
(I0
tp8246
g28
tp8247
Rp8248
(I1
(I6
tp8249
g35
I00
(lp8250
g39
ag40
ag41
ag42
ag43
ag44
atp8251
bsg15
Nstp8252
Rp8253
a(dp8254
g71
(dp8255
g73
g8227
sg74
(lp8256
(dp8257
g77
g78
(I0
I6
I1
tp8258
Rp8259
sg81
g8240
sasstp8260
bsg83
g84
sg15
NsbsF70.0
g7
(g8
g9
Ntp8261
Rp8262
(dp8263
g13
g14
sg16
g7
(g17
g9
Ntp8264
Rp8265
((lp8266
g21
(g22
(dp8267
g24
g25
(g26
(I0
tp8268
g28
tp8269
Rp8270
(I1
(I6
tp8271
g35
I00
(lp8272
g39
ag40
ag41
ag42
ag43
ag44
atp8273
bsg15
Nstp8274
Rp8275
a(lp8276
g25
(g26
(I0
tp8277
g28
tp8278
Rp8279
(I1
(I6
tp8280
g55
I00
S'5>\xcb\x86\x01s\xff?\rq\t\xf4\x178\x1c@+m\x9c\x9e\x8f<0@+f\xb8\xa2S\xdc\xfb?roJ\x1c\x972\x02@\x11\x126\x968\xfc\xe7?'
p8281
tp8282
ba(lp8283
g21
(g22
(dp8284
g24
g25
(g26
(I0
tp8285
g28
tp8286
Rp8287
(I1
(I6
tp8288
g35
I00
(lp8289
g39
ag40
ag41
ag42
ag43
ag44
atp8290
bsg15
Nstp8291
Rp8292
a(dp8293
g71
(dp8294
g73
g8266
sg74
(lp8295
(dp8296
g77
g78
(I0
I6
I1
tp8297
Rp8298
sg81
g8279
sasstp8299
bsg83
g84
sg15
NsbsF6.0
g7
(g8
g9
Ntp8300
Rp8301
(dp8302
g13
g14
sg16
g7
(g17
g9
Ntp8303
Rp8304
((lp8305
g21
(g22
(dp8306
g24
g25
(g26
(I0
tp8307
g28
tp8308
Rp8309
(I1
(I6
tp8310
g35
I00
(lp8311
g39
ag40
ag41
ag42
ag43
ag44
atp8312
bsg15
Nstp8313
Rp8314
a(lp8315
g25
(g26
(I0
tp8316
g28
tp8317
Rp8318
(I1
(I6
tp8319
g55
I00
S'\xf6\x19\x923\xcf\xf9\x05@h\x86\x81\\\x96B!@\xb2\xf5\xa2\x1b\xb4\x936@\xc9\x97\xefB\xba6\x03@c\xfb\x8c\xd7\xf7\xaa\x10@\xd07\xbf\xb5\x8ej\x04@'
p8320
tp8321
ba(lp8322
g21
(g22
(dp8323
g24
g25
(g26
(I0
tp8324
g28
tp8325
Rp8326
(I1
(I6
tp8327
g35
I00
(lp8328
g39
ag40
ag41
ag42
ag43
ag44
atp8329
bsg15
Nstp8330
Rp8331
a(dp8332
g71
(dp8333
g73
g8305
sg74
(lp8334
(dp8335
g77
g78
(I0
I6
I1
tp8336
Rp8337
sg81
g8318
sasstp8338
bsg83
g84
sg15
NsbsF7.0
g7
(g8
g9
Ntp8339
Rp8340
(dp8341
g13
g14
sg16
g7
(g17
g9
Ntp8342
Rp8343
((lp8344
g21
(g22
(dp8345
g24
g25
(g26
(I0
tp8346
g28
tp8347
Rp8348
(I1
(I6
tp8349
g35
I00
(lp8350
g39
ag40
ag41
ag42
ag43
ag44
atp8351
bsg15
Nstp8352
Rp8353
a(lp8354
g25
(g26
(I0
tp8355
g28
tp8356
Rp8357
(I1
(I6
tp8358
g55
I00
S'\xf6\x19\x923\xcf\xf9\x05@h\x86\x81\\\x96B!@\xb2\xf5\xa2\x1b\xb4\x936@\xc9\x97\xefB\xba6\x03@c\xfb\x8c\xd7\xf7\xaa\x10@\xd07\xbf\xb5\x8ej\x04@'
p8359
tp8360
ba(lp8361
g21
(g22
(dp8362
g24
g25
(g26
(I0
tp8363
g28
tp8364
Rp8365
(I1
(I6
tp8366
g35
I00
(lp8367
g39
ag40
ag41
ag42
ag43
ag44
atp8368
bsg15
Nstp8369
Rp8370
a(dp8371
g71
(dp8372
g73
g8344
sg74
(lp8373
(dp8374
g77
g78
(I0
I6
I1
tp8375
Rp8376
sg81
g8357
sasstp8377
bsg83
g84
sg15
NsbsF8.0
g7
(g8
g9
Ntp8378
Rp8379
(dp8380
g13
g14
sg16
g7
(g17
g9
Ntp8381
Rp8382
((lp8383
g21
(g22
(dp8384
g24
g25
(g26
(I0
tp8385
g28
tp8386
Rp8387
(I1
(I6
tp8388
g35
I00
(lp8389
g39
ag40
ag41
ag42
ag43
ag44
atp8390
bsg15
Nstp8391
Rp8392
a(lp8393
g25
(g26
(I0
tp8394
g28
tp8395
Rp8396
(I1
(I6
tp8397
g55
I00
S'\xf6\x19\x923\xcf\xf9\x05@h\x86\x81\\\x96B!@\xb2\xf5\xa2\x1b\xb4\x936@\xc9\x97\xefB\xba6\x03@c\xfb\x8c\xd7\xf7\xaa\x10@\xd07\xbf\xb5\x8ej\x04@'
p8398
tp8399
ba(lp8400
g21
(g22
(dp8401
g24
g25
(g26
(I0
tp8402
g28
tp8403
Rp8404
(I1
(I6
tp8405
g35
I00
(lp8406
g39
ag40
ag41
ag42
ag43
ag44
atp8407
bsg15
Nstp8408
Rp8409
a(dp8410
g71
(dp8411
g73
g8383
sg74
(lp8412
(dp8413
g77
g78
(I0
I6
I1
tp8414
Rp8415
sg81
g8396
sasstp8416
bsg83
g84
sg15
NsbsF9.0
g7
(g8
g9
Ntp8417
Rp8418
(dp8419
g13
g14
sg16
g7
(g17
g9
Ntp8420
Rp8421
((lp8422
g21
(g22
(dp8423
g24
g25
(g26
(I0
tp8424
g28
tp8425
Rp8426
(I1
(I6
tp8427
g35
I00
(lp8428
g39
ag40
ag41
ag42
ag43
ag44
atp8429
bsg15
Nstp8430
Rp8431
a(lp8432
g25
(g26
(I0
tp8433
g28
tp8434
Rp8435
(I1
(I6
tp8436
g55
I00
S'\xdeeqJAy\x06@\xad\xccR\x15\xa9\xf1!@\x03\x9e\xf2|@\xbf4@\xcf\\\xa5V+X\x02@\xe8\xcdE\xbe\xa9H\n@=\xd9Xc\tY\r@'
p8437
tp8438
ba(lp8439
g21
(g22
(dp8440
g24
g25
(g26
(I0
tp8441
g28
tp8442
Rp8443
(I1
(I6
tp8444
g35
I00
(lp8445
g39
ag40
ag41
ag42
ag43
ag44
atp8446
bsg15
Nstp8447
Rp8448
a(dp8449
g71
(dp8450
g73
g8422
sg74
(lp8451
(dp8452
g77
g78
(I0
I6
I1
tp8453
Rp8454
sg81
g8435
sasstp8455
bsg83
g84
sg15
NsbsF10.0
g7
(g8
g9
Ntp8456
Rp8457
(dp8458
g13
g14
sg16
g7
(g17
g9
Ntp8459
Rp8460
((lp8461
g21
(g22
(dp8462
g24
g25
(g26
(I0
tp8463
g28
tp8464
Rp8465
(I1
(I6
tp8466
g35
I00
(lp8467
g39
ag40
ag41
ag42
ag43
ag44
atp8468
bsg15
Nstp8469
Rp8470
a(lp8471
g25
(g26
(I0
tp8472
g28
tp8473
Rp8474
(I1
(I6
tp8475
g55
I00
S'\xdeeqJAy\x06@\xad\xccR\x15\xa9\xf1!@\x03\x9e\xf2|@\xbf4@\xcf\\\xa5V+X\x02@\xe8\xcdE\xbe\xa9H\n@=\xd9Xc\tY\r@'
p8476
tp8477
ba(lp8478
g21
(g22
(dp8479
g24
g25
(g26
(I0
tp8480
g28
tp8481
Rp8482
(I1
(I6
tp8483
g35
I00
(lp8484
g39
ag40
ag41
ag42
ag43
ag44
atp8485
bsg15
Nstp8486
Rp8487
a(dp8488
g71
(dp8489
g73
g8461
sg74
(lp8490
(dp8491
g77
g78
(I0
I6
I1
tp8492
Rp8493
sg81
g8474
sasstp8494
bsg83
g84
sg15
NsbsF15.0
g7
(g8
g9
Ntp8495
Rp8496
(dp8497
g13
g14
sg16
g7
(g17
g9
Ntp8498
Rp8499
((lp8500
g21
(g22
(dp8501
g24
g25
(g26
(I0
tp8502
g28
tp8503
Rp8504
(I1
(I6
tp8505
g35
I00
(lp8506
g39
ag40
ag41
ag42
ag43
ag44
atp8507
bsg15
Nstp8508
Rp8509
a(lp8510
g25
(g26
(I0
tp8511
g28
tp8512
Rp8513
(I1
(I6
tp8514
g55
I00
S'\xbf\xf4\x9c\xb0\xc8K\x01@P\x12zE\x0c\n\x1e@\x1a\xb7O\xc0\x0b\x922@8\xab\x17\x8e\xf2r\xfe?\xc3W\x80:\xff3\x07@\x99\xd69\x11\x11*\xf3?'
p8515
tp8516
ba(lp8517
g21
(g22
(dp8518
g24
g25
(g26
(I0
tp8519
g28
tp8520
Rp8521
(I1
(I6
tp8522
g35
I00
(lp8523
g39
ag40
ag41
ag42
ag43
ag44
atp8524
bsg15
Nstp8525
Rp8526
a(dp8527
g71
(dp8528
g73
g8500
sg74
(lp8529
(dp8530
g77
g78
(I0
I6
I1
tp8531
Rp8532
sg81
g8513
sasstp8533
bsg83
g84
sg15
NsbsF80.0
g7
(g8
g9
Ntp8534
Rp8535
(dp8536
g13
g14
sg16
g7
(g17
g9
Ntp8537
Rp8538
((lp8539
g21
(g22
(dp8540
g24
g25
(g26
(I0
tp8541
g28
tp8542
Rp8543
(I1
(I6
tp8544
g35
I00
(lp8545
g39
ag40
ag41
ag42
ag43
ag44
atp8546
bsg15
Nstp8547
Rp8548
a(lp8549
g25
(g26
(I0
tp8550
g28
tp8551
Rp8552
(I1
(I6
tp8553
g55
I00
S'\x86!Hn\x1f\x99\xfe?\x8e\xf8\x85\x04S\xc8\x1c@\xafl\xb9?\xd9.0@\xd6\x96\xf7\x89dF\xfc?FA\x8f\xa2P\x1c\x02@\xfb{N\x9bd)\xe8?'
p8554
tp8555
ba(lp8556
g21
(g22
(dp8557
g24
g25
(g26
(I0
tp8558
g28
tp8559
Rp8560
(I1
(I6
tp8561
g35
I00
(lp8562
g39
ag40
ag41
ag42
ag43
ag44
atp8563
bsg15
Nstp8564
Rp8565
a(dp8566
g71
(dp8567
g73
g8539
sg74
(lp8568
(dp8569
g77
g78
(I0
I6
I1
tp8570
Rp8571
sg81
g8552
sasstp8572
bsg83
g84
sg15
NsbsF40.0
g7
(g8
g9
Ntp8573
Rp8574
(dp8575
g13
g14
sg16
g7
(g17
g9
Ntp8576
Rp8577
((lp8578
g21
(g22
(dp8579
g24
g25
(g26
(I0
tp8580
g28
tp8581
Rp8582
(I1
(I6
tp8583
g35
I00
(lp8584
g39
ag40
ag41
ag42
ag43
ag44
atp8585
bsg15
Nstp8586
Rp8587
a(lp8588
g25
(g26
(I0
tp8589
g28
tp8590
Rp8591
(I1
(I6
tp8592
g55
I00
S'\xc7q\x9d\x99\xabE\x00@Z;V\xce\x8a5\x1c@\xf0z[\x93\xb4\x931@\x8ad*t\n#\xfd?\x08F\xaa\xb6B\xd2\x02@I\xcc\x1cO\x8bS\xe8?'
p8593
tp8594
ba(lp8595
g21
(g22
(dp8596
g24
g25
(g26
(I0
tp8597
g28
tp8598
Rp8599
(I1
(I6
tp8600
g35
I00
(lp8601
g39
ag40
ag41
ag42
ag43
ag44
atp8602
bsg15
Nstp8603
Rp8604
a(dp8605
g71
(dp8606
g73
g8578
sg74
(lp8607
(dp8608
g77
g78
(I0
I6
I1
tp8609
Rp8610
sg81
g8591
sasstp8611
bsg83
g84
sg15
NsbsF50.0
g7
(g8
g9
Ntp8612
Rp8613
(dp8614
g13
g14
sg16
g7
(g17
g9
Ntp8615
Rp8616
((lp8617
g21
(g22
(dp8618
g24
g25
(g26
(I0
tp8619
g28
tp8620
Rp8621
(I1
(I6
tp8622
g35
I00
(lp8623
g39
ag40
ag41
ag42
ag43
ag44
atp8624
bsg15
Nstp8625
Rp8626
a(lp8627
g25
(g26
(I0
tp8628
g28
tp8629
Rp8630
(I1
(I6
tp8631
g55
I00
S'\xf5\x88\x1a\x850\xcf\xff?\xae\xba\xdf+\x8ag\x1e@%\xb4\x0fru\x812@%\xb5\xc2ER\xa2\xfd?D\xf2V\xc24\xd0\x02@5\xd5KvQ\x06\xe9?'
p8632
tp8633
ba(lp8634
g21
(g22
(dp8635
g24
g25
(g26
(I0
tp8636
g28
tp8637
Rp8638
(I1
(I6
tp8639
g35
I00
(lp8640
g39
ag40
ag41
ag42
ag43
ag44
atp8641
bsg15
Nstp8642
Rp8643
a(dp8644
g71
(dp8645
g73
g8617
sg74
(lp8646
(dp8647
g77
g78
(I0
I6
I1
tp8648
Rp8649
sg81
g8630
sasstp8650
bsg83
g84
sg15
NsbsF20.0
g7
(g8
g9
Ntp8651
Rp8652
(dp8653
g13
g14
sg16
g7
(g17
g9
Ntp8654
Rp8655
((lp8656
g21
(g22
(dp8657
g24
g25
(g26
(I0
tp8658
g28
tp8659
Rp8660
(I1
(I6
tp8661
g35
I00
(lp8662
g39
ag40
ag41
ag42
ag43
ag44
atp8663
bsg15
Nstp8664
Rp8665
a(lp8666
g25
(g26
(I0
tp8667
g28
tp8668
Rp8669
(I1
(I6
tp8670
g55
I00
S'K\xfe@]i\xe0\x00@\xc2\xb0\x9f\xdbgy\x1d@\x01\x1f8\xb1hj3@\xfa\xf2d\xf2\xd1\xac\xfd?\xde\xd6\xef\xc7\xddq\x05@D\xa2\xfd\xdcUb\xf5?'
p8671
tp8672
ba(lp8673
g21
(g22
(dp8674
g24
g25
(g26
(I0
tp8675
g28
tp8676
Rp8677
(I1
(I6
tp8678
g35
I00
(lp8679
g39
ag40
ag41
ag42
ag43
ag44
atp8680
bsg15
Nstp8681
Rp8682
a(dp8683
g71
(dp8684
g73
g8656
sg74
(lp8685
(dp8686
g77
g78
(I0
I6
I1
tp8687
Rp8688
sg81
g8669
sasstp8689
bsg83
g84
sg15
NsbsF90.0
g7
(g8
g9
Ntp8690
Rp8691
(dp8692
g13
g14
sg16
g7
(g17
g9
Ntp8693
Rp8694
((lp8695
g21
(g22
(dp8696
g24
g25
(g26
(I0
tp8697
g28
tp8698
Rp8699
(I1
(I6
tp8700
g35
I00
(lp8701
g39
ag40
ag41
ag42
ag43
ag44
atp8702
bsg15
Nstp8703
Rp8704
a(lp8705
g25
(g26
(I0
tp8706
g28
tp8707
Rp8708
(I1
(I6
tp8709
g55
I00
S'\xfe7\xab\xbe)9\x00@F\xc5\xedA\x0e[\x1c@\x05\xbb\xa2)y\xcc0@\x12\x87#\xe3$E\xfb?\xf2\xc5\xf87A\x87\x02@_\x0e\xe7B\x81\x8f\xe6?'
p8710
tp8711
ba(lp8712
g21
(g22
(dp8713
g24
g25
(g26
(I0
tp8714
g28
tp8715
Rp8716
(I1
(I6
tp8717
g35
I00
(lp8718
g39
ag40
ag41
ag42
ag43
ag44
atp8719
bsg15
Nstp8720
Rp8721
a(dp8722
g71
(dp8723
g73
g8695
sg74
(lp8724
(dp8725
g77
g78
(I0
I6
I1
tp8726
Rp8727
sg81
g8708
sasstp8728
bsg83
g84
sg15
NsbsF60.0
g7
(g8
g9
Ntp8729
Rp8730
(dp8731
g13
g14
sg16
g7
(g17
g9
Ntp8732
Rp8733
((lp8734
g21
(g22
(dp8735
g24
g25
(g26
(I0
tp8736
g28
tp8737
Rp8738
(I1
(I6
tp8739
g35
I00
(lp8740
g39
ag40
ag41
ag42
ag43
ag44
atp8741
bsg15
Nstp8742
Rp8743
a(lp8744
g25
(g26
(I0
tp8745
g28
tp8746
Rp8747
(I1
(I6
tp8748
g55
I00
S'.\xde\x88k\x103\x00@\xc0\x00\xea\xda\x94Z\x1e@r\xa3b\xde>\x111@\xf3\xa3\x8d\x15\xed\xa4\xfb?&=?\xb4NZ\x02@\x992\xeb\xea;m\xe8?'
p8749
tp8750
ba(lp8751
g21
(g22
(dp8752
g24
g25
(g26
(I0
tp8753
g28
tp8754
Rp8755
(I1
(I6
tp8756
g35
I00
(lp8757
g39
ag40
ag41
ag42
ag43
ag44
atp8758
bsg15
Nstp8759
Rp8760
a(dp8761
g71
(dp8762
g73
g8734
sg74
(lp8763
(dp8764
g77
g78
(I0
I6
I1
tp8765
Rp8766
sg81
g8747
sasstp8767
bsg83
g84
sg15
NsbsF30.0
g7
(g8
g9
Ntp8768
Rp8769
(dp8770
g13
g14
sg16
g7
(g17
g9
Ntp8771
Rp8772
((lp8773
g21
(g22
(dp8774
g24
g25
(g26
(I0
tp8775
g28
tp8776
Rp8777
(I1
(I6
tp8778
g35
I00
(lp8779
g39
ag40
ag41
ag42
ag43
ag44
atp8780
bsg15
Nstp8781
Rp8782
a(lp8783
g25
(g26
(I0
tp8784
g28
tp8785
Rp8786
(I1
(I6
tp8787
g55
I00
S'[\x9f\xb5\x9f\xed\x9c\x01@\x83\x9dY\x15\x10K\x1d@.\x97\xeey\x1a\x002@\x10m\xa4\x826\t\xfd?\x06:\xcd\xc2\x16\xf0\x03@\xf6E\xfa\n\x9e\xcc\xec?'
p8788
tp8789
ba(lp8790
g21
(g22
(dp8791
g24
g25
(g26
(I0
tp8792
g28
tp8793
Rp8794
(I1
(I6
tp8795
g35
I00
(lp8796
g39
ag40
ag41
ag42
ag43
ag44
atp8797
bsg15
Nstp8798
Rp8799
a(dp8800
g71
(dp8801
g73
g8773
sg74
(lp8802
(dp8803
g77
g78
(I0
I6
I1
tp8804
Rp8805
sg81
g8786
sasstp8806
bsg83
g84
sg15
Nsbsssg1296
(dp8807
g5
(dp8808
F0.0
g7
(g8
g9
Ntp8809
Rp8810
(dp8811
g13
g14
sg16
g7
(g17
g9
Ntp8812
Rp8813
((lp8814
g21
(g22
(dp8815
g24
g25
(g26
(I0
tp8816
g28
tp8817
Rp8818
(I1
(I6
tp8819
g35
I00
(lp8820
g39
ag40
ag41
ag42
ag43
ag44
atp8821
bsg15
Nstp8822
Rp8823
a(lp8824
g25
(g26
(I0
tp8825
g28
tp8826
Rp8827
(I1
(I6
tp8828
g55
I00
S'5\x043\x1f87\xfd?\x96\xe5\x86\xfd\x98\xef\x1f@2\xf9\xff\xdapK<@\x17\xf8\xee\x03t\xde\x00@\xf0\x87\x83*S\x89\x03@&z\xd5\xc2\x12\xbb\xeb?'
p8829
tp8830
ba(lp8831
g21
(g22
(dp8832
g24
g25
(g26
(I0
tp8833
g28
tp8834
Rp8835
(I1
(I6
tp8836
g35
I00
(lp8837
g39
ag40
ag41
ag42
ag43
ag44
atp8838
bsg15
Nstp8839
Rp8840
a(dp8841
g71
(dp8842
g73
g8814
sg74
(lp8843
(dp8844
g77
g78
(I0
I6
I1
tp8845
Rp8846
sg81
g8827
sasstp8847
bsg83
g84
sg15
NsbsF100.0
g7
(g8
g9
Ntp8848
Rp8849
(dp8850
g13
g14
sg16
g7
(g17
g9
Ntp8851
Rp8852
((lp8853
g21
(g22
(dp8854
g24
g25
(g26
(I0
tp8855
g28
tp8856
Rp8857
(I1
(I6
tp8858
g35
I00
(lp8859
g39
ag40
ag41
ag42
ag43
ag44
atp8860
bsg15
Nstp8861
Rp8862
a(lp8863
g25
(g26
(I0
tp8864
g28
tp8865
Rp8866
(I1
(I6
tp8867
g55
I00
S'jK\x19\xa2\xe1\x81\xfd?\xb2hG\xeb&\xbf!@\xe86\x8e\x95nw.@\xb3\x9a\xdb#\x9cU\xfd?\xa9Z\xc3=\x06y\x04@\xdcO\x11\x1a\x11\x18\xe8?'
p8868
tp8869
ba(lp8870
g21
(g22
(dp8871
g24
g25
(g26
(I0
tp8872
g28
tp8873
Rp8874
(I1
(I6
tp8875
g35
I00
(lp8876
g39
ag40
ag41
ag42
ag43
ag44
atp8877
bsg15
Nstp8878
Rp8879
a(dp8880
g71
(dp8881
g73
g8853
sg74
(lp8882
(dp8883
g77
g78
(I0
I6
I1
tp8884
Rp8885
sg81
g8866
sasstp8886
bsg83
g84
sg15
NsbsF70.0
g7
(g8
g9
Ntp8887
Rp8888
(dp8889
g13
g14
sg16
g7
(g17
g9
Ntp8890
Rp8891
((lp8892
g21
(g22
(dp8893
g24
g25
(g26
(I0
tp8894
g28
tp8895
Rp8896
(I1
(I6
tp8897
g35
I00
(lp8898
g39
ag40
ag41
ag42
ag43
ag44
atp8899
bsg15
Nstp8900
Rp8901
a(lp8902
g25
(g26
(I0
tp8903
g28
tp8904
Rp8905
(I1
(I6
tp8906
g55
I00
S'R\xac\x0f\x17e\xe5\xfd?B\x8fQ\x96Q; @\xe8\x1d\xea\xd2\x98\xb0-@\xe8\xb4"9~ \x00@\x01\xbb\xe8)\xd8\xc1\x01@m\xcf\x9b\x9f\x82\x91\xe8?'
p8907
tp8908
ba(lp8909
g21
(g22
(dp8910
g24
g25
(g26
(I0
tp8911
g28
tp8912
Rp8913
(I1
(I6
tp8914
g35
I00
(lp8915
g39
ag40
ag41
ag42
ag43
ag44
atp8916
bsg15
Nstp8917
Rp8918
a(dp8919
g71
(dp8920
g73
g8892
sg74
(lp8921
(dp8922
g77
g78
(I0
I6
I1
tp8923
Rp8924
sg81
g8905
sasstp8925
bsg83
g84
sg15
NsbsF6.0
g7
(g8
g9
Ntp8926
Rp8927
(dp8928
g13
g14
sg16
g7
(g17
g9
Ntp8929
Rp8930
((lp8931
g21
(g22
(dp8932
g24
g25
(g26
(I0
tp8933
g28
tp8934
Rp8935
(I1
(I6
tp8936
g35
I00
(lp8937
g39
ag40
ag41
ag42
ag43
ag44
atp8938
bsg15
Nstp8939
Rp8940
a(lp8941
g25
(g26
(I0
tp8942
g28
tp8943
Rp8944
(I1
(I6
tp8945
g55
I00
S'`o)s\x89\x90\xff?\x05\xea#\x15\x1a\xa8+@B\x07\xf6\xe6\x17\xef6@Me\x850\xbf\x9d\x04@\xfb\x85t\xa8\xf4Q\x05@\xb3\xc2\xaa.\x92\xa2\xea?'
p8946
tp8947
ba(lp8948
g21
(g22
(dp8949
g24
g25
(g26
(I0
tp8950
g28
tp8951
Rp8952
(I1
(I6
tp8953
g35
I00
(lp8954
g39
ag40
ag41
ag42
ag43
ag44
atp8955
bsg15
Nstp8956
Rp8957
a(dp8958
g71
(dp8959
g73
g8931
sg74
(lp8960
(dp8961
g77
g78
(I0
I6
I1
tp8962
Rp8963
sg81
g8944
sasstp8964
bsg83
g84
sg15
NsbsF7.0
g7
(g8
g9
Ntp8965
Rp8966
(dp8967
g13
g14
sg16
g7
(g17
g9
Ntp8968
Rp8969
((lp8970
g21
(g22
(dp8971
g24
g25
(g26
(I0
tp8972
g28
tp8973
Rp8974
(I1
(I6
tp8975
g35
I00
(lp8976
g39
ag40
ag41
ag42
ag43
ag44
atp8977
bsg15
Nstp8978
Rp8979
a(lp8980
g25
(g26
(I0
tp8981
g28
tp8982
Rp8983
(I1
(I6
tp8984
g55
I00
S'^o)s\x89\x90\xff?\x05\xea#\x15\x1a\xa8+@J\x07\xf6\xe6\x17\xef6@Me\x850\xbf\x9d\x04@\xfb\x85t\xa8\xf4Q\x05@\xb3\xc2\xaa.\x92\xa2\xea?'
p8985
tp8986
ba(lp8987
g21
(g22
(dp8988
g24
g25
(g26
(I0
tp8989
g28
tp8990
Rp8991
(I1
(I6
tp8992
g35
I00
(lp8993
g39
ag40
ag41
ag42
ag43
ag44
atp8994
bsg15
Nstp8995
Rp8996
a(dp8997
g71
(dp8998
g73
g8970
sg74
(lp8999
(dp9000
g77
g78
(I0
I6
I1
tp9001
Rp9002
sg81
g8983
sasstp9003
bsg83
g84
sg15
NsbsF8.0
g7
(g8
g9
Ntp9004
Rp9005
(dp9006
g13
g14
sg16
g7
(g17
g9
Ntp9007
Rp9008
((lp9009
g21
(g22
(dp9010
g24
g25
(g26
(I0
tp9011
g28
tp9012
Rp9013
(I1
(I6
tp9014
g35
I00
(lp9015
g39
ag40
ag41
ag42
ag43
ag44
atp9016
bsg15
Nstp9017
Rp9018
a(lp9019
g25
(g26
(I0
tp9020
g28
tp9021
Rp9022
(I1
(I6
tp9023
g55
I00
S'\xc3\xf0~s\x89\x90\xff?\xf0\x08\xbb\x14\x1a\xa8+@\xfe\x92\xb7\xe6\x17\xef6@\xda\x06I0\xbf\x9d\x04@\xb0\xf3\x90\xa8\xf4Q\x05@\x13\x01\xb7.\x92\xa2\xea?'
p9024
tp9025
ba(lp9026
g21
(g22
(dp9027
g24
g25
(g26
(I0
tp9028
g28
tp9029
Rp9030
(I1
(I6
tp9031
g35
I00
(lp9032
g39
ag40
ag41
ag42
ag43
ag44
atp9033
bsg15
Nstp9034
Rp9035
a(dp9036
g71
(dp9037
g73
g9009
sg74
(lp9038
(dp9039
g77
g78
(I0
I6
I1
tp9040
Rp9041
sg81
g9022
sasstp9042
bsg83
g84
sg15
NsbsF9.0
g7
(g8
g9
Ntp9043
Rp9044
(dp9045
g13
g14
sg16
g7
(g17
g9
Ntp9046
Rp9047
((lp9048
g21
(g22
(dp9049
g24
g25
(g26
(I0
tp9050
g28
tp9051
Rp9052
(I1
(I6
tp9053
g35
I00
(lp9054
g39
ag40
ag41
ag42
ag43
ag44
atp9055
bsg15
Nstp9056
Rp9057
a(lp9058
g25
(g26
(I0
tp9059
g28
tp9060
Rp9061
(I1
(I6
tp9062
g55
I00
S'\x97\x81\xbbh\xa7\x13\x00@\x9e.\x9e\xd0%B+@\xea\x0c3\x1f\xc1\x136@\xff\xa7\xab\xa5\x1c\x94\x04@{f\xb2\xb7v\x9a\x05@\x85X\xd2\x8e\xae\x1f\xeb?'
p9063
tp9064
ba(lp9065
g21
(g22
(dp9066
g24
g25
(g26
(I0
tp9067
g28
tp9068
Rp9069
(I1
(I6
tp9070
g35
I00
(lp9071
g39
ag40
ag41
ag42
ag43
ag44
atp9072
bsg15
Nstp9073
Rp9074
a(dp9075
g71
(dp9076
g73
g9048
sg74
(lp9077
(dp9078
g77
g78
(I0
I6
I1
tp9079
Rp9080
sg81
g9061
sasstp9081
bsg83
g84
sg15
NsbsF10.0
g7
(g8
g9
Ntp9082
Rp9083
(dp9084
g13
g14
sg16
g7
(g17
g9
Ntp9085
Rp9086
((lp9087
g21
(g22
(dp9088
g24
g25
(g26
(I0
tp9089
g28
tp9090
Rp9091
(I1
(I6
tp9092
g35
I00
(lp9093
g39
ag40
ag41
ag42
ag43
ag44
atp9094
bsg15
Nstp9095
Rp9096
a(lp9097
g25
(g26
(I0
tp9098
g28
tp9099
Rp9100
(I1
(I6
tp9101
g55
I00
S'\xb7\x8b\xbbh\xa7\x13\x00@\xd3\xb3\x9d\xd0%B+@\xb2o3\x1f\xc1\x136@*\x86\xab\xa5\x1c\x94\x04@\xed*\xb2\xb7v\x9a\x05@\xdbI\xd2\x8e\xae\x1f\xeb?'
p9102
tp9103
ba(lp9104
g21
(g22
(dp9105
g24
g25
(g26
(I0
tp9106
g28
tp9107
Rp9108
(I1
(I6
tp9109
g35
I00
(lp9110
g39
ag40
ag41
ag42
ag43
ag44
atp9111
bsg15
Nstp9112
Rp9113
a(dp9114
g71
(dp9115
g73
g9087
sg74
(lp9116
(dp9117
g77
g78
(I0
I6
I1
tp9118
Rp9119
sg81
g9100
sasstp9120
bsg83
g84
sg15
NsbsF15.0
g7
(g8
g9
Ntp9121
Rp9122
(dp9123
g13
g14
sg16
g7
(g17
g9
Ntp9124
Rp9125
((lp9126
g21
(g22
(dp9127
g24
g25
(g26
(I0
tp9128
g28
tp9129
Rp9130
(I1
(I6
tp9131
g35
I00
(lp9132
g39
ag40
ag41
ag42
ag43
ag44
atp9133
bsg15
Nstp9134
Rp9135
a(lp9136
g25
(g26
(I0
tp9137
g28
tp9138
Rp9139
(I1
(I6
tp9140
g55
I00
S'8\x83ey\xc1t\xfd?\xb4x\'V"\x80#@\xd2 \xe6\xe5\xc2\x0e2@\x94\\U>A_\x01@\x8a\xcb]\x92V\xb1\x03@\xca<BE]\x0c\xe9?'
p9141
tp9142
ba(lp9143
g21
(g22
(dp9144
g24
g25
(g26
(I0
tp9145
g28
tp9146
Rp9147
(I1
(I6
tp9148
g35
I00
(lp9149
g39
ag40
ag41
ag42
ag43
ag44
atp9150
bsg15
Nstp9151
Rp9152
a(dp9153
g71
(dp9154
g73
g9126
sg74
(lp9155
(dp9156
g77
g78
(I0
I6
I1
tp9157
Rp9158
sg81
g9139
sasstp9159
bsg83
g84
sg15
NsbsF80.0
g7
(g8
g9
Ntp9160
Rp9161
(dp9162
g13
g14
sg16
g7
(g17
g9
Ntp9163
Rp9164
((lp9165
g21
(g22
(dp9166
g24
g25
(g26
(I0
tp9167
g28
tp9168
Rp9169
(I1
(I6
tp9170
g35
I00
(lp9171
g39
ag40
ag41
ag42
ag43
ag44
atp9172
bsg15
Nstp9173
Rp9174
a(lp9175
g25
(g26
(I0
tp9176
g28
tp9177
Rp9178
(I1
(I6
tp9179
g55
I00
S'\xfb\x15~\xdeg\x00\xfe?\xa6S\x04\x8e\x03R"@\xbdNwo\x87\x85.@v\xec\xce%\xea\xd5\xff?>\xac\xc5\xee\x88\x81\x03@\xbef\xc8\xe5^h\xe9?'
p9180
tp9181
ba(lp9182
g21
(g22
(dp9183
g24
g25
(g26
(I0
tp9184
g28
tp9185
Rp9186
(I1
(I6
tp9187
g35
I00
(lp9188
g39
ag40
ag41
ag42
ag43
ag44
atp9189
bsg15
Nstp9190
Rp9191
a(dp9192
g71
(dp9193
g73
g9165
sg74
(lp9194
(dp9195
g77
g78
(I0
I6
I1
tp9196
Rp9197
sg81
g9178
sasstp9198
bsg83
g84
sg15
NsbsF40.0
g7
(g8
g9
Ntp9199
Rp9200
(dp9201
g13
g14
sg16
g7
(g17
g9
Ntp9202
Rp9203
((lp9204
g21
(g22
(dp9205
g24
g25
(g26
(I0
tp9206
g28
tp9207
Rp9208
(I1
(I6
tp9209
g35
I00
(lp9210
g39
ag40
ag41
ag42
ag43
ag44
atp9211
bsg15
Nstp9212
Rp9213
a(lp9214
g25
(g26
(I0
tp9215
g28
tp9216
Rp9217
(I1
(I6
tp9218
g55
I00
S'\xed\xe6\xde\x92g\xd9\xfd?\x8d,S\xb5\xa2\x19"@"\xbd!\xc8H_0@\xaf\xf4\x14\x84H\xb0\x00@\xec\xac\xa0\xf9\xde#\x03@2RM\x1c=\x13\xe9?'
p9219
tp9220
ba(lp9221
g21
(g22
(dp9222
g24
g25
(g26
(I0
tp9223
g28
tp9224
Rp9225
(I1
(I6
tp9226
g35
I00
(lp9227
g39
ag40
ag41
ag42
ag43
ag44
atp9228
bsg15
Nstp9229
Rp9230
a(dp9231
g71
(dp9232
g73
g9204
sg74
(lp9233
(dp9234
g77
g78
(I0
I6
I1
tp9235
Rp9236
sg81
g9217
sasstp9237
bsg83
g84
sg15
NsbsF50.0
g7
(g8
g9
Ntp9238
Rp9239
(dp9240
g13
g14
sg16
g7
(g17
g9
Ntp9241
Rp9242
((lp9243
g21
(g22
(dp9244
g24
g25
(g26
(I0
tp9245
g28
tp9246
Rp9247
(I1
(I6
tp9248
g35
I00
(lp9249
g39
ag40
ag41
ag42
ag43
ag44
atp9250
bsg15
Nstp9251
Rp9252
a(lp9253
g25
(g26
(I0
tp9254
g28
tp9255
Rp9256
(I1
(I6
tp9257
g55
I00
S'\xe3a\xff\x81\xfb0\xfd?*\xf8\xbc\x84G\n#@Z\x0c\xc5\x1eA\x8a0@\xf3\xa1\xe5<\xde\x14\x01@^\xfcK\x84`E\x04@V\x84\x92\xbb40\xe9?'
p9258
tp9259
ba(lp9260
g21
(g22
(dp9261
g24
g25
(g26
(I0
tp9262
g28
tp9263
Rp9264
(I1
(I6
tp9265
g35
I00
(lp9266
g39
ag40
ag41
ag42
ag43
ag44
atp9267
bsg15
Nstp9268
Rp9269
a(dp9270
g71
(dp9271
g73
g9243
sg74
(lp9272
(dp9273
g77
g78
(I0
I6
I1
tp9274
Rp9275
sg81
g9256
sasstp9276
bsg83
g84
sg15
NsbsF20.0
g7
(g8
g9
Ntp9277
Rp9278
(dp9279
g13
g14
sg16
g7
(g17
g9
Ntp9280
Rp9281
((lp9282
g21
(g22
(dp9283
g24
g25
(g26
(I0
tp9284
g28
tp9285
Rp9286
(I1
(I6
tp9287
g35
I00
(lp9288
g39
ag40
ag41
ag42
ag43
ag44
atp9289
bsg15
Nstp9290
Rp9291
a(lp9292
g25
(g26
(I0
tp9293
g28
tp9294
Rp9295
(I1
(I6
tp9296
g55
I00
S'\x08\x14\xef\x88\xee\x1c\xfd?\xa1\x9b\x90,\xd3\xfb"@\xe7\x9b\xbdX8\x941@\x9eu\xa6\xf1\xb0A\x01@\xf7\x89\xb8\xfc\xd4\xbc\x03@\xe2\xd7\xad{\x84S\xe9?'
p9297
tp9298
ba(lp9299
g21
(g22
(dp9300
g24
g25
(g26
(I0
tp9301
g28
tp9302
Rp9303
(I1
(I6
tp9304
g35
I00
(lp9305
g39
ag40
ag41
ag42
ag43
ag44
atp9306
bsg15
Nstp9307
Rp9308
a(dp9309
g71
(dp9310
g73
g9282
sg74
(lp9311
(dp9312
g77
g78
(I0
I6
I1
tp9313
Rp9314
sg81
g9295
sasstp9315
bsg83
g84
sg15
NsbsF90.0
g7
(g8
g9
Ntp9316
Rp9317
(dp9318
g13
g14
sg16
g7
(g17
g9
Ntp9319
Rp9320
((lp9321
g21
(g22
(dp9322
g24
g25
(g26
(I0
tp9323
g28
tp9324
Rp9325
(I1
(I6
tp9326
g35
I00
(lp9327
g39
ag40
ag41
ag42
ag43
ag44
atp9328
bsg15
Nstp9329
Rp9330
a(lp9331
g25
(g26
(I0
tp9332
g28
tp9333
Rp9334
(I1
(I6
tp9335
g55
I00
S':W\xf5^Ky\xfd?\x86\x8c\xe9~\x08\xc2 @J1\x1f\xc7\xa0\x01/@E\xf4\t\xb2\n\x91\xfe?\x94:t\xbd\x16\x1a\x03@\x0e\xe7oY\xb4\x81\xe8?'
p9336
tp9337
ba(lp9338
g21
(g22
(dp9339
g24
g25
(g26
(I0
tp9340
g28
tp9341
Rp9342
(I1
(I6
tp9343
g35
I00
(lp9344
g39
ag40
ag41
ag42
ag43
ag44
atp9345
bsg15
Nstp9346
Rp9347
a(dp9348
g71
(dp9349
g73
g9321
sg74
(lp9350
(dp9351
g77
g78
(I0
I6
I1
tp9352
Rp9353
sg81
g9334
sasstp9354
bsg83
g84
sg15
NsbsF60.0
g7
(g8
g9
Ntp9355
Rp9356
(dp9357
g13
g14
sg16
g7
(g17
g9
Ntp9358
Rp9359
((lp9360
g21
(g22
(dp9361
g24
g25
(g26
(I0
tp9362
g28
tp9363
Rp9364
(I1
(I6
tp9365
g35
I00
(lp9366
g39
ag40
ag41
ag42
ag43
ag44
atp9367
bsg15
Nstp9368
Rp9369
a(lp9370
g25
(g26
(I0
tp9371
g28
tp9372
Rp9373
(I1
(I6
tp9374
g55
I00
S'\r\x9e\xf3J\xe1V\xfd?<\x1a\xa5\x07\x1bq!@\xe9\x01\xebAz\x0e0@\x96N\x91\x06n\xba\x00@\xfd\x9e\x185O\xe6\x02@\x12\xa9V[\xf9\x87\xe8?'
p9375
tp9376
ba(lp9377
g21
(g22
(dp9378
g24
g25
(g26
(I0
tp9379
g28
tp9380
Rp9381
(I1
(I6
tp9382
g35
I00
(lp9383
g39
ag40
ag41
ag42
ag43
ag44
atp9384
bsg15
Nstp9385
Rp9386
a(dp9387
g71
(dp9388
g73
g9360
sg74
(lp9389
(dp9390
g77
g78
(I0
I6
I1
tp9391
Rp9392
sg81
g9373
sasstp9393
bsg83
g84
sg15
NsbsF30.0
g7
(g8
g9
Ntp9394
Rp9395
(dp9396
g13
g14
sg16
g7
(g17
g9
Ntp9397
Rp9398
((lp9399
g21
(g22
(dp9400
g24
g25
(g26
(I0
tp9401
g28
tp9402
Rp9403
(I1
(I6
tp9404
g35
I00
(lp9405
g39
ag40
ag41
ag42
ag43
ag44
atp9406
bsg15
Nstp9407
Rp9408
a(lp9409
g25
(g26
(I0
tp9410
g28
tp9411
Rp9412
(I1
(I6
tp9413
g55
I00
S'@u\x95*\xfb\x0e\xfe?\xf0\xef\xe5\xc1\x11\xd4!@de\x19\xe1\xc2(1@\xadJ\x15\x9a\x1f$\x01@\x90\x02Eu\x8b\xd5\x03@E\xf3\xec\xdd"\xf0\xe8?'
p9414
tp9415
ba(lp9416
g21
(g22
(dp9417
g24
g25
(g26
(I0
tp9418
g28
tp9419
Rp9420
(I1
(I6
tp9421
g35
I00
(lp9422
g39
ag40
ag41
ag42
ag43
ag44
atp9423
bsg15
Nstp9424
Rp9425
a(dp9426
g71
(dp9427
g73
g9399
sg74
(lp9428
(dp9429
g77
g78
(I0
I6
I1
tp9430
Rp9431
sg81
g9412
sasstp9432
bsg83
g84
sg15
Nsbssg670
(dp9433
F0.0
g7
(g8
g9
Ntp9434
Rp9435
(dp9436
g13
g14
sg16
g7
(g17
g9
Ntp9437
Rp9438
((lp9439
g21
(g22
(dp9440
g24
g25
(g26
(I0
tp9441
g28
tp9442
Rp9443
(I1
(I6
tp9444
g35
I00
(lp9445
g39
ag40
ag41
ag42
ag43
ag44
atp9446
bsg15
Nstp9447
Rp9448
a(lp9449
g25
(g26
(I0
tp9450
g28
tp9451
Rp9452
(I1
(I6
tp9453
g55
I00
S'X\x91\xe8bL\xb0 @WL\x7f\xaa\xeb\x99"@\x10(\xabP\x01k6@\x9dD$\xa7-\xec$@\x88\x13\xcdZ\xdd\xeb\x1b@J\xf7\xef\x98A\x86\x11@'
p9454
tp9455
ba(lp9456
g21
(g22
(dp9457
g24
g25
(g26
(I0
tp9458
g28
tp9459
Rp9460
(I1
(I6
tp9461
g35
I00
(lp9462
g39
ag40
ag41
ag42
ag43
ag44
atp9463
bsg15
Nstp9464
Rp9465
a(dp9466
g71
(dp9467
g73
g9439
sg74
(lp9468
(dp9469
g77
g78
(I0
I6
I1
tp9470
Rp9471
sg81
g9452
sasstp9472
bsg83
g84
sg15
NsbsF100.0
g7
(g8
g9
Ntp9473
Rp9474
(dp9475
g13
g14
sg16
g7
(g17
g9
Ntp9476
Rp9477
((lp9478
g21
(g22
(dp9479
g24
g25
(g26
(I0
tp9480
g28
tp9481
Rp9482
(I1
(I6
tp9483
g35
I00
(lp9484
g39
ag40
ag41
ag42
ag43
ag44
atp9485
bsg15
Nstp9486
Rp9487
a(lp9488
g25
(g26
(I0
tp9489
g28
tp9490
Rp9491
(I1
(I6
tp9492
g55
I00
S'\xa8,\xca\xa0\x9b\xcb\xfe?\xdb\x84\x19_\xa9\x8b\x1f@\x82\x01\xdeL\xe4\xce0@N\rouW]\xfc?\xb0\x03\xb0\\\xd2\x15\x02@\x1ac\xd8\xd0N\x07\xe9?'
p9493
tp9494
ba(lp9495
g21
(g22
(dp9496
g24
g25
(g26
(I0
tp9497
g28
tp9498
Rp9499
(I1
(I6
tp9500
g35
I00
(lp9501
g39
ag40
ag41
ag42
ag43
ag44
atp9502
bsg15
Nstp9503
Rp9504
a(dp9505
g71
(dp9506
g73
g9478
sg74
(lp9507
(dp9508
g77
g78
(I0
I6
I1
tp9509
Rp9510
sg81
g9491
sasstp9511
bsg83
g84
sg15
NsbsF70.0
g7
(g8
g9
Ntp9512
Rp9513
(dp9514
g13
g14
sg16
g7
(g17
g9
Ntp9515
Rp9516
((lp9517
g21
(g22
(dp9518
g24
g25
(g26
(I0
tp9519
g28
tp9520
Rp9521
(I1
(I6
tp9522
g35
I00
(lp9523
g39
ag40
ag41
ag42
ag43
ag44
atp9524
bsg15
Nstp9525
Rp9526
a(lp9527
g25
(g26
(I0
tp9528
g28
tp9529
Rp9530
(I1
(I6
tp9531
g55
I00
S'\xf8U\xd3\xfa\xdf\xa0\xff?\xb8\x0b\x82o\xcfz\x1e@\xbe\xd7\xaf\x98\xc5w0@\xb2(\xee\xec&\x02\xfc?\xda\xe6\xa1{\xb8:\x02@\xc5\xf6\x9e\xc4H\xdc\xe7?'
p9532
tp9533
ba(lp9534
g21
(g22
(dp9535
g24
g25
(g26
(I0
tp9536
g28
tp9537
Rp9538
(I1
(I6
tp9539
g35
I00
(lp9540
g39
ag40
ag41
ag42
ag43
ag44
atp9541
bsg15
Nstp9542
Rp9543
a(dp9544
g71
(dp9545
g73
g9517
sg74
(lp9546
(dp9547
g77
g78
(I0
I6
I1
tp9548
Rp9549
sg81
g9530
sasstp9550
bsg83
g84
sg15
NsbsF6.0
g7
(g8
g9
Ntp9551
Rp9552
(dp9553
g13
g14
sg16
g7
(g17
g9
Ntp9554
Rp9555
((lp9556
g21
(g22
(dp9557
g24
g25
(g26
(I0
tp9558
g28
tp9559
Rp9560
(I1
(I6
tp9561
g35
I00
(lp9562
g39
ag40
ag41
ag42
ag43
ag44
atp9563
bsg15
Nstp9564
Rp9565
a(lp9566
g25
(g26
(I0
tp9567
g28
tp9568
Rp9569
(I1
(I6
tp9570
g55
I00
S'\xf6\x19\x923\xcf\xf9\x05@h\x86\x81\\\x96B!@\xb2\xf5\xa2\x1b\xb4\x936@\xc9\x97\xefB\xba6\x03@c\xfb\x8c\xd7\xf7\xaa\x10@\xd07\xbf\xb5\x8ej\x04@'
p9571
tp9572
ba(lp9573
g21
(g22
(dp9574
g24
g25
(g26
(I0
tp9575
g28
tp9576
Rp9577
(I1
(I6
tp9578
g35
I00
(lp9579
g39
ag40
ag41
ag42
ag43
ag44
atp9580
bsg15
Nstp9581
Rp9582
a(dp9583
g71
(dp9584
g73
g9556
sg74
(lp9585
(dp9586
g77
g78
(I0
I6
I1
tp9587
Rp9588
sg81
g9569
sasstp9589
bsg83
g84
sg15
NsbsF7.0
g7
(g8
g9
Ntp9590
Rp9591
(dp9592
g13
g14
sg16
g7
(g17
g9
Ntp9593
Rp9594
((lp9595
g21
(g22
(dp9596
g24
g25
(g26
(I0
tp9597
g28
tp9598
Rp9599
(I1
(I6
tp9600
g35
I00
(lp9601
g39
ag40
ag41
ag42
ag43
ag44
atp9602
bsg15
Nstp9603
Rp9604
a(lp9605
g25
(g26
(I0
tp9606
g28
tp9607
Rp9608
(I1
(I6
tp9609
g55
I00
S'\xf6\x19\x923\xcf\xf9\x05@h\x86\x81\\\x96B!@\xb2\xf5\xa2\x1b\xb4\x936@\xc9\x97\xefB\xba6\x03@c\xfb\x8c\xd7\xf7\xaa\x10@\xd07\xbf\xb5\x8ej\x04@'
p9610
tp9611
ba(lp9612
g21
(g22
(dp9613
g24
g25
(g26
(I0
tp9614
g28
tp9615
Rp9616
(I1
(I6
tp9617
g35
I00
(lp9618
g39
ag40
ag41
ag42
ag43
ag44
atp9619
bsg15
Nstp9620
Rp9621
a(dp9622
g71
(dp9623
g73
g9595
sg74
(lp9624
(dp9625
g77
g78
(I0
I6
I1
tp9626
Rp9627
sg81
g9608
sasstp9628
bsg83
g84
sg15
NsbsF8.0
g7
(g8
g9
Ntp9629
Rp9630
(dp9631
g13
g14
sg16
g7
(g17
g9
Ntp9632
Rp9633
((lp9634
g21
(g22
(dp9635
g24
g25
(g26
(I0
tp9636
g28
tp9637
Rp9638
(I1
(I6
tp9639
g35
I00
(lp9640
g39
ag40
ag41
ag42
ag43
ag44
atp9641
bsg15
Nstp9642
Rp9643
a(lp9644
g25
(g26
(I0
tp9645
g28
tp9646
Rp9647
(I1
(I6
tp9648
g55
I00
S'\xf6\x19\x923\xcf\xf9\x05@h\x86\x81\\\x96B!@\xb2\xf5\xa2\x1b\xb4\x936@\xc9\x97\xefB\xba6\x03@c\xfb\x8c\xd7\xf7\xaa\x10@\xd07\xbf\xb5\x8ej\x04@'
p9649
tp9650
ba(lp9651
g21
(g22
(dp9652
g24
g25
(g26
(I0
tp9653
g28
tp9654
Rp9655
(I1
(I6
tp9656
g35
I00
(lp9657
g39
ag40
ag41
ag42
ag43
ag44
atp9658
bsg15
Nstp9659
Rp9660
a(dp9661
g71
(dp9662
g73
g9634
sg74
(lp9663
(dp9664
g77
g78
(I0
I6
I1
tp9665
Rp9666
sg81
g9647
sasstp9667
bsg83
g84
sg15
NsbsF9.0
g7
(g8
g9
Ntp9668
Rp9669
(dp9670
g13
g14
sg16
g7
(g17
g9
Ntp9671
Rp9672
((lp9673
g21
(g22
(dp9674
g24
g25
(g26
(I0
tp9675
g28
tp9676
Rp9677
(I1
(I6
tp9678
g35
I00
(lp9679
g39
ag40
ag41
ag42
ag43
ag44
atp9680
bsg15
Nstp9681
Rp9682
a(lp9683
g25
(g26
(I0
tp9684
g28
tp9685
Rp9686
(I1
(I6
tp9687
g55
I00
S'\xdeeqJAy\x06@\xad\xccR\x15\xa9\xf1!@\x03\x9e\xf2|@\xbf4@\xcf\\\xa5V+X\x02@\xe8\xcdE\xbe\xa9H\n@=\xd9Xc\tY\r@'
p9688
tp9689
ba(lp9690
g21
(g22
(dp9691
g24
g25
(g26
(I0
tp9692
g28
tp9693
Rp9694
(I1
(I6
tp9695
g35
I00
(lp9696
g39
ag40
ag41
ag42
ag43
ag44
atp9697
bsg15
Nstp9698
Rp9699
a(dp9700
g71
(dp9701
g73
g9673
sg74
(lp9702
(dp9703
g77
g78
(I0
I6
I1
tp9704
Rp9705
sg81
g9686
sasstp9706
bsg83
g84
sg15
NsbsF10.0
g7
(g8
g9
Ntp9707
Rp9708
(dp9709
g13
g14
sg16
g7
(g17
g9
Ntp9710
Rp9711
((lp9712
g21
(g22
(dp9713
g24
g25
(g26
(I0
tp9714
g28
tp9715
Rp9716
(I1
(I6
tp9717
g35
I00
(lp9718
g39
ag40
ag41
ag42
ag43
ag44
atp9719
bsg15
Nstp9720
Rp9721
a(lp9722
g25
(g26
(I0
tp9723
g28
tp9724
Rp9725
(I1
(I6
tp9726
g55
I00
S'\xdeeqJAy\x06@\xad\xccR\x15\xa9\xf1!@\x03\x9e\xf2|@\xbf4@\xcf\\\xa5V+X\x02@\xe8\xcdE\xbe\xa9H\n@=\xd9Xc\tY\r@'
p9727
tp9728
ba(lp9729
g21
(g22
(dp9730
g24
g25
(g26
(I0
tp9731
g28
tp9732
Rp9733
(I1
(I6
tp9734
g35
I00
(lp9735
g39
ag40
ag41
ag42
ag43
ag44
atp9736
bsg15
Nstp9737
Rp9738
a(dp9739
g71
(dp9740
g73
g9712
sg74
(lp9741
(dp9742
g77
g78
(I0
I6
I1
tp9743
Rp9744
sg81
g9725
sasstp9745
bsg83
g84
sg15
NsbsF15.0
g7
(g8
g9
Ntp9746
Rp9747
(dp9748
g13
g14
sg16
g7
(g17
g9
Ntp9749
Rp9750
((lp9751
g21
(g22
(dp9752
g24
g25
(g26
(I0
tp9753
g28
tp9754
Rp9755
(I1
(I6
tp9756
g35
I00
(lp9757
g39
ag40
ag41
ag42
ag43
ag44
atp9758
bsg15
Nstp9759
Rp9760
a(lp9761
g25
(g26
(I0
tp9762
g28
tp9763
Rp9764
(I1
(I6
tp9765
g55
I00
S'\xbf\xf4\x9c\xb0\xc8K\x01@P\x12zE\x0c\n\x1e@\x1a\xb7O\xc0\x0b\x922@8\xab\x17\x8e\xf2r\xfe?\xc3W\x80:\xff3\x07@\x99\xd69\x11\x11*\xf3?'
p9766
tp9767
ba(lp9768
g21
(g22
(dp9769
g24
g25
(g26
(I0
tp9770
g28
tp9771
Rp9772
(I1
(I6
tp9773
g35
I00
(lp9774
g39
ag40
ag41
ag42
ag43
ag44
atp9775
bsg15
Nstp9776
Rp9777
a(dp9778
g71
(dp9779
g73
g9751
sg74
(lp9780
(dp9781
g77
g78
(I0
I6
I1
tp9782
Rp9783
sg81
g9764
sasstp9784
bsg83
g84
sg15
NsbsF80.0
g7
(g8
g9
Ntp9785
Rp9786
(dp9787
g13
g14
sg16
g7
(g17
g9
Ntp9788
Rp9789
((lp9790
g21
(g22
(dp9791
g24
g25
(g26
(I0
tp9792
g28
tp9793
Rp9794
(I1
(I6
tp9795
g35
I00
(lp9796
g39
ag40
ag41
ag42
ag43
ag44
atp9797
bsg15
Nstp9798
Rp9799
a(lp9800
g25
(g26
(I0
tp9801
g28
tp9802
Rp9803
(I1
(I6
tp9804
g55
I00
S"\xf2\x126\xff\xe2\xdc\xfe?Zr\xd0\xc8D\xa5 @S3\x14\x7f\xd1\xb80@\xa8\x85P\x969\xaf\xfe?\xd4\xa7P\xc9\xe8'\x02@\x92H\x1fHp\xfd\xec?"
p9805
tp9806
ba(lp9807
g21
(g22
(dp9808
g24
g25
(g26
(I0
tp9809
g28
tp9810
Rp9811
(I1
(I6
tp9812
g35
I00
(lp9813
g39
ag40
ag41
ag42
ag43
ag44
atp9814
bsg15
Nstp9815
Rp9816
a(dp9817
g71
(dp9818
g73
g9790
sg74
(lp9819
(dp9820
g77
g78
(I0
I6
I1
tp9821
Rp9822
sg81
g9803
sasstp9823
bsg83
g84
sg15
NsbsF40.0
g7
(g8
g9
Ntp9824
Rp9825
(dp9826
g13
g14
sg16
g7
(g17
g9
Ntp9827
Rp9828
((lp9829
g21
(g22
(dp9830
g24
g25
(g26
(I0
tp9831
g28
tp9832
Rp9833
(I1
(I6
tp9834
g35
I00
(lp9835
g39
ag40
ag41
ag42
ag43
ag44
atp9836
bsg15
Nstp9837
Rp9838
a(lp9839
g25
(g26
(I0
tp9840
g28
tp9841
Rp9842
(I1
(I6
tp9843
g55
I00
S"\xde\xf2\xf8\x14]\xa2\x00@\xb5g\xb5\xb5F]\x1d@\x97e5\x1dck2@[\x8f\xfc\x1e\x10\xaa\xfd?W\xd8\xfd4k\xf2\x02@\xe4'\xc4\xf3\x14*\xe8?"
p9844
tp9845
ba(lp9846
g21
(g22
(dp9847
g24
g25
(g26
(I0
tp9848
g28
tp9849
Rp9850
(I1
(I6
tp9851
g35
I00
(lp9852
g39
ag40
ag41
ag42
ag43
ag44
atp9853
bsg15
Nstp9854
Rp9855
a(dp9856
g71
(dp9857
g73
g9829
sg74
(lp9858
(dp9859
g77
g78
(I0
I6
I1
tp9860
Rp9861
sg81
g9842
sasstp9862
bsg83
g84
sg15
NsbsF50.0
g7
(g8
g9
Ntp9863
Rp9864
(dp9865
g13
g14
sg16
g7
(g17
g9
Ntp9866
Rp9867
((lp9868
g21
(g22
(dp9869
g24
g25
(g26
(I0
tp9870
g28
tp9871
Rp9872
(I1
(I6
tp9873
g35
I00
(lp9874
g39
ag40
ag41
ag42
ag43
ag44
atp9875
bsg15
Nstp9876
Rp9877
a(lp9878
g25
(g26
(I0
tp9879
g28
tp9880
Rp9881
(I1
(I6
tp9882
g55
I00
S'`\x8b7\x1d\xff\xf3\xff?b\x18\xe1\xfc\x14^\x1f@i\x03Aa\xc1d2@\n6\xf8R\xb4>\xfe?\xfaR\x1a\xc1$q\x02@\x06\xfaUo\xd5c\xeb?'
p9883
tp9884
ba(lp9885
g21
(g22
(dp9886
g24
g25
(g26
(I0
tp9887
g28
tp9888
Rp9889
(I1
(I6
tp9890
g35
I00
(lp9891
g39
ag40
ag41
ag42
ag43
ag44
atp9892
bsg15
Nstp9893
Rp9894
a(dp9895
g71
(dp9896
g73
g9868
sg74
(lp9897
(dp9898
g77
g78
(I0
I6
I1
tp9899
Rp9900
sg81
g9881
sasstp9901
bsg83
g84
sg15
NsbsF20.0
g7
(g8
g9
Ntp9902
Rp9903
(dp9904
g13
g14
sg16
g7
(g17
g9
Ntp9905
Rp9906
((lp9907
g21
(g22
(dp9908
g24
g25
(g26
(I0
tp9909
g28
tp9910
Rp9911
(I1
(I6
tp9912
g35
I00
(lp9913
g39
ag40
ag41
ag42
ag43
ag44
atp9914
bsg15
Nstp9915
Rp9916
a(lp9917
g25
(g26
(I0
tp9918
g28
tp9919
Rp9920
(I1
(I6
tp9921
g55
I00
S'\xf0\xd8\xd4\xee\x16\xf9\x00@\xc3\xff\xf2gv.!@J\xf4`\xfeB\x043@\xb2\xa5|2\xe0t\xfd?\x9e\x8c\x8d\xd8\x17\xcd\x04@\\hQ\xd7]\x86\xf3?'
p9922
tp9923
ba(lp9924
g21
(g22
(dp9925
g24
g25
(g26
(I0
tp9926
g28
tp9927
Rp9928
(I1
(I6
tp9929
g35
I00
(lp9930
g39
ag40
ag41
ag42
ag43
ag44
atp9931
bsg15
Nstp9932
Rp9933
a(dp9934
g71
(dp9935
g73
g9907
sg74
(lp9936
(dp9937
g77
g78
(I0
I6
I1
tp9938
Rp9939
sg81
g9920
sasstp9940
bsg83
g84
sg15
NsbsF90.0
g7
(g8
g9
Ntp9941
Rp9942
(dp9943
g13
g14
sg16
g7
(g17
g9
Ntp9944
Rp9945
((lp9946
g21
(g22
(dp9947
g24
g25
(g26
(I0
tp9948
g28
tp9949
Rp9950
(I1
(I6
tp9951
g35
I00
(lp9952
g39
ag40
ag41
ag42
ag43
ag44
atp9953
bsg15
Nstp9954
Rp9955
a(lp9956
g25
(g26
(I0
tp9957
g28
tp9958
Rp9959
(I1
(I6
tp9960
g55
I00
S'\xb2\xe8\xcc\xc2\x91(\x00@>\x9cN\xb3WH\x1e@\x00]\xc5\xbd\xe5n0@s\xc4\xbd\x97$n\xfc?>\x1c\xc4Uz5\x02@\xf2\x87\x08\xf8\xba8\xe9?'
p9961
tp9962
ba(lp9963
g21
(g22
(dp9964
g24
g25
(g26
(I0
tp9965
g28
tp9966
Rp9967
(I1
(I6
tp9968
g35
I00
(lp9969
g39
ag40
ag41
ag42
ag43
ag44
atp9970
bsg15
Nstp9971
Rp9972
a(dp9973
g71
(dp9974
g73
g9946
sg74
(lp9975
(dp9976
g77
g78
(I0
I6
I1
tp9977
Rp9978
sg81
g9959
sasstp9979
bsg83
g84
sg15
NsbsF60.0
g7
(g8
g9
Ntp9980
Rp9981
(dp9982
g13
g14
sg16
g7
(g17
g9
Ntp9983
Rp9984
((lp9985
g21
(g22
(dp9986
g24
g25
(g26
(I0
tp9987
g28
tp9988
Rp9989
(I1
(I6
tp9990
g35
I00
(lp9991
g39
ag40
ag41
ag42
ag43
ag44
atp9992
bsg15
Nstp9993
Rp9994
a(lp9995
g25
(g26
(I0
tp9996
g28
tp9997
Rp9998
(I1
(I6
tp9999
g55
I00
S'?\x96\x8e\xad\xcfU\x01@\x8c8\x13C@\t @\x02\xd1\xb9\xa1\xe9N1@s\x92\xb4\xa8\xb1\xa9\xfc?d0\xf2\xeee.\x02@\xd0_o*\x87\xd7\xe9?'
p10000
tp10001
ba(lp10002
g21
(g22
(dp10003
g24
g25
(g26
(I0
tp10004
g28
tp10005
Rp10006
(I1
(I6
tp10007
g35
I00
(lp10008
g39
ag40
ag41
ag42
ag43
ag44
atp10009
bsg15
Nstp10010
Rp10011
a(dp10012
g71
(dp10013
g73
g9985
sg74
(lp10014
(dp10015
g77
g78
(I0
I6
I1
tp10016
Rp10017
sg81
g9998
sasstp10018
bsg83
g84
sg15
NsbsF30.0
g7
(g8
g9
Ntp10019
Rp10020
(dp10021
g13
g14
sg16
g7
(g17
g9
Ntp10022
Rp10023
((lp10024
g21
(g22
(dp10025
g24
g25
(g26
(I0
tp10026
g28
tp10027
Rp10028
(I1
(I6
tp10029
g35
I00
(lp10030
g39
ag40
ag41
ag42
ag43
ag44
atp10031
bsg15
Nstp10032
Rp10033
a(lp10034
g25
(g26
(I0
tp10035
g28
tp10036
Rp10037
(I1
(I6
tp10038
g55
I00
S'+w\r\x86\x99\xca\x01@\xed$\xe9\x16\x07\r\x1d@\xf5\x87wZ\x03\x852@\x9b\xf2\xc3\xef-~\xfd?\x1e?2)#\xa6\x03@\xc2B\xb6.j\xd3\xea?'
p10039
tp10040
ba(lp10041
g21
(g22
(dp10042
g24
g25
(g26
(I0
tp10043
g28
tp10044
Rp10045
(I1
(I6
tp10046
g35
I00
(lp10047
g39
ag40
ag41
ag42
ag43
ag44
atp10048
bsg15
Nstp10049
Rp10050
a(dp10051
g71
(dp10052
g73
g10024
sg74
(lp10053
(dp10054
g77
g78
(I0
I6
I1
tp10055
Rp10056
sg81
g10037
sasstp10057
bsg83
g84
sg15
Nsbsssss.