(dp0
S'transfer'
p1
(dp2
F100.0
ccopy_reg
_reconstructor
p3
(cpandas.core.series
Series
p4
cdill.dill
_load_type
p5
(S'ObjectType'
p6
tp7
Rp8
Ntp9
Rp10
(dp11
S'_metadata'
p12
(lp13
S'name'
p14
asS'_data'
p15
g3
(cpandas.core.internals
SingleBlockManager
p16
g8
Ntp17
Rp18
((lp19
cpandas.core.indexes.base
_new_Index
p20
(cpandas.core.indexes.base
Index
p21
(dp22
S'data'
p23
cnumpy.core.multiarray
_reconstruct
p24
(cnumpy
ndarray
p25
(I0
tp26
S'b'
p27
tp28
Rp29
(I1
(I6
tp30
cnumpy
dtype
p31
(S'O8'
p32
I0
I1
tp33
Rp34
(I3
S'|'
p35
NNNI-1
I-1
I63
tp36
bI00
(lp37
S'dw'
p38
aS'fridge'
p39
aS'hvac'
p40
aS'mw'
p41
aS'oven'
p42
aS'wm'
p43
atp44
bsg14
Nstp45
Rp46
a(lp47
g24
(g25
(I0
tp48
g27
tp49
Rp50
(I1
(I6
tp51
g31
(S'f8'
p52
I0
I1
tp53
Rp54
(I3
S'<'
p55
NNNI-1
I-1
I0
tp56
bI00
S'\xf9[\x0bjA*\xfe?~\xbb\xac\x11\xc5\xb3$@\xd27E\xaba\xda6@\x9e\x92\xb0H\xfe\x14\x02@\x90q\xee\x17\xc2\x08\x03@l$\x95\xd5sK\xee?'
p57
tp58
ba(lp59
g20
(g21
(dp60
g23
g24
(g25
(I0
tp61
g27
tp62
Rp63
(I1
(I6
tp64
g34
I00
(lp65
g38
ag39
ag40
ag41
ag42
ag43
atp66
bsg14
Nstp67
Rp68
a(dp69
S'0.14.1'
p70
(dp71
S'axes'
p72
g19
sS'blocks'
p73
(lp74
(dp75
S'mgr_locs'
p76
g5
(S'SliceType'
p77
tp78
Rp79
(I0
I6
I1
tp80
Rp81
sS'values'
p82
g50
sasstp83
bsS'_typ'
p84
S'series'
p85
sg14
NsbsF70.0
g3
(g4
g8
Ntp86
Rp87
(dp88
g12
g13
sg15
g3
(g16
g8
Ntp89
Rp90
((lp91
g20
(g21
(dp92
g23
g24
(g25
(I0
tp93
g27
tp94
Rp95
(I1
(I6
tp96
g34
I00
(lp97
g38
ag39
ag40
ag41
ag42
ag43
atp98
bsg14
Nstp99
Rp100
a(lp101
g24
(g25
(I0
tp102
g27
tp103
Rp104
(I1
(I6
tp105
g54
I00
S'h\xe7J\xa9\x9d9\xfe?\xa9\x93\xe6c\xa4\x86$@\xbebj\x18\xdd?7@\xb1\x1e\x0b\xb4\x06\xde\x01@\xdak\xe9\x91\x8c\x18\x03@\xb0\xe1\x07a\xb3A\xee?'
p106
tp107
ba(lp108
g20
(g21
(dp109
g23
g24
(g25
(I0
tp110
g27
tp111
Rp112
(I1
(I6
tp113
g34
I00
(lp114
g38
ag39
ag40
ag41
ag42
ag43
atp115
bsg14
Nstp116
Rp117
a(dp118
g70
(dp119
g72
g91
sg73
(lp120
(dp121
g76
g79
(I0
I6
I1
tp122
Rp123
sg82
g104
sasstp124
bsg84
g85
sg14
NsbsF6.0
g3
(g4
g8
Ntp125
Rp126
(dp127
g12
g13
sg15
g3
(g16
g8
Ntp128
Rp129
((lp130
g20
(g21
(dp131
g23
g24
(g25
(I0
tp132
g27
tp133
Rp134
(I1
(I6
tp135
g34
I00
(lp136
g38
ag39
ag40
ag41
ag42
ag43
atp137
bsg14
Nstp138
Rp139
a(lp140
g24
(g25
(I0
tp141
g27
tp142
Rp143
(I1
(I6
tp144
g54
I00
S'\x97Y`Wd\x1b\xfe?\xc8\x93\xfa\xad\x8c\xa4$@\xb0\x98\x14\xa5\x9bD6@bvV\xf8\xc8F\x02@\x87F\x9fj\xde@\x03@\x18\xf5m\xe5Ct\xee?'
p145
tp146
ba(lp147
g20
(g21
(dp148
g23
g24
(g25
(I0
tp149
g27
tp150
Rp151
(I1
(I6
tp152
g34
I00
(lp153
g38
ag39
ag40
ag41
ag42
ag43
atp154
bsg14
Nstp155
Rp156
a(dp157
g70
(dp158
g72
g130
sg73
(lp159
(dp160
g76
g79
(I0
I6
I1
tp161
Rp162
sg82
g143
sasstp163
bsg84
g85
sg14
NsbsF7.0
g3
(g4
g8
Ntp164
Rp165
(dp166
g12
g13
sg15
g3
(g16
g8
Ntp167
Rp168
((lp169
g20
(g21
(dp170
g23
g24
(g25
(I0
tp171
g27
tp172
Rp173
(I1
(I6
tp174
g34
I00
(lp175
g38
ag39
ag40
ag41
ag42
ag43
atp176
bsg14
Nstp177
Rp178
a(lp179
g24
(g25
(I0
tp180
g27
tp181
Rp182
(I1
(I6
tp183
g54
I00
S'\x97Y`Wd\x1b\xfe?\xc8\x93\xfa\xad\x8c\xa4$@\xb0\x98\x14\xa5\x9bD6@bvV\xf8\xc8F\x02@\x87F\x9fj\xde@\x03@\x18\xf5m\xe5Ct\xee?'
p184
tp185
ba(lp186
g20
(g21
(dp187
g23
g24
(g25
(I0
tp188
g27
tp189
Rp190
(I1
(I6
tp191
g34
I00
(lp192
g38
ag39
ag40
ag41
ag42
ag43
atp193
bsg14
Nstp194
Rp195
a(dp196
g70
(dp197
g72
g169
sg73
(lp198
(dp199
g76
g79
(I0
I6
I1
tp200
Rp201
sg82
g182
sasstp202
bsg84
g85
sg14
NsbsF8.0
g3
(g4
g8
Ntp203
Rp204
(dp205
g12
g13
sg15
g3
(g16
g8
Ntp206
Rp207
((lp208
g20
(g21
(dp209
g23
g24
(g25
(I0
tp210
g27
tp211
Rp212
(I1
(I6
tp213
g34
I00
(lp214
g38
ag39
ag40
ag41
ag42
ag43
atp215
bsg14
Nstp216
Rp217
a(lp218
g24
(g25
(I0
tp219
g27
tp220
Rp221
(I1
(I6
tp222
g54
I00
S'\x97Y`Wd\x1b\xfe?\xc8\x93\xfa\xad\x8c\xa4$@\xb0\x98\x14\xa5\x9bD6@bvV\xf8\xc8F\x02@\x87F\x9fj\xde@\x03@\x18\xf5m\xe5Ct\xee?'
p223
tp224
ba(lp225
g20
(g21
(dp226
g23
g24
(g25
(I0
tp227
g27
tp228
Rp229
(I1
(I6
tp230
g34
I00
(lp231
g38
ag39
ag40
ag41
ag42
ag43
atp232
bsg14
Nstp233
Rp234
a(dp235
g70
(dp236
g72
g208
sg73
(lp237
(dp238
g76
g79
(I0
I6
I1
tp239
Rp240
sg82
g221
sasstp241
bsg84
g85
sg14
NsbsF9.0
g3
(g4
g8
Ntp242
Rp243
(dp244
g12
g13
sg15
g3
(g16
g8
Ntp245
Rp246
((lp247
g20
(g21
(dp248
g23
g24
(g25
(I0
tp249
g27
tp250
Rp251
(I1
(I6
tp252
g34
I00
(lp253
g38
ag39
ag40
ag41
ag42
ag43
atp254
bsg14
Nstp255
Rp256
a(lp257
g24
(g25
(I0
tp258
g27
tp259
Rp260
(I1
(I6
tp261
g54
I00
S'\xcbX\x95\x13h\x1a\xfe?3L8 \x08\xa0$@\xf1\xb78b\x97x6@0j\xe8{\x0cF\x02@\x99\xaff\xf1\xbf@\x03@\xc50\x10y\xed\x92\xee?'
p262
tp263
ba(lp264
g20
(g21
(dp265
g23
g24
(g25
(I0
tp266
g27
tp267
Rp268
(I1
(I6
tp269
g34
I00
(lp270
g38
ag39
ag40
ag41
ag42
ag43
atp271
bsg14
Nstp272
Rp273
a(dp274
g70
(dp275
g72
g247
sg73
(lp276
(dp277
g76
g79
(I0
I6
I1
tp278
Rp279
sg82
g260
sasstp280
bsg84
g85
sg14
NsbsF10.0
g3
(g4
g8
Ntp281
Rp282
(dp283
g12
g13
sg15
g3
(g16
g8
Ntp284
Rp285
((lp286
g20
(g21
(dp287
g23
g24
(g25
(I0
tp288
g27
tp289
Rp290
(I1
(I6
tp291
g34
I00
(lp292
g38
ag39
ag40
ag41
ag42
ag43
atp293
bsg14
Nstp294
Rp295
a(lp296
g24
(g25
(I0
tp297
g27
tp298
Rp299
(I1
(I6
tp300
g54
I00
S'\xcbX\x95\x13h\x1a\xfe?3L8 \x08\xa0$@\xf1\xb78b\x97x6@0j\xe8{\x0cF\x02@\x99\xaff\xf1\xbf@\x03@\xc50\x10y\xed\x92\xee?'
p301
tp302
ba(lp303
g20
(g21
(dp304
g23
g24
(g25
(I0
tp305
g27
tp306
Rp307
(I1
(I6
tp308
g34
I00
(lp309
g38
ag39
ag40
ag41
ag42
ag43
atp310
bsg14
Nstp311
Rp312
a(dp313
g70
(dp314
g72
g286
sg73
(lp315
(dp316
g76
g79
(I0
I6
I1
tp317
Rp318
sg82
g299
sasstp319
bsg84
g85
sg14
NsbsF80.0
g3
(g4
g8
Ntp320
Rp321
(dp322
g12
g13
sg15
g3
(g16
g8
Ntp323
Rp324
((lp325
g20
(g21
(dp326
g23
g24
(g25
(I0
tp327
g27
tp328
Rp329
(I1
(I6
tp330
g34
I00
(lp331
g38
ag39
ag40
ag41
ag42
ag43
atp332
bsg14
Nstp333
Rp334
a(lp335
g24
(g25
(I0
tp336
g27
tp337
Rp338
(I1
(I6
tp339
g54
I00
S'\xb4\xf1\xacT\xbcF\xfe?[\xce\xa22~l$@\x14\xd7N,\x8f\xcf7@\x1cU\xa4\xcez\xe2\x01@\xb5\xa6\x1c\xb3\x00\x17\x03@\x10\x10^\xb1Q.\xee?'
p340
tp341
ba(lp342
g20
(g21
(dp343
g23
g24
(g25
(I0
tp344
g27
tp345
Rp346
(I1
(I6
tp347
g34
I00
(lp348
g38
ag39
ag40
ag41
ag42
ag43
atp349
bsg14
Nstp350
Rp351
a(dp352
g70
(dp353
g72
g325
sg73
(lp354
(dp355
g76
g79
(I0
I6
I1
tp356
Rp357
sg82
g338
sasstp358
bsg84
g85
sg14
NsbsF40.0
g3
(g4
g8
Ntp359
Rp360
(dp361
g12
g13
sg15
g3
(g16
g8
Ntp362
Rp363
((lp364
g20
(g21
(dp365
g23
g24
(g25
(I0
tp366
g27
tp367
Rp368
(I1
(I6
tp369
g34
I00
(lp370
g38
ag39
ag40
ag41
ag42
ag43
atp371
bsg14
Nstp372
Rp373
a(lp374
g24
(g25
(I0
tp375
g27
tp376
Rp377
(I1
(I6
tp378
g54
I00
S'\xe9n\xb2\xdcJ4\xfe?N\x97\xda\xa1\\m$@zj\x8bk\xed\x807@\x1a\xd6@\xc2\xb1\xe6\x01@\x90Z+\x96>3\x03@V\x97\x1e\xe1\x9d\x1d\xee?'
p379
tp380
ba(lp381
g20
(g21
(dp382
g23
g24
(g25
(I0
tp383
g27
tp384
Rp385
(I1
(I6
tp386
g34
I00
(lp387
g38
ag39
ag40
ag41
ag42
ag43
atp388
bsg14
Nstp389
Rp390
a(dp391
g70
(dp392
g72
g364
sg73
(lp393
(dp394
g76
g79
(I0
I6
I1
tp395
Rp396
sg82
g377
sasstp397
bsg84
g85
sg14
NsbsF50.0
g3
(g4
g8
Ntp398
Rp399
(dp400
g12
g13
sg15
g3
(g16
g8
Ntp401
Rp402
((lp403
g20
(g21
(dp404
g23
g24
(g25
(I0
tp405
g27
tp406
Rp407
(I1
(I6
tp408
g34
I00
(lp409
g38
ag39
ag40
ag41
ag42
ag43
atp410
bsg14
Nstp411
Rp412
a(lp413
g24
(g25
(I0
tp414
g27
tp415
Rp416
(I1
(I6
tp417
g54
I00
S'\xaal\xff`n:\xfe?ca#\xdf\x1bs$@\x95S\xb2o*97@\xd2*\x99\xe9\x9f\xf1\x01@\xf8;\xab%-\x18\x03@&_\xfe\x02\x8bJ\xee?'
p418
tp419
ba(lp420
g20
(g21
(dp421
g23
g24
(g25
(I0
tp422
g27
tp423
Rp424
(I1
(I6
tp425
g34
I00
(lp426
g38
ag39
ag40
ag41
ag42
ag43
atp427
bsg14
Nstp428
Rp429
a(dp430
g70
(dp431
g72
g403
sg73
(lp432
(dp433
g76
g79
(I0
I6
I1
tp434
Rp435
sg82
g416
sasstp436
bsg84
g85
sg14
NsbsF20.0
g3
(g4
g8
Ntp437
Rp438
(dp439
g12
g13
sg15
g3
(g16
g8
Ntp440
Rp441
((lp442
g20
(g21
(dp443
g23
g24
(g25
(I0
tp444
g27
tp445
Rp446
(I1
(I6
tp447
g34
I00
(lp448
g38
ag39
ag40
ag41
ag42
ag43
atp449
bsg14
Nstp450
Rp451
a(lp452
g24
(g25
(I0
tp453
g27
tp454
Rp455
(I1
(I6
tp456
g54
I00
S'\xbc"\\\xf4{L\xfe?\xa0\x1cf\xac\xd9O$@\xddnK\x98\xf0x8@\x967\xa9\xd5c\xf7\x01@w\xd3a8|b\x03@\xce*X\xd6\xa48\xee?'
p457
tp458
ba(lp459
g20
(g21
(dp460
g23
g24
(g25
(I0
tp461
g27
tp462
Rp463
(I1
(I6
tp464
g34
I00
(lp465
g38
ag39
ag40
ag41
ag42
ag43
atp466
bsg14
Nstp467
Rp468
a(dp469
g70
(dp470
g72
g442
sg73
(lp471
(dp472
g76
g79
(I0
I6
I1
tp473
Rp474
sg82
g455
sasstp475
bsg84
g85
sg14
NsbsF90.0
g3
(g4
g8
Ntp476
Rp477
(dp478
g12
g13
sg15
g3
(g16
g8
Ntp479
Rp480
((lp481
g20
(g21
(dp482
g23
g24
(g25
(I0
tp483
g27
tp484
Rp485
(I1
(I6
tp486
g34
I00
(lp487
g38
ag39
ag40
ag41
ag42
ag43
atp488
bsg14
Nstp489
Rp490
a(lp491
g24
(g25
(I0
tp492
g27
tp493
Rp494
(I1
(I6
tp495
g54
I00
S'\x803\x88a}M\xfe?"\xa7\xe0\xa15d$@\x08\xf3N\xedG\xd76@\xfaq\x7f\xea\x83\xd5\x01@\xb0\x0b\x0c\x11\xfc\x13\x03@t\x1b\xd7]\x9b%\xee?'
p496
tp497
ba(lp498
g20
(g21
(dp499
g23
g24
(g25
(I0
tp500
g27
tp501
Rp502
(I1
(I6
tp503
g34
I00
(lp504
g38
ag39
ag40
ag41
ag42
ag43
atp505
bsg14
Nstp506
Rp507
a(dp508
g70
(dp509
g72
g481
sg73
(lp510
(dp511
g76
g79
(I0
I6
I1
tp512
Rp513
sg82
g494
sasstp514
bsg84
g85
sg14
NsbsF60.0
g3
(g4
g8
Ntp515
Rp516
(dp517
g12
g13
sg15
g3
(g16
g8
Ntp518
Rp519
((lp520
g20
(g21
(dp521
g23
g24
(g25
(I0
tp522
g27
tp523
Rp524
(I1
(I6
tp525
g34
I00
(lp526
g38
ag39
ag40
ag41
ag42
ag43
atp527
bsg14
Nstp528
Rp529
a(lp530
g24
(g25
(I0
tp531
g27
tp532
Rp533
(I1
(I6
tp534
g54
I00
S"\x16\x031?VS\xfe?\x19\xc0!\xd9\x06_$@Z'\x146\x91\xa17@\x81\xa4\xefz\x84\xe1\x01@\xe7\x0f\xd1\xb8\x91 \x03@F\x983\xd3\x86A\xee?"
p535
tp536
ba(lp537
g20
(g21
(dp538
g23
g24
(g25
(I0
tp539
g27
tp540
Rp541
(I1
(I6
tp542
g34
I00
(lp543
g38
ag39
ag40
ag41
ag42
ag43
atp544
bsg14
Nstp545
Rp546
a(dp547
g70
(dp548
g72
g520
sg73
(lp549
(dp550
g76
g79
(I0
I6
I1
tp551
Rp552
sg82
g533
sasstp553
bsg84
g85
sg14
NsbsF30.0
g3
(g4
g8
Ntp554
Rp555
(dp556
g12
g13
sg15
g3
(g16
g8
Ntp557
Rp558
((lp559
g20
(g21
(dp560
g23
g24
(g25
(I0
tp561
g27
tp562
Rp563
(I1
(I6
tp564
g34
I00
(lp565
g38
ag39
ag40
ag41
ag42
ag43
atp566
bsg14
Nstp567
Rp568
a(lp569
g24
(g25
(I0
tp570
g27
tp571
Rp572
(I1
(I6
tp573
g54
I00
S'QM9\x93\x85B\xfe?Y}\xe3\x9c\xb0r$@\x98\xf8\x81\x7f!\xc16@eo\xa7v\xdc\xf2\x01@6`\n\x00\x1dS\x03@\x1e{\xe3Q\x92,\xee?'
p574
tp575
ba(lp576
g20
(g21
(dp577
g23
g24
(g25
(I0
tp578
g27
tp579
Rp580
(I1
(I6
tp581
g34
I00
(lp582
g38
ag39
ag40
ag41
ag42
ag43
atp583
bsg14
Nstp584
Rp585
a(dp586
g70
(dp587
g72
g559
sg73
(lp588
(dp589
g76
g79
(I0
I6
I1
tp590
Rp591
sg82
g572
sasstp592
bsg84
g85
sg14
NsbssS'normal'
p593
(dp594
F100.0
g3
(g4
g8
Ntp595
Rp596
(dp597
g12
g13
sg15
g3
(g16
g8
Ntp598
Rp599
((lp600
g20
(g21
(dp601
g23
g24
(g25
(I0
tp602
g27
tp603
Rp604
(I1
(I6
tp605
g34
I00
(lp606
g38
ag39
ag40
ag41
ag42
ag43
atp607
bsg14
Nstp608
Rp609
a(lp610
g24
(g25
(I0
tp611
g27
tp612
Rp613
(I1
(I6
tp614
g54
I00
S'0\xbebn\x1a\x9e\x13@K{\xc99\x8fk/@\xb4\x86\xfc0:\xd59@\xe3\x12S\xff#\xa7\x07@\xc6~\xef\xa2V~\n@\x0e\xa9\x01Dr\x15\xeb?'
p615
tp616
ba(lp617
g20
(g21
(dp618
g23
g24
(g25
(I0
tp619
g27
tp620
Rp621
(I1
(I6
tp622
g34
I00
(lp623
g38
ag39
ag40
ag41
ag42
ag43
atp624
bsg14
Nstp625
Rp626
a(dp627
g70
(dp628
g72
g600
sg73
(lp629
(dp630
g76
g79
(I0
I6
I1
tp631
Rp632
sg82
g613
sasstp633
bsg84
g85
sg14
NsbsF70.0
g3
(g4
g8
Ntp634
Rp635
(dp636
g12
g13
sg15
g3
(g16
g8
Ntp637
Rp638
((lp639
g20
(g21
(dp640
g23
g24
(g25
(I0
tp641
g27
tp642
Rp643
(I1
(I6
tp644
g34
I00
(lp645
g38
ag39
ag40
ag41
ag42
ag43
atp646
bsg14
Nstp647
Rp648
a(lp649
g24
(g25
(I0
tp650
g27
tp651
Rp652
(I1
(I6
tp653
g54
I00
S'p\xc5\xd3$\x80R\x1c@\x7f\x93]\xbc2W0@\xa2\xfc\xa9\xbe"\x95:@O\xd9&\xaaa /@\xdc\xd3\xc2\t\xbe>\x18@\xa3\x98\xa8\x8bBx3@'
p654
tp655
ba(lp656
g20
(g21
(dp657
g23
g24
(g25
(I0
tp658
g27
tp659
Rp660
(I1
(I6
tp661
g34
I00
(lp662
g38
ag39
ag40
ag41
ag42
ag43
atp663
bsg14
Nstp664
Rp665
a(dp666
g70
(dp667
g72
g639
sg73
(lp668
(dp669
g76
g79
(I0
I6
I1
tp670
Rp671
sg82
g652
sasstp672
bsg84
g85
sg14
NsbsF6.0
g3
(g4
g8
Ntp673
Rp674
(dp675
g12
g13
sg15
g3
(g16
g8
Ntp676
Rp677
((lp678
g20
(g21
(dp679
g23
g24
(g25
(I0
tp680
g27
tp681
Rp682
(I1
(I6
tp683
g34
I00
(lp684
g38
ag39
ag40
ag41
ag42
ag43
atp685
bsg14
Nstp686
Rp687
a(lp688
g24
(g25
(I0
tp689
g27
tp690
Rp691
(I1
(I6
tp692
g54
I00
S'\xd0\xf1\x1c\x16\x92\x18%@\x99&\xef\xca\xeb\xad9@\x12;\xd5\xd4\xf7{C@.\xf8\xc8TzW5@&\t\x1b\xb9\xb7\x8e(@\x9d\xd2\xd0~\xce\x07-@'
p693
tp694
ba(lp695
g20
(g21
(dp696
g23
g24
(g25
(I0
tp697
g27
tp698
Rp699
(I1
(I6
tp700
g34
I00
(lp701
g38
ag39
ag40
ag41
ag42
ag43
atp702
bsg14
Nstp703
Rp704
a(dp705
g70
(dp706
g72
g678
sg73
(lp707
(dp708
g76
g79
(I0
I6
I1
tp709
Rp710
sg82
g691
sasstp711
bsg84
g85
sg14
NsbsF7.0
g3
(g4
g8
Ntp712
Rp713
(dp714
g12
g13
sg15
g3
(g16
g8
Ntp715
Rp716
((lp717
g20
(g21
(dp718
g23
g24
(g25
(I0
tp719
g27
tp720
Rp721
(I1
(I6
tp722
g34
I00
(lp723
g38
ag39
ag40
ag41
ag42
ag43
atp724
bsg14
Nstp725
Rp726
a(lp727
g24
(g25
(I0
tp728
g27
tp729
Rp730
(I1
(I6
tp731
g54
I00
S'\xd0\xf1\x1c\x16\x92\x18%@\x99&\xef\xca\xeb\xad9@\x12;\xd5\xd4\xf7{C@.\xf8\xc8TzW5@&\t\x1b\xb9\xb7\x8e(@\x9d\xd2\xd0~\xce\x07-@'
p732
tp733
ba(lp734
g20
(g21
(dp735
g23
g24
(g25
(I0
tp736
g27
tp737
Rp738
(I1
(I6
tp739
g34
I00
(lp740
g38
ag39
ag40
ag41
ag42
ag43
atp741
bsg14
Nstp742
Rp743
a(dp744
g70
(dp745
g72
g717
sg73
(lp746
(dp747
g76
g79
(I0
I6
I1
tp748
Rp749
sg82
g730
sasstp750
bsg84
g85
sg14
NsbsF8.0
g3
(g4
g8
Ntp751
Rp752
(dp753
g12
g13
sg15
g3
(g16
g8
Ntp754
Rp755
((lp756
g20
(g21
(dp757
g23
g24
(g25
(I0
tp758
g27
tp759
Rp760
(I1
(I6
tp761
g34
I00
(lp762
g38
ag39
ag40
ag41
ag42
ag43
atp763
bsg14
Nstp764
Rp765
a(lp766
g24
(g25
(I0
tp767
g27
tp768
Rp769
(I1
(I6
tp770
g54
I00
S'\xd0\xf1\x1c\x16\x92\x18%@\x99&\xef\xca\xeb\xad9@\x12;\xd5\xd4\xf7{C@.\xf8\xc8TzW5@&\t\x1b\xb9\xb7\x8e(@\x9d\xd2\xd0~\xce\x07-@'
p771
tp772
ba(lp773
g20
(g21
(dp774
g23
g24
(g25
(I0
tp775
g27
tp776
Rp777
(I1
(I6
tp778
g34
I00
(lp779
g38
ag39
ag40
ag41
ag42
ag43
atp780
bsg14
Nstp781
Rp782
a(dp783
g70
(dp784
g72
g756
sg73
(lp785
(dp786
g76
g79
(I0
I6
I1
tp787
Rp788
sg82
g769
sasstp789
bsg84
g85
sg14
NsbsF9.0
g3
(g4
g8
Ntp790
Rp791
(dp792
g12
g13
sg15
g3
(g16
g8
Ntp793
Rp794
((lp795
g20
(g21
(dp796
g23
g24
(g25
(I0
tp797
g27
tp798
Rp799
(I1
(I6
tp800
g34
I00
(lp801
g38
ag39
ag40
ag41
ag42
ag43
atp802
bsg14
Nstp803
Rp804
a(lp805
g24
(g25
(I0
tp806
g27
tp807
Rp808
(I1
(I6
tp809
g54
I00
S'\xf1\xbc6jc^4@\x0c\xde\n\xeex3@@\n\xf2\xe2\xc8O\xaeD@\xa0\x03\xba\x0c\xd8\x0c7@\x18\xceP\xac\xcc\xd98@\xd4R\xa0\x96\xc7\xf4\x11@'
p810
tp811
ba(lp812
g20
(g21
(dp813
g23
g24
(g25
(I0
tp814
g27
tp815
Rp816
(I1
(I6
tp817
g34
I00
(lp818
g38
ag39
ag40
ag41
ag42
ag43
atp819
bsg14
Nstp820
Rp821
a(dp822
g70
(dp823
g72
g795
sg73
(lp824
(dp825
g76
g79
(I0
I6
I1
tp826
Rp827
sg82
g808
sasstp828
bsg84
g85
sg14
NsbsF10.0
g3
(g4
g8
Ntp829
Rp830
(dp831
g12
g13
sg15
g3
(g16
g8
Ntp832
Rp833
((lp834
g20
(g21
(dp835
g23
g24
(g25
(I0
tp836
g27
tp837
Rp838
(I1
(I6
tp839
g34
I00
(lp840
g38
ag39
ag40
ag41
ag42
ag43
atp841
bsg14
Nstp842
Rp843
a(lp844
g24
(g25
(I0
tp845
g27
tp846
Rp847
(I1
(I6
tp848
g54
I00
S'\xf1\xbc6jc^4@\x0c\xde\n\xeex3@@\n\xf2\xe2\xc8O\xaeD@\xa0\x03\xba\x0c\xd8\x0c7@\x18\xceP\xac\xcc\xd98@\xd4R\xa0\x96\xc7\xf4\x11@'
p849
tp850
ba(lp851
g20
(g21
(dp852
g23
g24
(g25
(I0
tp853
g27
tp854
Rp855
(I1
(I6
tp856
g34
I00
(lp857
g38
ag39
ag40
ag41
ag42
ag43
atp858
bsg14
Nstp859
Rp860
a(dp861
g70
(dp862
g72
g834
sg73
(lp863
(dp864
g76
g79
(I0
I6
I1
tp865
Rp866
sg82
g847
sasstp867
bsg84
g85
sg14
NsbsF80.0
g3
(g4
g8
Ntp868
Rp869
(dp870
g12
g13
sg15
g3
(g16
g8
Ntp871
Rp872
((lp873
g20
(g21
(dp874
g23
g24
(g25
(I0
tp875
g27
tp876
Rp877
(I1
(I6
tp878
g34
I00
(lp879
g38
ag39
ag40
ag41
ag42
ag43
atp880
bsg14
Nstp881
Rp882
a(lp883
g24
(g25
(I0
tp884
g27
tp885
Rp886
(I1
(I6
tp887
g54
I00
S'M\xdcE\xd7\xe7K\x08@\xf6Kd\xeb(H"@\xeb\xf3M\xf1\xe4Y8@\xd1y\xb3\xa2UG\x1c@\x16\x05\xa0\xfd\xbe\xf4\x11@`\xa4\'\xed\xd0\x08\xfd?'
p888
tp889
ba(lp890
g20
(g21
(dp891
g23
g24
(g25
(I0
tp892
g27
tp893
Rp894
(I1
(I6
tp895
g34
I00
(lp896
g38
ag39
ag40
ag41
ag42
ag43
atp897
bsg14
Nstp898
Rp899
a(dp900
g70
(dp901
g72
g873
sg73
(lp902
(dp903
g76
g79
(I0
I6
I1
tp904
Rp905
sg82
g886
sasstp906
bsg84
g85
sg14
NsbsF40.0
g3
(g4
g8
Ntp907
Rp908
(dp909
g12
g13
sg15
g3
(g16
g8
Ntp910
Rp911
((lp912
g20
(g21
(dp913
g23
g24
(g25
(I0
tp914
g27
tp915
Rp916
(I1
(I6
tp917
g34
I00
(lp918
g38
ag39
ag40
ag41
ag42
ag43
atp919
bsg14
Nstp920
Rp921
a(lp922
g24
(g25
(I0
tp923
g27
tp924
Rp925
(I1
(I6
tp926
g54
I00
S'\xd9/\xde\xb8\xe7r\x16@\x8c$W\x7f\xb5\x1a6@\x86@\xac[ \xe6=@\xf8\x8f\x92\x04\xa7V2@\x85\x01\xf8\x90H\x1e2@\xf6\xaa\xc2\xde\xb3\xff\xf5?'
p927
tp928
ba(lp929
g20
(g21
(dp930
g23
g24
(g25
(I0
tp931
g27
tp932
Rp933
(I1
(I6
tp934
g34
I00
(lp935
g38
ag39
ag40
ag41
ag42
ag43
atp936
bsg14
Nstp937
Rp938
a(dp939
g70
(dp940
g72
g912
sg73
(lp941
(dp942
g76
g79
(I0
I6
I1
tp943
Rp944
sg82
g925
sasstp945
bsg84
g85
sg14
NsbsF50.0
g3
(g4
g8
Ntp946
Rp947
(dp948
g12
g13
sg15
g3
(g16
g8
Ntp949
Rp950
((lp951
g20
(g21
(dp952
g23
g24
(g25
(I0
tp953
g27
tp954
Rp955
(I1
(I6
tp956
g34
I00
(lp957
g38
ag39
ag40
ag41
ag42
ag43
atp958
bsg14
Nstp959
Rp960
a(lp961
g24
(g25
(I0
tp962
g27
tp963
Rp964
(I1
(I6
tp965
g54
I00
S'\xbe\xcf3\xe8Xs\x0b@\x7fk\xac\x06\x08\n1@7E\x9a\xfbl\x1c?@\xc0\x05I$\xf9\xda7@\xb42\x07lL\xcc/@\xadc\x00U]\x838@'
p966
tp967
ba(lp968
g20
(g21
(dp969
g23
g24
(g25
(I0
tp970
g27
tp971
Rp972
(I1
(I6
tp973
g34
I00
(lp974
g38
ag39
ag40
ag41
ag42
ag43
atp975
bsg14
Nstp976
Rp977
a(dp978
g70
(dp979
g72
g951
sg73
(lp980
(dp981
g76
g79
(I0
I6
I1
tp982
Rp983
sg82
g964
sasstp984
bsg84
g85
sg14
NsbsF20.0
g3
(g4
g8
Ntp985
Rp986
(dp987
g12
g13
sg15
g3
(g16
g8
Ntp988
Rp989
((lp990
g20
(g21
(dp991
g23
g24
(g25
(I0
tp992
g27
tp993
Rp994
(I1
(I6
tp995
g34
I00
(lp996
g38
ag39
ag40
ag41
ag42
ag43
atp997
bsg14
Nstp998
Rp999
a(lp1000
g24
(g25
(I0
tp1001
g27
tp1002
Rp1003
(I1
(I6
tp1004
g54
I00
S'\xc9A|2\x14\xae5@\xc9\xf4>\xba\xf1E@@,\xdc>\xb9!\x99C@\x98\xbb\xa9\x18\xb0J2@\xce\xb6ou\x1a\r7@EM\xe8\n\xc6\xbb,@'
p1005
tp1006
ba(lp1007
g20
(g21
(dp1008
g23
g24
(g25
(I0
tp1009
g27
tp1010
Rp1011
(I1
(I6
tp1012
g34
I00
(lp1013
g38
ag39
ag40
ag41
ag42
ag43
atp1014
bsg14
Nstp1015
Rp1016
a(dp1017
g70
(dp1018
g72
g990
sg73
(lp1019
(dp1020
g76
g79
(I0
I6
I1
tp1021
Rp1022
sg82
g1003
sasstp1023
bsg84
g85
sg14
NsbsF90.0
g3
(g4
g8
Ntp1024
Rp1025
(dp1026
g12
g13
sg15
g3
(g16
g8
Ntp1027
Rp1028
((lp1029
g20
(g21
(dp1030
g23
g24
(g25
(I0
tp1031
g27
tp1032
Rp1033
(I1
(I6
tp1034
g34
I00
(lp1035
g38
ag39
ag40
ag41
ag42
ag43
atp1036
bsg14
Nstp1037
Rp1038
a(lp1039
g24
(g25
(I0
tp1040
g27
tp1041
Rp1042
(I1
(I6
tp1043
g54
I00
S'\x0eF@\xc3\xe7\xd6\x01@\x94\xb8T\xd2\xbc\xf2&@L(\x06\xb2\x17\xf78@\x9e\xd1"\xbfEV*@"\x86\xb5q\xeaU%@\x14\xe8\xef\x08\xf3\xa2\t@'
p1044
tp1045
ba(lp1046
g20
(g21
(dp1047
g23
g24
(g25
(I0
tp1048
g27
tp1049
Rp1050
(I1
(I6
tp1051
g34
I00
(lp1052
g38
ag39
ag40
ag41
ag42
ag43
atp1053
bsg14
Nstp1054
Rp1055
a(dp1056
g70
(dp1057
g72
g1029
sg73
(lp1058
(dp1059
g76
g79
(I0
I6
I1
tp1060
Rp1061
sg82
g1042
sasstp1062
bsg84
g85
sg14
NsbsF60.0
g3
(g4
g8
Ntp1063
Rp1064
(dp1065
g12
g13
sg15
g3
(g16
g8
Ntp1066
Rp1067
((lp1068
g20
(g21
(dp1069
g23
g24
(g25
(I0
tp1070
g27
tp1071
Rp1072
(I1
(I6
tp1073
g34
I00
(lp1074
g38
ag39
ag40
ag41
ag42
ag43
atp1075
bsg14
Nstp1076
Rp1077
a(lp1078
g24
(g25
(I0
tp1079
g27
tp1080
Rp1081
(I1
(I6
tp1082
g54
I00
S'\xf3nb\xfaL\xe1\x05@{\xae\xde\xef\xa9\xff+@\x9e\xaf\xa9\n\xa56?@z\xb3#\xd1\xb6z-@d\xb8\x8fZ\xca\x8a5@/\x8b\xde\xd8f\xf3,@'
p1083
tp1084
ba(lp1085
g20
(g21
(dp1086
g23
g24
(g25
(I0
tp1087
g27
tp1088
Rp1089
(I1
(I6
tp1090
g34
I00
(lp1091
g38
ag39
ag40
ag41
ag42
ag43
atp1092
bsg14
Nstp1093
Rp1094
a(dp1095
g70
(dp1096
g72
g1068
sg73
(lp1097
(dp1098
g76
g79
(I0
I6
I1
tp1099
Rp1100
sg82
g1081
sasstp1101
bsg84
g85
sg14
NsbsF30.0
g3
(g4
g8
Ntp1102
Rp1103
(dp1104
g12
g13
sg15
g3
(g16
g8
Ntp1105
Rp1106
((lp1107
g20
(g21
(dp1108
g23
g24
(g25
(I0
tp1109
g27
tp1110
Rp1111
(I1
(I6
tp1112
g34
I00
(lp1113
g38
ag39
ag40
ag41
ag42
ag43
atp1114
bsg14
Nstp1115
Rp1116
a(lp1117
g24
(g25
(I0
tp1118
g27
tp1119
Rp1120
(I1
(I6
tp1121
g54
I00
S'8\xcf^\x90\xed\xe80@\xaf\xca@\xfc\xc5\xb59@%3\xcfA\xc1\xab@@\xdam!\xdez\xa7$@\xe2\xb24\xe2\xb5J2@$\x94\xc4\x8f\xe1\xc74@'
p1122
tp1123
ba(lp1124
g20
(g21
(dp1125
g23
g24
(g25
(I0
tp1126
g27
tp1127
Rp1128
(I1
(I6
tp1129
g34
I00
(lp1130
g38
ag39
ag40
ag41
ag42
ag43
atp1131
bsg14
Nstp1132
Rp1133
a(dp1134
g70
(dp1135
g72
g1107
sg73
(lp1136
(dp1137
g76
g79
(I0
I6
I1
tp1138
Rp1139
sg82
g1120
sasstp1140
bsg84
g85
sg14
Nsbss.